(lp1
(lp2
F0
aF0
aF0.32727272727272727
aF0.5714285714285714
aF0.40000000000000002
aF0
aF0.32727272727272727
aF0
aF0.32727272727272727
aF0.32727272727272727
aF0
aF0
aF0.6404494382022472
aF0.30769230769230771
aF0.40540540540540543
aF0.55555555555555558
aF0
aF0.32727272727272727
aF0
aF0
aF0
aF0.25
aF0.5
aF0.51315789473684215
aF0.58536585365853655
aF0.32727272727272727
aF0.61363636363636365
aa(lp3
F0
aF0
aF0.72222222222222221
aF0.73280423280423279
aF0.80423280423280419
aF0
aF0.72222222222222221
aF0
aF0.72222222222222221
aF0.72222222222222221
aF0
aF0
aF0.83544973544973555
aF0.28518518518518515
aF0.50370370370370365
aF0.67354497354497356
aF0
aF0.72222222222222221
aF0
aF0
aF0
aF0.32962962962962966
aF0.57671957671957674
aF0.81322751322751319
aF0.62116402116402125
aF0.72222222222222221
aF0.65555555555555556
aa(lp4
F0
aF0
aF0.88888888888888884
aF0.78417632817619365
aF0.4658436213991769
aF0
aF0.88888888888888884
aF0
aF0.88888888888888884
aF0.88888888888888884
aF0
aF0
aF0.9621733848522892
aF0.55880278037140785
aF0.17894736842105263
aF0.79788650655018944
aF0
aF0.88888888888888884
aF0
aF0
aF0
aF0.34915458937198068
aF0.57463462551369415
aF0.93849206349206349
aF0.69051711141263372
aF0.88888888888888884
aF0.83333333333333337
aa(lp5
F0.53333333333333333
aF0.78333333333333333
aF0.48333333333333334
aF0.43333333333333329
aF0.5
aF0.53333333333333333
aF0.48333333333333334
aF0.75
aF0.48333333333333334
aF0.48333333333333334
aF0.73333333333333339
aF0.68333333333333324
aF0.43333333333333329
aF0.52500000000000002
aF0.51666666666666672
aF0.43333333333333329
aF0.6333333333333333
aF0.48333333333333334
aF0.68333333333333324
aF0.68333333333333324
aF0.53333333333333333
aF0.5083333333333333
aF0.43333333333333329
aF0.44999999999999996
aF0.43333333333333329
aF0.48333333333333334
aF0.43333333333333329
aa(lp6
F-1
aF-0.02564102564102564
aF-0.85832801531589054
aF-0.52421652421652309
aF-0.57993730407523492
aF-1
aF-0.85832801531589054
aF-0.47126436781609193
aF-0.85832801531589054
aF-0.85832801531589054
aF-0.37931034482758619
aF-0.57480314960629919
aF-0.58849280800500192
aF-0.32791327913279228
aF-0.29230769230769443
aF-0.37207425343018785
aF-0.63914373088685017
aF-0.85832801531589054
aF-0.41714285714285715
aF-0.57480314960629919
aF-1
aF-0.56770833333333459
aF-0.38554216867469837
aF-0.69908466819222004
aF-0.48471615720523653
aF-0.85832801531589054
aF-0.56160458452722051
aa(lp7
F0.25
aF0.625
aF0.25
aF0.25
aF0.375
aF0.25
aF0.25
aF0.625
aF0.25
aF0.25
aF0.625
aF0.5
aF0.25
aF0.375
aF0.375
aF0.25
aF0.5
aF0.25
aF0.5
aF0.5
aF0.25
aF0.375
aF0.25
aF0.25
aF0.25
aF0.25
aF0.25
aa(lp8
F0.22222222222222221
aF0.22222222222222221
aF0.3888888888888889
aF0.55555555555555558
aF0.3888888888888889
aF0.22222222222222221
aF0.3888888888888889
aF0.22222222222222221
aF0.3888888888888889
aF0.3888888888888889
aF0.22222222222222221
aF0.22222222222222221
aF0.55555555555555558
aF0.3888888888888889
aF0.3888888888888889
aF0.55555555555555558
aF0.22222222222222221
aF0.3888888888888889
aF0.22222222222222221
aF0.22222222222222221
aF0.22222222222222221
aF0.3888888888888889
aF0.55555555555555558
aF0.5
aF0.55555555555555558
aF0.3888888888888889
aF0.55555555555555558
aa(lp9
F0
aF0
aF0.071428571428571425
aF0.19047619047619047
aF0.071428571428571425
aF0
aF0.071428571428571425
aF0
aF0.071428571428571425
aF0.071428571428571425
aF0
aF0
aF0.22619047619047619
aF0.047619047619047616
aF0.059523809523809521
aF0.17857142857142858
aF0
aF0.071428571428571425
aF0
aF0
aF0
aF0.035714285714285712
aF0.15476190476190477
aF0.15476190476190477
aF0.19047619047619047
aF0.071428571428571425
aF0.21428571428571427
aa(lp10
F0.125
aF0.125
aF0.125
aF0.25
aF0.125
aF0.125
aF0.125
aF0.125
aF0.125
aF0.125
aF0.125
aF0.125
aF0.25
aF0.125
aF0.25
aF0.25
aF0.125
aF0.125
aF0.125
aF0.125
aF0.125
aF0.25
aF0.375
aF0.25
aF0.25
aF0.125
aF0.125
aa(lp11
F0.125
aF0.125
aF0.125
aF0.25
aF0.25
aF0.125
aF0.125
aF0.125
aF0.125
aF0.125
aF0.125
aF0.125
aF0.25
aF0.125
aF0.25
aF0.25
aF0.125
aF0.125
aF0.125
aF0.125
aF0.125
aF0.25
aF0.375
aF0.25
aF0.25
aF0.125
aF0.125
aa.