(lp1
(lp2
F0.89552238805970152
aF0.4375
aF0
aF0.46153846153846156
aF0.375
aF0.54166666666666663
aF0
aF0.86631016042780751
aF0.86802030456852797
aF0.39622641509433965
aF0.83571428571428574
aF0.45205479452054792
aF0.68852459016393441
aF0.58333333333333337
aF0.46153846153846156
aF0
aF0.74496644295302017
aF0.97058823529411764
aF0.52380952380952384
aF0.85483870967741937
aF0.76973684210526316
aF0.86802030456852797
aF0.6470588235294118
aF0.5
aF0.23076923076923078
aF0.83870967741935487
aF0.78431372549019607
aF0.79141104294478526
aF0.46153846153846156
aF0.58878504672897192
aF0.80392156862745101
aF0.27272727272727271
aF0
aF0
aF0.49315068493150682
aF0.22222222222222221
aF0
aF0.42105263157894735
aF0.85483870967741937
aF0
aF0.46153846153846156
aF0
aF0.45000000000000001
aF0.53164556962025311
aF0.73943661971830987
aF1
aF0.40000000000000002
aF0.5357142857142857
aF0.20000000000000001
aF0
aF0
aF1
aF0.73943661971830987
aF0.49315068493150682
aF0.40909090909090912
aF0.35294117647058826
aF0.49090909090909091
aF0
aF0.52380952380952384
aF0.58620689655172409
aF0.82758620689655171
aF0.42857142857142855
aF0.48148148148148145
aF0
aF0.48529411764705882
aF0.23076923076923078
aF0.55670103092783507
aF0.3888888888888889
aF0.92957746478873238
aF0.62068965517241381
aF0.23076923076923078
aF0.25
aF0.64864864864864868
aF0.82317073170731703
aF0.13636363636363635
aF0.80232558139534882
aF0.91981132075471694
aF0.87765957446808507
aF0.47999999999999998
aF0.6071428571428571
aF0
aF0.75471698113207553
aF0
aF0
aF0.46153846153846156
aF0.29999999999999999
aF0.25
aF0.88944723618090449
aF0.68067226890756305
aF0
aF0.375
aF0.80232558139534882
aF1
aF0.375
aF0.90995260663507105
aF0.9375
aF0.54545454545454541
aF0.40000000000000002
aF0.59999999999999998
aF0.59999999999999998
aF0.59405940594059403
aF0
aF0
aF0
aF0.9375
aF0.48529411764705882
aF0.81502890173410403
aF0
aF0
aF0.48837209302325579
aF0.61111111111111116
aF0.61111111111111116
aF0.68316831683168322
aF0.43902439024390244
aF0
aF0.60759493670886078
aF0.73880597014925375
aF0.72972972972972971
aF0
aF0.40909090909090912
aF0.67500000000000004
aF0.52747252747252749
aF0
aF0.75
aF0
aF0.6428571428571429
aF0.421875
aF0
aF0.29999999999999999
aF0.77777777777777779
aF0.47619047619047616
aF0.33333333333333331
aF0.83522727272727271
aF0
aF0.38709677419354838
aF0.28125
aF0
aF0.375
aF0.79629629629629628
aF0
aF0.40000000000000002
aF0.16666666666666666
aF0.80232558139534882
aF0.56521739130434778
aF0.67567567567567566
aF0.46666666666666667
aF0
aF0.90000000000000002
aF0.65454545454545454
aF0.52631578947368418
aF0.65346534653465349
aF0.76000000000000001
aF0
aF0
aF0.42857142857142855
aF0
aF0.29999999999999999
aF0.9375
aF0.88944723618090449
aF0.97058823529411764
aF0.14999999999999999
aF0
aF0
aF0.58823529411764708
aF0.44262295081967212
aF0.76973684210526316
aF0.90995260663507105
aF0.62637362637362637
aF0.94666666666666666
aF0.49315068493150682
aF0.9375
aF0.50704225352112675
aF0
aF0.79870129870129869
aF0
aF0
aF0.20000000000000001
aF0
aF0.78947368421052633
aF0.82285714285714284
aF0.59210526315789469
aF0
aF0.66346153846153844
aF0.9375
aF0
aF0.79629629629629628
aF0.23999999999999999
aF0.75471698113207553
aF0.9375
aF0.48648648648648651
aF0.97058823529411764
aF0
aF1
aF0.45000000000000001
aF0
aF0
aF0
aF0.59999999999999998
aF0.90995260663507105
aF0.61956521739130432
aF0.9375
aF0.86802030456852797
aF0.4925373134328358
aF0.5
aF0.67441860465116277
aF0
aF0.41379310344827586
aF0
aF0.90000000000000002
aF0.375
aF0.65714285714285714
aF0
aF0.65454545454545454
aF0.46551724137931033
aF0
aF0.40384615384615385
aF0
aF0.94666666666666666
aF0
aF0
aF0.86802030456852797
aF0.42857142857142855
aF0.23999999999999999
aF0.80981595092024539
aF0
aF0.81502890173410403
aF0.65934065934065933
aF0
aF0.35294117647058826
aF0.52380952380952384
aF0
aF0.35294117647058826
aF0.44680851063829785
aF0.86802030456852797
aF0.75
aF0.40000000000000002
aF0
aF0.22500000000000001
aF0.23076923076923078
aF0.33333333333333331
aF0
aF0
aF0.47727272727272729
aF0.23076923076923078
aF0.67241379310344829
aF0.21428571428571427
aF0.78260869565217395
aF0.90000000000000002
aF0.33333333333333331
aF0
aF0
aF0.39130434782608697
aF0.94666666666666666
aF0.46153846153846156
aF0
aF0.76875000000000004
aF0
aF0.40909090909090912
aF0.375
aF0.72857142857142854
aF0
aF0.64077669902912626
aF0.3888888888888889
aF0.20689655172413793
aF0.73381294964028776
aF0
aF0
aF0.30612244897959184
aF0.58695652173913049
aF0
aF0.20689655172413793
aF0.75
aF0.39473684210526316
aF0.83999999999999997
aa(lp3
F0.91534391534391524
aF0.47777777777777775
aF0
aF0.62592592592592589
aF0.2989417989417989
aF0.58888888888888902
aF0
aF0.8833333333333333
aF0.86878306878306888
aF0.35925925925925928
aF0.76190476190476197
aF0.44074074074074077
aF0.72883597883597884
aF0.57830687830687821
aF0.25925925925925924
aF0
aF0.74550264550264556
aF0.97222222222222221
aF0.54444444444444451
aF0.86428571428571421
aF0.79153439153439153
aF0.86878306878306866
aF0.60952380952380947
aF0.52962962962962967
aF0.28148148148148144
aF0.84206349206349218
aF0.81798941798941793
aF0.8034391534391534
aF0.2592592592592593
aF0.58201058201058198
aF0.83597883597883582
aF0.29999999999999999
aF0
aF0
aF0.4592592592592592
aF0.13333333333333333
aF0
aF0.4148148148148148
aF0.86243386243386244
aF0
aF0.34074074074074079
aF0
aF0.31481481481481483
aF0.58571428571428585
aF0.74841269841269842
aF1
aF0.2592592592592593
aF0.67195767195767209
aF0.092592592592592587
aF0
aF0
aF1
aF0.76349206349206344
aF0.54074074074074074
aF0.34814814814814815
aF0.27777777777777773
aF0.50740740740740753
aF0
aF0.64761904761904765
aF0.65714285714285725
aF0.83862433862433849
aF0.45185185185185184
aF0.48888888888888882
aF0
aF0.44179894179894175
aF0.1111111111111111
aF0.55555555555555558
aF0.36296296296296293
aF0.94047619047619035
aF0.6338624338624339
aF0.19999999999999998
aF0.25925925925925924
aF0.65608465608465616
aF0.85026455026455028
aF0.085185185185185183
aF0.80264550264550261
aF0.92989417989417988
aF0.87830687830687826
aF0.6777777777777777
aF0.64074074074074072
aF0
aF0.75767195767195761
aF0
aF0
aF0.49259259259259264
aF0.29629629629629634
aF0.3925925925925926
aF0.90052910052910051
aF0.69100529100529107
aF0
aF0.41111111111111109
aF0.81111111111111112
aF1
aF0.44444444444444442
aF0.91322751322751339
aF0.93915343915343918
aF0.33333333333333331
aF0.39629629629629631
aF0.60423280423280423
aF0.64550264550264547
aF0.63968253968253963
aF0
aF0
aF0
aF0.93915343915343918
aF0.54814814814814816
aF0.81851851851851842
aF0
aF0
aF0.35185185185185186
aF0.62486772486772479
aF0.58571428571428574
aF0.68201058201058196
aF0.43809523809523809
aF0
aF0.70105820105820105
aF0.7947089947089947
aF0.70185185185185195
aF0
aF0.2592592592592593
aF0.70291005291005293
aF0.57354497354497358
aF0
aF0.76719576719576721
aF0
aF0.79206349206349214
aF0.42962962962962958
aF0
aF0.18518518518518517
aF0.81904761904761925
aF0.47777777777777775
aF0.22222222222222221
aF0.85820105820105808
aF0
aF0.3888888888888889
aF0.27777777777777779
aF0
aF0.18518518518518517
aF0.79708994708994707
aF0
aF0.39629629629629626
aF0.092592592592592587
aF0.79417989417989399
aF0.6253968253968254
aF0.70264550264550274
aF0.53174603174603174
aF0
aF0.90079365079365081
aF0.66719576719576723
aF0.48518518518518516
aF0.63915343915343914
aF0.77301587301587305
aF0
aF0
aF0.47936507936507933
aF0
aF0.16666666666666666
aF0.93915343915343918
aF0.90052910052910073
aF0.97222222222222221
aF0.092592592592592587
aF0
aF0
aF0.64021164021164023
aF0.54814814814814816
aF0.77195767195767195
aF0.91322751322751339
aF0.63015873015873014
aF0.95238095238095233
aF0.52222222222222225
aF0.93915343915343918
aF0.47777777777777775
aF0
aF0.79629629629629628
aF0
aF0
aF0.23333333333333334
aF0
aF0.79259259259259252
aF0.83703703703703702
aF0.67354497354497356
aF0
aF0.68544973544973542
aF0.93915343915343918
aF0
aF0.81058201058201051
aF0.24444444444444441
aF0.75343915343915346
aF0.93915343915343918
aF0.55555555555555547
aF0.97222222222222221
aF0
aF1
aF0.43333333333333335
aF0
aF0
aF0
aF0.6962962962962963
aF0.91322751322751339
aF0.64497354497354498
aF0.93915343915343918
aF0.86878306878306855
aF0.69259259259259265
aF0.51851851851851849
aF0.63068783068783074
aF0
aF0.41111111111111109
aF0
aF0.90079365079365081
aF0.3518518518518518
aF0.61851851851851847
aF0
aF0.67407407407407416
aF0.59126984126984128
aF0
aF0.31481481481481483
aF0
aF0.95238095238095233
aF0
aF0
aF0.86878306878306866
aF0.25925925925925924
aF0.20740740740740737
aF0.80185185185185182
aF0
aF0.80846560846560844
aF0.79973544973544985
aF0
aF0.25555555555555554
aF0.48148148148148145
aF0
aF0.40370370370370373
aF0.5
aF0.86878306878306877
aF0.74285714285714288
aF0.437037037037037
aF0
aF0.2185185185185185
aF0.16666666666666666
aF0.3925925925925926
aF0
aF0
aF0.49629629629629629
aF0.16666666666666666
aF0.76031746031746028
aF0.092592592592592587
aF0.78703703703703709
aF0.90079365079365081
aF0.18518518518518517
aF0
aF0
aF0.27407407407407408
aF0.95238095238095255
aF0.57407407407407396
aF0
aF0.77354497354497354
aF0
aF0.36666666666666664
aF0.18518518518518517
aF0.73783068783068773
aF0
aF0.68994708994709009
aF0.31111111111111112
aF0.31481481481481477
aF0.74550264550264567
aF0
aF0
aF0.24814814814814815
aF0.63227513227513221
aF0
aF0.16666666666666666
aF0.37037037037037035
aF0.36296296296296293
aF0.84444444444444444
aa(lp4
F1
aF0.31840532984323833
aF0
aF0.14023948760790864
aF0.46327160493827158
aF0.358770793976108
aF0
aF0.94928235701264108
aF0.912457772505054
aF0.2674434402504578
aF0.85019841269841256
aF0.42717341405455683
aF0.77986358120818666
aF0.58465255275374783
aF0.31481481481481483
aF0
aF0.74674205299791785
aF1
aF0.24919051001780476
aF0.93037262078063576
aF0.85262832233444963
aF0.912457772505054
aF0.70364504776269476
aF0.30921854595689724
aF0.21227399144065812
aF0.92770845712022187
aF0.85806365680129337
aF0.85097476629761204
aF0.31481481481481477
aF0.53301296020638922
aF0.87009143912144149
aF0.22620650953984286
aF0
aF0
aF0.35385083863450911
aF0.4520697167755991
aF0
aF0.24688355227148331
aF0.91659632216826226
aF0
aF0.35337502004168664
aF0
aF0.2839506172839506
aF0.61861308626014511
aF0.84942121874692345
aF1
aF0.46296296296296302
aF0.6636483995307525
aF0.2592592592592593
aF0
aF0.37037037037037041
aF1
aF0.84981208777388095
aF0.40229839464119382
aF0.46051781393503816
aF0.20740740740740737
aF0.37139607111310874
aF0
aF0.50945193915142761
aF0.61693047403809398
aF0.89179378080819349
aF0.27228327228327232
aF0.43556145788869371
aF0.45005611672278345
aF0.51881012506012503
aF0.27777777777777779
aF0.46828414923944617
aF0.35386011011011009
aF1
aF0.51832279798090553
aF0.36567660734327401
aF0.23014069264069262
aF0.65481267996945391
aF0.88838101064104813
aF0.20833333333333334
aF0.83102975149371172
aF0.99183006535947704
aF0.94772745426951033
aF0.29229492997608936
aF0.45721096041837317
aF0
aF0.72402734936715507
aF0
aF0
aF0.73840254395809957
aF0.13973063973063973
aF0.31781305114638447
aF0.96930796318778834
aF0.64368058834411435
aF0.1111111111111111
aF0.24311059311059313
aF0.80918964076858813
aF1
aF0.15476190476190477
aF0.970815039963976
aF0.98498498498498499
aF0.44444444444444442
aF0.27317620650953983
aF0.72767284539476829
aF0.63815211903526536
aF0.57159627815712832
aF0
aF0.72486772486772488
aF0
aF0.98498498498498499
aF0.39034064949379355
aF0.84599084527189083
aF0.14814814814814814
aF0
aF0.53839324478924033
aF0.53468166821162022
aF0.59447539660024695
aF0.53189387029120372
aF0.59967036979208954
aF0.27777777777777779
aF0.63882782561740703
aF0.87118187993482155
aF0.81559982069576953
aF0
aF0.21666666666666667
aF0.70919544497538467
aF0.45176093552957208
aF0
aF0.73968694982348759
aF0
aF0.8481883316678972
aF0.38812752456941835
aF0
aF0.23765432098765438
aF0.82933233117932326
aF0.25472783887816569
aF0.37962962962962959
aF0.94658045989090744
aF0
aF0.23668300653594768
aF0.44721439949934577
aF0
aF0
aF0.84059812126271138
aF0
aF0.37193878501644861
aF0.2292768959435626
aF0.80698088681194446
aF0.41587578398441166
aF0.68537233462170555
aF0.62689393939393945
aF0
aF0.94797979797979792
aF0.6097783431367787
aF0.72010849233071461
aF0.5627910137684542
aF0.76549598734547686
aF0
aF0.11772486772486773
aF0.54708492716082857
aF0
aF0
aF0.98498498498498499
aF0.96930796318778834
aF1
aF0.1492063492063492
aF0.35555555555555557
aF0
aF0.61137862911835528
aF0.44889738335116491
aF0.84657574784488898
aF0.970815039963976
aF0.50982948881499601
aF1
aF0.34114577223820919
aF0.98498498498498499
aF0.48640598566130477
aF0
aF0.85313779016900504
aF0
aF0
aF0.35555555555555557
aF0
aF0.77909416304726808
aF0.92703684557057975
aF0.52979727383864461
aF0
aF0.7115631879052855
aF0.98498498498498499
aF0
aF0.84117252849136903
aF0.29552469135802473
aF0.72507858930839264
aF0.98498498498498499
aF0.25202323396767845
aF1
aF0
aF1
aF0.50253972022087967
aF0.3611111111111111
aF0
aF0
aF0.63724293136057841
aF0.970815039963976
aF0.56123530602716898
aF0.98498498498498499
aF0.912457772505054
aF0.50748089359200454
aF0.34567901234567899
aF0.75147829643049846
aF0
aF0.35764628358019157
aF0
aF0.94797979797979814
aF0.16786916786916783
aF0.80434101533765112
aF0
aF0.5875590849679333
aF0.61013645224171542
aF0
aF0.36645453145453144
aF0
aF1
aF0
aF0.34882154882154881
aF0.912457772505054
aF0
aF0.28174603174603174
aF0.86590990941276069
aF0.33333333333333331
aF0.8599371827794513
aF0.79276714304270957
aF0
aF0.27613211951447247
aF0.48064255068983197
aF0
aF0.31108734753896045
aF0.25511471732401964
aF0.912457772505054
aF0.74448065465084001
aF0.33769841269841266
aF0
aF0.32279204999793232
aF0
aF0.049745824255628179
aF0
aF0.21296296296296294
aF0.43666225749559079
aF0
aF0.8869054103122731
aF0.27222222222222225
aF0.80933644037229158
aF0.94797979797979814
aF0
aF0.27777777777777779
aF0
aF0.40833333333333333
aF1
aF0.44164631664631671
aF0
aF0.75342999462047078
aF0
aF0.27283950617283953
aF0
aF0.77754847574915875
aF0
aF0.63364600829364459
aF0.34018548053635772
aF0.30671797338464007
aF0.69656308539090084
aF0
aF0
aF0.50524138802058671
aF0.53606829293016156
aF0
aF0.34259259259259267
aF0.44444444444444442
aF0.2371190321482719
aF0.91940875811576184
aa(lp5
F0.33333333333333331
aF0.49166666666666664
aF0.5
aF0.61666666666666659
aF0.51666666666666672
aF0.44166666666666665
aF0
aF0.34166666666666662
aF0.33333333333333331
aF0.45833333333333326
aF0.3833333333333333
aF0.43333333333333329
aF0.39166666666666666
aF0.39999999999999997
aF0.5
aF0
aF0.3666666666666667
aF0.30833333333333329
aF0.44166666666666665
aF0.34166666666666662
aF0.3666666666666667
aF0.33333333333333331
aF0.40833333333333333
aF0.43333333333333329
aF0.49166666666666664
aF0.34166666666666662
aF0.3666666666666667
aF0.35833333333333334
aF0.5
aF0.39999999999999997
aF0.3666666666666667
aF0.46071428571428574
aF0.59999999999999998
aF0.39999999999999997
aF0.43333333333333329
aF0.58333333333333326
aF0.59999999999999998
aF0.44999999999999996
aF0.34166666666666662
aF0
aF0.54999999999999993
aF0.59999999999999998
aF0.61071428571428565
aF0.43333333333333329
aF0.375
aF0.29999999999999999
aF0.46000000000000002
aF0.49166666666666664
aF0.62142857142857144
aF0.66666666666666663
aF0.68571428571428561
aF0.29999999999999999
aF0.375
aF0.44166666666666665
aF0.44999999999999996
aF0.7416666666666667
aF0.47499999999999998
aF0.59999999999999998
aF0.45833333333333326
aF0.42499999999999999
aF0.35000000000000003
aF0.55833333333333335
aF0.42499999999999999
aF0.54166666666666663
aF0.44999999999999996
aF0.70714285714285718
aF0.40833333333333333
aF0.49166666666666664
aF0.32499999999999996
aF0.39166666666666666
aF0.5
aF0.5
aF0.39999999999999997
aF0.35833333333333334
aF0.60833333333333328
aF0.35000000000000003
aF0.32499999999999996
aF0.34166666666666662
aF0.48333333333333334
aF0.42499999999999999
aF0.39999999999999997
aF0.35833333333333334
aF0.39999999999999997
aF0.59999999999999998
aF0.54999999999999993
aF0.64166666666666661
aF0.59999999999999998
aF0.33333333333333331
aF0.39166666666666666
aF0.61666666666666659
aF0.52500000000000002
aF0.35000000000000003
aF0.29999999999999999
aF0.64285714285714279
aF0.32499999999999996
aF0.31666666666666665
aF0.41999999999999993
aF0.57499999999999996
aF0.39999999999999997
aF0.43333333333333329
aF0.40833333333333333
aF0.59999999999999998
aF0.5357142857142857
aF0.66428571428571426
aF0.31666666666666665
aF0.44166666666666665
aF0.35000000000000003
aF0.64999999999999991
aF0.59999999999999998
aF0.54166666666666663
aF0.39999999999999997
aF0.39999999999999997
aF0.40833333333333333
aF0.42499999999999999
aF0.70714285714285718
aF0.44166666666666665
aF0.3833333333333333
aF0.40833333333333333
aF0
aF0.69166666666666654
aF0.39166666666666666
aF0.41666666666666663
aF0.5
aF0.375
aF0.81428571428571428
aF0.43333333333333329
aF0.44999999999999996
aF0.39999999999999997
aF0.71666666666666667
aF0.3833333333333333
aF0.44166666666666665
aF0.51428571428571423
aF0.35000000000000003
aF0.59999999999999998
aF0.49285714285714283
aF0.44166666666666665
aF0.29999999999999999
aF0.57999999999999996
aF0.35833333333333334
aF0.29999999999999999
aF0.44999999999999996
aF0.58928571428571419
aF0.35000000000000003
aF0.44166666666666665
aF0.39999999999999997
aF0.52500000000000002
aF0
aF0.32499999999999996
aF0.39999999999999997
aF0.49166666666666664
aF0.40833333333333333
aF0.3666666666666667
aF0.64000000000000001
aF0.625
aF0.42499999999999999
aF0.44999999999999996
aF0.52000000000000002
aF0.31666666666666665
aF0.33333333333333331
aF0.30833333333333329
aF0.60833333333333328
aF0.70714285714285718
aF0.39999999999999997
aF0.40833333333333333
aF0.46666666666666667
aF0.3666666666666667
aF0.32499999999999996
aF0.41666666666666663
aF0.31666666666666665
aF0.43333333333333329
aF0.31666666666666665
aF0.46666666666666667
aF0.57999999999999996
aF0.3666666666666667
aF0.29999999999999999
aF0.29999999999999999
aF0.52857142857142858
aF0
aF0.35000000000000003
aF0.35000000000000003
aF0.44166666666666665
aF0.52000000000000002
aF0.40833333333333333
aF0.31666666666666665
aF0.59999999999999998
aF0.35833333333333334
aF0.61666666666666659
aF0.35833333333333334
aF0.31666666666666665
aF0.52500000000000002
aF0.30833333333333329
aF0.54000000000000004
aF0.29999999999999999
aF0.43333333333333329
aF0.73333333333333339
aF0.65714285714285714
aF0.54000000000000004
aF0.47499999999999998
aF0.32499999999999996
aF0.42499999999999999
aF0.31666666666666665
aF0.33333333333333331
aF0.44999999999999996
aF0.63214285714285712
aF0.3833333333333333
aF0.59999999999999998
aF0.45833333333333326
aF0.5
aF0.32499999999999996
aF0.68333333333333324
aF0.41666666666666663
aF0.68571428571428561
aF0.39999999999999997
aF0.45833333333333326
aF0.39999999999999997
aF0.47499999999999998
aF0.29999999999999999
aF0.31666666666666665
aF0.5
aF0.61666666666666659
aF0.33333333333333331
aF0.39999999999999997
aF0.51428571428571423
aF0.35833333333333334
aF0.55999999999999994
aF0.35000000000000003
aF0.42499999999999999
aF0.44999999999999996
aF0.56666666666666665
aF0.48333333333333334
aF0.54000000000000004
aF0.47499999999999998
aF0.48333333333333334
aF0.33333333333333331
aF0.375
aF0.59999999999999998
aF0.29999999999999999
aF0.49166666666666664
aF0.77500000000000002
aF0.58333333333333326
aF0.68571428571428561
aF0.70000000000000007
aF0.41666666666666663
aF0.7416666666666667
aF0.39999999999999997
aF0.54285714285714282
aF0.35833333333333334
aF0.32499999999999996
aF0.68571428571428561
aF0.64999999999999991
aF0.39999999999999997
aF0.57857142857142851
aF0.31666666666666665
aF0.55833333333333335
aF0.29999999999999999
aF0.35833333333333334
aF0.29999999999999999
aF0.58928571428571419
aF0.47999999999999998
aF0.375
aF0.76666666666666661
aF0.40833333333333333
aF0.48333333333333334
aF0.57499999999999996
aF0.375
aF0
aF0.44999999999999996
aF0.42857142857142855
aF0.41666666666666663
aF0.39999999999999997
aF0.56666666666666665
aF0.35000000000000003
aF0.54166666666666663
aF0.35000000000000003
aa(lp6
F-0.37441643323996265
aF-0.22222222222222221
aF0
aF-0.24528301886792528
aF-0.59851851851851934
aF-0.15942028985507603
aF0
aF-0.28719723183390922
aF-0.1743119266055046
aF-0.55087719298245119
aF-0.37612612612612972
aF-0.12531969309462909
aF-0.3157894736842134
aF-0.23809523809524835
aF-0.012658227848101266
aF0
aF-0.15140186915887149
aF-0.25000000000009159
aF-0.18749999999999667
aF-0.25000000000000056
aF-0.29433962264151575
aF-0.1743119266055046
aF-0.043971631205675842
aF-0.23188405797101513
aF-0.34920634920634985
aF-0.25000000000000056
aF-0.32560386473429515
aF-0.30462724935731417
aF-0.012658227848101266
aF-0.17936117936118223
aF-0.24444444444444516
aF-0.553459119496859
aF0.16666666666666488
aF-0.49999999999999978
aF-0.087613293051359328
aF-0.15942028985507103
aF-0.49999999999999878
aF-0.2173913043478341
aF-0.23809523809524805
aF0
aF-0.12982456140351026
aF-0.49999999999999878
aF0.099999999999998535
aF-0.36669874879692094
aF-0.26912442396313918
aF0
aF-0.23076923076923078
aF-0.22268326417704132
aF-0.12500000000000075
aF-0.51807228915662695
aF-0.076923076923076053
aF0
aF-0.29911788291900671
aF-0.26888217522658742
aF0.044025157232705676
aF-0.42857142857142899
aF-0.18260869565217583
aF-0.33333333333333331
aF-0.2839506172839501
aF-0.32371794871794662
aF-0.24031007751938488
aF-0.18518518518518859
aF-0.30894308943089166
aF-0.39669421487603401
aF-0.10648918469217959
aF0.37931034482758669
aF-0.091240875912405553
aF-0.24390243902438843
aF-0.29411764705882948
aF-0.33228840125392267
aF-0.26984126984127171
aF-0.11111111111111206
aF-0.22605363984674426
aF-0.27345309381237631
aF-0.35294117647058693
aF-0.15384615384615921
aF-0.29607250755287046
aF-0.19825436408979613
aF-0.41732283464566927
aF-0.22222222222222349
aF-0.49999999999999978
aF-0.24285714285715942
aF-0.49999999999999978
aF-0.33333333333333331
aF-0.27272727272727182
aF-0.12820512820512789
aF-0.26666666666666472
aF-0.27829560585885488
aF-0.16716867469879651
aF-0.31868131868132038
aF-0.51546391752577192
aF-0.29807692307691386
aF0
aF-0.24999999999999861
aF-0.22489082969433336
aF-0.21428571428569937
aF-0.71428571428571375
aF-0.069264069264069306
aF-0.24229074889867444
aF-0.26474278544542029
aF-0.32300884955752895
aF0.16666666666666488
aF-0.39080459770114867
aF-0.49333333333333296
aF-0.21428571428569937
aF-0.36213235294117513
aF-0.19782214156079558
aF-0.78571428571428392
aF-0.33333333333333331
aF0.092526690391458971
aF-0.28571428571429347
aF-0.047619047619056623
aF-0.051622418879059863
aF-0.23985239852398771
aF0.14285714285714285
aF-0.25156445556946166
aF-0.37444933920704582
aF-0.45303408146300678
aF0
aF-0.090909090909090939
aF-0.25641025641025667
aF-0.46666666666666429
aF0
aF-0.18892045454545209
aF-0.33333333333333387
aF-0.40186915887850388
aF-0.055555555555554949
aF-1
aF0.083333333333334078
aF-0.29265536723162949
aF-0.26666666666666944
aF-0.33333333333333326
aF-0.33451957295374196
aF-0.71428571428571408
aF0.015151515151512503
aF-0.63131313131313027
aF0
aF-0.19999999999999957
aF-0.15840220385675619
aF0
aF-0.31818181818182034
aF-0.06060606060606006
aF-0.012269938650311892
aF-0.22018348623853315
aF-0.21682847896440152
aF-0.49933065595716303
aF0
aF-0.17857142857143651
aF-0.21387283236994067
aF-0.06857142857143142
aF-0.085545722713868719
aF-0.22807017543859312
aF-0.55555555555555347
aF-0.53846153846154021
aF-0.61111111111111449
aF-0.42857142857142844
aF-0.67999999999999983
aF-0.21428571428569937
aF-0.27829560585885488
aF-0.25000000000009159
aF-0.30952380952380865
aF-0.14285714285714285
aF-1
aF-0.36417556346382063
aF-0.38461538461538286
aF-0.22421524663676395
aF-0.22489082969433336
aF-0.12820512820512936
aF-0.28301886792451497
aF-0.26888217522658742
aF-0.21428571428569937
aF-0.29637526652451884
aF-0.66666666666666774
aF-0.23333333333333217
aF0
aF0
aF-0.54074074074074074
aF0
aF-0.26984126984124751
aF-0.29648241206030912
aF-0.25827814569535817
aF-0.63636363636363469
aF-0.27777777777777873
aF-0.21428571428569937
aF-0.71428571428571408
aF-0.24846248462486006
aF-0.13966480446927315
aF-0.10476190476189876
aF-0.21428571428569937
aF-0.22093023255814248
aF-0.25000000000009159
aF-0.66666666666666663
aF0
aF-0.062256809338521076
aF-0.30120481927710879
aF-0.44827586206896564
aF-0.56521739130434723
aF-0.1385767790262171
aF-0.22489082969433336
aF-0.15116279069767347
aF-0.21428571428569937
aF-0.1743119266055046
aF-0.54285714285713693
aF-0.36363636363636254
aF-0.0014814814814822065
aF-0.33333333333333331
aF-0.058823529411766676
aF-0.49999999999999878
aF-0.17857142857143651
aF0.11111111111111101
aF-0.2105263157894742
aF0
aF-0.23870967741935115
aF-0.32634228187919501
aF-1
aF-0.081818181818183594
aF0
aF-0.28301886792451497
aF0
aF-0.74166666666666692
aF-0.1743119266055046
aF-0.33333333333333387
aF-0.48314606741573163
aF-0.11825192802056005
aF-0.79999999999999782
aF-0.088929219600735784
aF-0.40425531914893564
aF-0.84210526315789413
aF-0.34684684684684797
aF-0.17647058823529541
aF-0.31578947368421162
aF-0.083333333333333856
aF-0.23373493975903614
aF-0.1743119266055046
aF-0.073863636363633453
aF-0.36363636363636354
aF0
aF-0.44230769230769179
aF-0.19277108433734955
aF-0.44927536231884296
aF-0.86206896551724277
aF-0.36956521739130455
aF-0.50000000000000566
aF0.024096385542168801
aF-0.40487804878048994
aF-0.33333333333333331
aF-0.18974358974360164
aF-0.17857142857143651
aF-0.16666666666666732
aF-0.67553191489361719
aF-0.49999999999999978
aF-0.32596685082873045
aF-0.28301886792451497
aF-0.32846715328467141
aF0
aF-0.22535211267607033
aF0
aF-0.34408602150537687
aF-0.2352941176470596
aF-0.21593533487297759
aF-0.38461538461538464
aF-0.29838709677419495
aF-0.10569105691056503
aF-0.18181818181818249
aF-0.17604355716878559
aF0
aF-0.84210526315789413
aF-0.015873015873015872
aF-0.27906976744185857
aF-0.25000000000000211
aF-0.63876651982379318
aF0.39999999999999886
aF-0.27272727272727154
aF-0.19337016574585927
aa(lp7
F0.25
aF0.375
aF0.375
aF0.5
aF0.375
aF0.375
aF0
aF0.25
aF0.25
aF0.25
aF0.25
aF0.25
aF0.25
aF0.25
aF0.375
aF0
aF0.25
aF0.25
aF0.25
aF0.25
aF0.25
aF0.25
aF0.25
aF0.25
aF0.375
aF0.25
aF0.25
aF0.25
aF0.375
aF0.25
aF0.25
aF0.25
aF0.5
aF0.25
aF0.25
aF0.5
aF0.5
aF0.25
aF0.25
aF0
aF0.5
aF0.5
aF0.5
aF0.25
aF0.25
aF0.125
aF0.375
aF0.375
aF0.5
aF0.5
aF0.625
aF0.125
aF0.25
aF0.375
aF0.375
aF0.625
aF0.375
aF0.5
aF0.375
aF0.25
aF0.25
aF0.5
aF0.25
aF0.375
aF0.375
aF0.625
aF0.25
aF0.375
aF0.25
aF0.25
aF0.375
aF0.375
aF0.25
aF0.25
aF0.5
aF0.25
aF0.25
aF0.25
aF0.375
aF0.25
aF0.25
aF0.25
aF0.25
aF0.5
aF0.5
aF0.5
aF0.5
aF0.25
aF0.25
aF0.5
aF0.375
aF0.25
aF0.125
aF0.5
aF0.25
aF0.25
aF0.25
aF0.5
aF0.25
aF0.375
aF0.25
aF0.5
aF0.375
aF0.5
aF0.25
aF0.25
aF0.25
aF0.5
aF0.5
aF0.5
aF0.25
aF0.25
aF0.25
aF0.25
aF0.625
aF0.375
aF0.25
aF0.25
aF0
aF0.625
aF0.25
aF0.25
aF0.375
aF0.25
aF0.75
aF0.25
aF0.375
aF0.25
aF0.75
aF0.25
aF0.25
aF0.375
aF0.25
aF0.375
aF0.375
aF0.25
aF0.125
aF0.5
aF0.25
aF0.125
aF0.25
aF0.5
aF0.25
aF0.25
aF0.25
aF0.375
aF0
aF0.25
aF0.25
aF0.375
aF0.25
aF0.25
aF0.5
aF0.5
aF0.25
aF0.25
aF0.375
aF0.25
aF0.25
aF0.25
aF0.5
aF0.625
aF0.25
aF0.25
aF0.375
aF0.25
aF0.25
aF0.25
aF0.25
aF0.25
aF0.25
aF0.375
aF0.375
aF0.25
aF0.125
aF0.125
aF0.375
aF0
aF0.25
aF0.25
aF0.375
aF0.375
aF0.25
aF0.25
aF0.375
aF0.25
aF0.5
aF0.25
aF0.25
aF0.375
aF0.25
aF0.375
aF0.125
aF0.375
aF0.625
aF0.5
aF0.375
aF0.375
aF0.25
aF0.375
aF0.25
aF0.25
aF0.25
aF0.5
aF0.25
aF0.5
aF0.375
aF0.375
aF0.25
aF0.625
aF0.375
aF0.5
aF0.25
aF0.25
aF0.25
aF0.375
aF0.125
aF0.25
aF0.375
aF0.5
aF0.25
aF0.25
aF0.375
aF0.25
aF0.5
aF0.25
aF0.25
aF0.25
aF0.5
aF0.375
aF0.375
aF0.375
aF0.375
aF0.25
aF0.25
aF0.5
aF0.125
aF0.375
aF0.75
aF0.5
aF0.5
aF0.625
aF0.25
aF0.625
aF0.25
aF0.375
aF0.25
aF0.25
aF0.625
aF0.5
aF0.25
aF0.5
aF0.25
aF0.5
aF0.125
aF0.25
aF0.125
aF0.5
aF0.375
aF0.25
aF0.625
aF0.25
aF0.375
aF0.5
aF0.25
aF0
aF0.25
aF0.25
aF0.25
aF0.25
aF0.375
aF0.25
aF0.375
aF0.25
aa(lp8
F0.88888888888888884
aF0.44444444444444442
aF0.1111111111111111
aF0.33333333333333331
aF0.3611111111111111
aF0.55555555555555558
aF0
aF0.86111111111111116
aF0.88888888888888884
aF0.47222222222222221
aF0.72222222222222221
aF0.55555555555555558
aF0.69444444444444442
aF0.66666666666666663
aF0.22222222222222221
aF0
aF0.77777777777777779
aF0.97222222222222221
aF0.52777777777777779
aF0.86111111111111116
aF0.77777777777777779
aF0.88888888888888884
aF0.63888888888888884
aF0.55555555555555558
aF0.41666666666666669
aF0.86111111111111116
aF0.77777777777777779
aF0.80555555555555558
aF0.22222222222222221
aF0.66666666666666663
aF0.77777777777777779
aF0.3611111111111111
aF0.1388888888888889
aF0.083333333333333329
aF0.55555555555555558
aF0.33333333333333331
aF0.16666666666666666
aF0.5
aF0.86111111111111116
aF0
aF0.3888888888888889
aF0.16666666666666666
aF0.27777777777777779
aF0.55555555555555558
aF0.75
aF1
aF0.22222222222222221
aF0.47222222222222221
aF0.25
aF0.25
aF0.19444444444444445
aF1
aF0.75
aF0.55555555555555558
aF0.52777777777777779
aF0.27777777777777779
aF0.47222222222222221
aF0.1111111111111111
aF0.5
aF0.58333333333333337
aF0.83333333333333337
aF0.3888888888888889
aF0.58333333333333337
aF0.3611111111111111
aF0.52777777777777779
aF0.25
aF0.63888888888888884
aF0.47222222222222221
aF0.91666666666666663
aF0.69444444444444442
aF0.41666666666666669
aF0.41666666666666669
aF0.66666666666666663
aF0.80555555555555558
aF0.30555555555555558
aF0.83333333333333337
aF0.91666666666666663
aF0.86111111111111116
aF0.44444444444444442
aF0.58333333333333337
aF0.083333333333333329
aF0.80555555555555558
aF0.083333333333333329
aF0.1111111111111111
aF0.3888888888888889
aF0.30555555555555558
aF0.33333333333333331
aF0.88888888888888884
aF0.69444444444444442
aF0.27777777777777779
aF0.3888888888888889
aF0.83333333333333337
aF1
aF0.27777777777777779
aF0.91666666666666663
aF0.94444444444444442
aF0.16666666666666666
aF0.3611111111111111
aF0.66666666666666663
aF0.58333333333333337
aF0.63888888888888884
aF0.1388888888888889
aF0.30555555555555558
aF0.19444444444444445
aF0.94444444444444442
aF0.52777777777777779
aF0.83333333333333337
aF0.27777777777777779
aF0.1111111111111111
aF0.41666666666666669
aF0.66666666666666663
aF0.66666666666666663
aF0.63888888888888884
aF0.58333333333333337
aF0.22222222222222221
aF0.55555555555555558
aF0.72222222222222221
aF0.63888888888888884
aF0
aF0.30555555555555558
aF0.69444444444444442
aF0.61111111111111116
aF0.1111111111111111
aF0.75
aF0.19444444444444445
aF0.55555555555555558
aF0.52777777777777779
aF0.1111111111111111
aF0.30555555555555558
aF0.72222222222222221
aF0.52777777777777779
aF0.25
aF0.83333333333333337
aF0.16666666666666666
aF0.3611111111111111
aF0.52777777777777779
aF0.055555555555555552
aF0.16666666666666666
aF0.80555555555555558
aF0.027777777777777776
aF0.5
aF0.27777777777777779
aF0.83333333333333337
aF0.52777777777777779
aF0.66666666666666663
aF0.3888888888888889
aF0
aF0.91666666666666663
aF0.66666666666666663
aF0.47222222222222221
aF0.63888888888888884
aF0.77777777777777779
aF0.19444444444444445
aF0.27777777777777779
aF0.58333333333333337
aF0.1388888888888889
aF0.16666666666666666
aF0.94444444444444442
aF0.88888888888888884
aF0.97222222222222221
aF0.30555555555555558
aF0.22222222222222221
aF0.1111111111111111
aF0.63888888888888884
aF0.5
aF0.77777777777777779
aF0.91666666666666663
aF0.61111111111111116
aF0.94444444444444442
aF0.55555555555555558
aF0.94444444444444442
aF0.52777777777777779
aF0.1388888888888889
aF0.77777777777777779
aF0.055555555555555552
aF0.083333333333333329
aF0.22222222222222221
aF0
aF0.83333333333333337
aF0.83333333333333337
aF0.55555555555555558
aF0.16666666666666666
aF0.63888888888888884
aF0.94444444444444442
aF0.16666666666666666
aF0.80555555555555558
aF0.33333333333333331
aF0.80555555555555558
aF0.94444444444444442
aF0.41666666666666669
aF0.97222222222222221
aF0.1111111111111111
aF1
aF0.58333333333333337
aF0.25
aF0.16666666666666666
aF0.16666666666666666
aF0.52777777777777779
aF0.91666666666666663
aF0.61111111111111116
aF0.94444444444444442
aF0.88888888888888884
aF0.5
aF0.27777777777777779
aF0.72222222222222221
aF0.1111111111111111
aF0.5
aF0.083333333333333329
aF0.91666666666666663
aF0.33333333333333331
aF0.63888888888888884
aF0.16666666666666666
aF0.66666666666666663
aF0.47222222222222221
aF0.055555555555555552
aF0.47222222222222221
aF0.055555555555555552
aF0.94444444444444442
aF0.1111111111111111
aF0.30555555555555558
aF0.88888888888888884
aF0.19444444444444445
aF0.30555555555555558
aF0.80555555555555558
aF0.16666666666666666
aF0.83333333333333337
aF0.58333333333333337
aF0.1388888888888889
aF0.3611111111111111
aF0.5
aF0.1388888888888889
aF0.47222222222222221
aF0.44444444444444442
aF0.88888888888888884
aF0.75
aF0.33333333333333331
aF0.027777777777777776
aF0.41666666666666669
aF0.25
aF0.33333333333333331
aF0.16666666666666666
aF0.25
aF0.61111111111111116
aF0.25
aF0.66666666666666663
aF0.22222222222222221
aF0.80555555555555558
aF0.91666666666666663
aF0.19444444444444445
aF0.25
aF0.083333333333333329
aF0.27777777777777779
aF0.94444444444444442
aF0.3888888888888889
aF0.027777777777777776
aF0.80555555555555558
aF0.083333333333333329
aF0.27777777777777779
aF0.19444444444444445
aF0.75
aF0.22222222222222221
aF0.63888888888888884
aF0.47222222222222221
aF0.3611111111111111
aF0.75
aF0
aF0.1388888888888889
aF0.44444444444444442
aF0.61111111111111116
aF0.1388888888888889
aF0.33333333333333331
aF0.16666666666666666
aF0.3888888888888889
aF0.83333333333333337
aa(lp9
F0.7142857142857143
aF0.083333333333333329
aF0
aF0.047619047619047616
aF0.059523809523809521
aF0.15476190476190477
aF0
aF0.6428571428571429
aF0.6785714285714286
aF0.083333333333333329
aF0.4642857142857143
aF0.13095238095238096
aF0.33333333333333331
aF0.25
aF0.023809523809523808
aF0
aF0.44047619047619047
aF0.91666666666666663
aF0.13095238095238096
aF0.63095238095238093
aF0.4642857142857143
aF0.6785714285714286
aF0.26190476190476192
aF0.14285714285714285
aF0.035714285714285712
aF0.61904761904761907
aF0.47619047619047616
aF0.51190476190476186
aF0.023809523809523808
aF0.25
aF0.48809523809523808
aF0.035714285714285712
aF0
aF0
aF0.14285714285714285
aF0.023809523809523808
aF0
aF0.095238095238095233
aF0.63095238095238093
aF0
aF0.071428571428571425
aF0
aF0.035714285714285712
aF0.16666666666666666
aF0.41666666666666669
aF1
aF0.023809523809523808
aF0.11904761904761904
aF0.011904761904761904
aF0
aF0
aF1
aF0.41666666666666669
aF0.14285714285714285
aF0.10714285714285714
aF0.023809523809523808
aF0.10714285714285714
aF0
aF0.13095238095238096
aF0.20238095238095238
aF0.5714285714285714
aF0.059523809523809521
aF0.15476190476190477
aF0
aF0.13095238095238096
aF0.011904761904761904
aF0.21428571428571427
aF0.083333333333333329
aF0.7857142857142857
aF0.2857142857142857
aF0.035714285714285712
aF0.035714285714285712
aF0.2857142857142857
aF0.5357142857142857
aF0.011904761904761904
aF0.54761904761904767
aF0.77380952380952384
aF0.65476190476190477
aF0.095238095238095233
aF0.20238095238095238
aF0
aF0.47619047619047616
aF0
aF0
aF0.071428571428571425
aF0.023809523809523808
aF0.023809523809523808
aF0.70238095238095233
aF0.32142857142857145
aF0
aF0.059523809523809521
aF0.54761904761904767
aF1
aF0.023809523809523808
aF0.76190476190476186
aF0.83333333333333337
aF0.023809523809523808
aF0.047619047619047616
aF0.26190476190476192
aF0.20238095238095238
aF0.23809523809523808
aF0
aF0
aF0
aF0.83333333333333337
aF0.13095238095238096
aF0.55952380952380953
aF0
aF0
aF0.083333333333333329
aF0.26190476190476192
aF0.26190476190476192
aF0.27380952380952384
aF0.14285714285714285
aF0
aF0.19047619047619047
aF0.39285714285714285
aF0.32142857142857145
aF0
aF0.035714285714285712
aF0.32142857142857145
aF0.19047619047619047
aF0
aF0.41666666666666669
aF0
aF0.21428571428571427
aF0.10714285714285714
aF0
aF0.023809523809523808
aF0.41666666666666669
aF0.11904761904761904
aF0.023809523809523808
aF0.58333333333333337
aF0
aF0.047619047619047616
aF0.071428571428571425
aF0
aF0.011904761904761904
aF0.51190476190476186
aF0
aF0.095238095238095233
aF0.011904761904761904
aF0.54761904761904767
aF0.15476190476190477
aF0.29761904761904762
aF0.083333333333333329
aF0
aF0.75
aF0.2857142857142857
aF0.11904761904761904
aF0.26190476190476192
aF0.45238095238095238
aF0
aF0
aF0.14285714285714285
aF0
aF0.011904761904761904
aF0.83333333333333337
aF0.70238095238095233
aF0.91666666666666663
aF0.011904761904761904
aF0
aF0
aF0.23809523809523808
aF0.10714285714285714
aF0.4642857142857143
aF0.76190476190476186
aF0.22619047619047619
aF0.84523809523809523
aF0.14285714285714285
aF0.83333333333333337
aF0.14285714285714285
aF0
aF0.48809523809523808
aF0
aF0
aF0.011904761904761904
aF0
aF0.5357142857142857
aF0.5714285714285714
aF0.17857142857142858
aF0
aF0.27380952380952384
aF0.83333333333333337
aF0
aF0.51190476190476186
aF0.023809523809523808
aF0.47619047619047616
aF0.83333333333333337
aF0.071428571428571425
aF0.91666666666666663
aF0
aF1
aF0.14285714285714285
aF0
aF0
aF0
aF0.16666666666666666
aF0.76190476190476186
aF0.22619047619047619
aF0.83333333333333337
aF0.6785714285714286
aF0.13095238095238096
aF0.035714285714285712
aF0.34523809523809523
aF0
aF0.095238095238095233
aF0
aF0.75
aF0.035714285714285712
aF0.27380952380952384
aF0
aF0.2857142857142857
aF0.10714285714285714
aF0
aF0.083333333333333329
aF0
aF0.84523809523809523
aF0
aF0
aF0.6785714285714286
aF0.011904761904761904
aF0.023809523809523808
aF0.52380952380952384
aF0
aF0.55952380952380953
aF0.23809523809523808
aF0
aF0.047619047619047616
aF0.13095238095238096
aF0
aF0.071428571428571425
aF0.083333333333333329
aF0.6785714285714286
aF0.41666666666666669
aF0.047619047619047616
aF0
aF0.035714285714285712
aF0.011904761904761904
aF0.035714285714285712
aF0
aF0
aF0.16666666666666666
aF0.011904761904761904
aF0.30952380952380953
aF0.011904761904761904
aF0.5
aF0.75
aF0.011904761904761904
aF0
aF0
aF0.035714285714285712
aF0.84523809523809523
aF0.071428571428571425
aF0
aF0.48809523809523808
aF0
aF0.035714285714285712
aF0.011904761904761904
aF0.40476190476190477
aF0
aF0.26190476190476192
aF0.083333333333333329
aF0.023809523809523808
aF0.40476190476190477
aF0
aF0
aF0.059523809523809521
aF0.21428571428571427
aF0
aF0.023809523809523808
aF0.023809523809523808
aF0.059523809523809521
aF0.58333333333333337
aa(lp10
F0.625
aF0.25
aF0
aF0.125
aF0.125
aF0.375
aF0
aF0.625
aF0.75
aF0.25
aF0.125
aF0.375
aF0.5
aF0.5
aF0
aF0
aF0.625
aF0.875
aF0.375
aF0.75
aF0.625
aF0.75
aF0.375
aF0.375
aF0.25
aF0.75
aF0.5
aF0.5
aF0
aF0.5
aF0.5
aF0
aF0
aF0
aF0.375
aF0.125
aF0
aF0.375
aF0.625
aF0
aF0.125
aF0
aF0
aF0.375
aF0.5
aF1
aF0
aF0.25
aF0
aF0.125
aF0
aF1
aF0.625
aF0.375
aF0.25
aF0.125
aF0.25
aF0
aF0.25
aF0.25
aF0.625
aF0.125
aF0.375
aF0.125
aF0.25
aF0
aF0.5
aF0.125
aF0.625
aF0.625
aF0.25
aF0.375
aF0.375
aF0.5
aF0.125
aF0.75
aF0.75
aF0.5
aF0.25
aF0.25
aF0
aF0.75
aF0
aF0
aF0.125
aF0.125
aF0.125
aF0.75
aF0.5
aF0.125
aF0.125
aF0.625
aF1
aF0
aF0.75
aF0.875
aF0
aF0.25
aF0.5
aF0.375
aF0.375
aF0
aF0
aF0
aF0.875
aF0.375
aF0.625
aF0.125
aF0
aF0.125
aF0.5
aF0.5
aF0.375
aF0.375
aF0
aF0.25
aF0.375
aF0.125
aF0
aF0.125
aF0.5
aF0.375
aF0
aF0.5
aF0
aF0.25
aF0.375
aF0
aF0.125
aF0.25
aF0.375
aF0
aF0.625
aF0
aF0
aF0.375
aF0
aF0
aF0.625
aF0
aF0.25
aF0
aF0.625
aF0.25
aF0.5
aF0.125
aF0
aF0.875
aF0.375
aF0.25
aF0.375
aF0.625
aF0
aF0.125
aF0.375
aF0
aF0
aF0.875
aF0.75
aF0.875
aF0.125
aF0
aF0
aF0.375
aF0.25
aF0.5
aF0.75
aF0.375
aF0.75
aF0.375
aF0.875
aF0.125
aF0
aF0.375
aF0
aF0
aF0
aF0
aF0.75
aF0.625
aF0.25
aF0
aF0.375
aF0.875
aF0
aF0.625
aF0.125
aF0.75
aF0.875
aF0.25
aF0.875
aF0
aF1
aF0.375
aF0.125
aF0
aF0
aF0.25
aF0.75
aF0.375
aF0.875
aF0.75
aF0.25
aF0
aF0.5
aF0
aF0.375
aF0
aF0.875
aF0.125
aF0.25
aF0
aF0.375
aF0.375
aF0
aF0.25
aF0
aF0.75
aF0
aF0.125
aF0.75
aF0
aF0
aF0.5
aF0
aF0.625
aF0.25
aF0
aF0.125
aF0.125
aF0
aF0.25
aF0.25
aF0.75
aF0.5
aF0.125
aF0
aF0.25
aF0.125
aF0.125
aF0
aF0.125
aF0.5
aF0.125
aF0.375
aF0
aF0.625
aF0.875
aF0
aF0.125
aF0
aF0
aF0.75
aF0.125
aF0
aF0.625
aF0
aF0
aF0
aF0.625
aF0.125
aF0.375
aF0.125
aF0.125
aF0.5
aF0
aF0
aF0
aF0.375
aF0
aF0.125
aF0
aF0.125
aF0.625
aa(lp11
F0.625
aF0.25
aF0
aF0.125
aF0.125
aF0.375
aF0
aF0.625
aF0.75
aF0.25
aF0.125
aF0.375
aF0.5
aF0.5
aF0
aF0
aF0.625
aF0.875
aF0.5
aF0.75
aF0.625
aF0.75
aF0.375
aF0.375
aF0.25
aF0.75
aF0.5
aF0.5
aF0
aF0.5
aF0.5
aF0
aF0
aF0
aF0.375
aF0.125
aF0
aF0.375
aF0.625
aF0
aF0.125
aF0
aF0
aF0.375
aF0.5
aF1
aF0
aF0.25
aF0
aF0.125
aF0
aF1
aF0.625
aF0.375
aF0.25
aF0.125
aF0.25
aF0
aF0.25
aF0.25
aF0.625
aF0.125
aF0.375
aF0.125
aF0.25
aF0
aF0.5
aF0.125
aF0.625
aF0.625
aF0.25
aF0.375
aF0.375
aF0.5
aF0.125
aF0.75
aF0.75
aF0.5
aF0.25
aF0.375
aF0
aF0.75
aF0
aF0
aF0.25
aF0.125
aF0.25
aF0.75
aF0.5
aF0.125
aF0.125
aF0.75
aF1
aF0
aF0.75
aF0.875
aF0
aF0.25
aF0.5
aF0.375
aF0.375
aF0
aF0
aF0
aF0.875
aF0.375
aF0.625
aF0.125
aF0
aF0.125
aF0.5
aF0.5
aF0.375
aF0.375
aF0
aF0.25
aF0.375
aF0.125
aF0
aF0.125
aF0.5
aF0.375
aF0
aF0.5
aF0
aF0.25
aF0.375
aF0
aF0.125
aF0.25
aF0.375
aF0
aF0.625
aF0
aF0
aF0.375
aF0
aF0
aF0.625
aF0
aF0.25
aF0
aF0.625
aF0.25
aF0.5
aF0.125
aF0
aF0.875
aF0.375
aF0.25
aF0.375
aF0.625
aF0
aF0.125
aF0.375
aF0
aF0
aF0.875
aF0.75
aF0.875
aF0.125
aF0
aF0
aF0.375
aF0.25
aF0.5
aF0.75
aF0.375
aF0.75
aF0.375
aF0.875
aF0.125
aF0
aF0.375
aF0
aF0
aF0
aF0
aF0.75
aF0.625
aF0.25
aF0
aF0.375
aF0.875
aF0
aF0.625
aF0.125
aF0.75
aF0.875
aF0.25
aF0.875
aF0
aF1
aF0.375
aF0.125
aF0
aF0
aF0.25
aF0.75
aF0.375
aF0.875
aF0.75
aF0.25
aF0
aF0.5
aF0
aF0.375
aF0
aF0.875
aF0.125
aF0.25
aF0
aF0.375
aF0.375
aF0
aF0.25
aF0
aF0.75
aF0
aF0.125
aF0.75
aF0
aF0
aF0.5
aF0
aF0.625
aF0.25
aF0
aF0.125
aF0.125
aF0
aF0.25
aF0.25
aF0.75
aF0.5
aF0.125
aF0
aF0.25
aF0.125
aF0.125
aF0
aF0.125
aF0.5
aF0.125
aF0.375
aF0
aF0.625
aF0.875
aF0
aF0.125
aF0
aF0
aF0.75
aF0.125
aF0
aF0.625
aF0
aF0
aF0
aF0.625
aF0.125
aF0.375
aF0.125
aF0.125
aF0.5
aF0
aF0
aF0
aF0.375
aF0
aF0.125
aF0
aF0.125
aF0.625
aa.