(lp1
(lp2
F0.70945945945945943
aF0.58163265306122447
aF0.34615384615384615
aF0.35999999999999999
aF0
aF0.18181818181818182
aF0.60810810810810811
aF0.82758620689655171
aF0.375
aF0.9375
aF0.15789473684210525
aF0.91981132075471694
aF0.73381294964028776
aF0.31578947368421051
aF0.66346153846153844
aF0
aF0.33333333333333331
aF0
aF0
aF0.54545454545454541
aF0.61764705882352944
aF0.78260869565217395
aF0.9375
aF0.5
aF0.16666666666666666
aF0.59340659340659341
aF0.52380952380952384
aa(lp3
F0.71269841269841283
aF0.58518518518518503
aF0.31111111111111112
aF0.38888888888888884
aF0
aF0.15185185185185185
aF0.60740740740740751
aF0.84285714285714286
aF0.55555555555555558
aF0.93915343915343918
aF0.085185185185185183
aF0.92989417989418
aF0.73968253968253972
aF0.22222222222222221
aF0.68253968253968256
aF0
aF0.39999999999999997
aF0
aF0
aF0.64391534391534389
aF0.67804232804232811
aF0.78703703703703698
aF0.93915343915343918
aF0.57936507936507942
aF0.16666666666666666
aF0.64074074074074083
aF0.60899470899470898
aa(lp4
F0.68759252406501603
aF0.47315916371718841
aF0.50770202020202015
aF0.2921817380150713
aF0
aF0.21248603248603246
aF0.39943112585382912
aF0.87757552424219099
aF0.21925082577834001
aF0.98498498498498477
aF0.25308641975308643
aF0.99183006535947704
aF0.70082126142232348
aF0.11882716049382716
aF0.73237916648895052
aF0
aF0.46849909349909358
aF0
aF0
aF0.44916564916564916
aF0.63801112683926819
aF0.80933644037229158
aF0.98498498498498499
aF0.65173961840628492
aF0.098148148148148137
aF0.47786520581759401
aF0.56364129697463039
aa(lp5
F0.3666666666666667
aF0.40833333333333333
aF0.61666666666666659
aF0.47499999999999998
aF0.29999999999999999
aF0.5083333333333333
aF0.44166666666666665
aF0.35000000000000003
aF0.47499999999999998
aF0.31666666666666665
aF0.6333333333333333
aF0.32499999999999996
aF0.375
aF0.56785714285714284
aF0.40833333333333333
aF0.29999999999999999
aF0.5
aF0.29999999999999999
aF0.29999999999999999
aF0.43333333333333329
aF0.40833333333333333
aF0.35833333333333334
aF0.31666666666666665
aF0.5
aF0.54642857142857137
aF0.42499999999999999
aF0.45833333333333326
aa(lp6
F-0.30666666666665637
aF-0.15608465608464728
aF-0.075471698113207225
aF-0.18817204301075025
aF0
aF-0.22807017543860014
aF0.0090090090090086498
aF-0.27906976744186501
aF-0.48148148148148145
aF-0.21428571428569937
aF-0.2698412698412706
aF-0.29607250755287046
aF-0.15348101265823688
aF-0.2121212121212093
aF-0.24583333333333515
aF0
aF-0.24675324675324675
aF0
aF0
aF-0.38248847926267227
aF-0.35809523809523885
aF-0.18974358974360164
aF-0.21428571428569937
aF-0.37704918032786883
aF-0.36363636363636254
aF-0.16510903426791421
aF-0.28395061728395055
aa(lp7
F0.25
aF0.25
aF0.5
aF0.375
aF0.125
aF0.375
aF0.375
aF0.25
aF0.375
aF0.25
aF0.5
aF0.25
aF0.25
aF0.5
aF0.25
aF0.125
aF0.375
aF0.125
aF0.125
aF0.25
aF0.25
aF0.25
aF0.25
aF0.375
aF0.375
aF0.375
aF0.375
aa(lp8
F0.77777777777777779
aF0.63888888888888884
aF0.33333333333333331
aF0.47222222222222221
aF0.027777777777777776
aF0.3888888888888889
aF0.55555555555555558
aF0.83333333333333337
aF0.44444444444444442
aF0.94444444444444442
aF0.27777777777777779
aF0.91666666666666663
aF0.75
aF0.27777777777777779
aF0.63888888888888884
aF0.055555555555555552
aF0.44444444444444442
aF0.083333333333333329
aF0.027777777777777776
aF0.55555555555555558
aF0.63888888888888884
aF0.80555555555555558
aF0.94444444444444442
aF0.44444444444444442
aF0.27777777777777779
aF0.61111111111111116
aF0.5
aa(lp9
F0.41666666666666669
aF0.22619047619047619
aF0.035714285714285712
aF0.071428571428571425
aF0
aF0.023809523809523808
aF0.17857142857142858
aF0.5714285714285714
aF0.071428571428571425
aF0.83333333333333337
aF0.011904761904761904
aF0.77380952380952384
aF0.40476190476190477
aF0.023809523809523808
aF0.27380952380952384
aF0
aF0.059523809523809521
aF0
aF0
aF0.16666666666666666
aF0.25
aF0.5
aF0.83333333333333337
aF0.10714285714285714
aF0.011904761904761904
aF0.21428571428571427
aF0.13095238095238096
aa(lp10
F0.625
aF0.5
aF0.125
aF0.375
aF0
aF0.25
aF0.375
aF0.625
aF0.25
aF0.875
aF0.125
aF0.75
aF0.625
aF0
aF0.375
aF0
aF0.25
aF0
aF0
aF0.25
aF0.375
aF0.625
aF0.875
aF0.125
aF0
aF0.25
aF0.25
aa(lp11
F0.625
aF0.5
aF0.125
aF0.375
aF0
aF0.25
aF0.375
aF0.625
aF0.25
aF0.875
aF0.125
aF0.75
aF0.625
aF0
aF0.375
aF0
aF0.25
aF0
aF0
aF0.25
aF0.5
aF0.625
aF0.875
aF0.125
aF0
aF0.25
aF0.25
aa.