(lp1
(lp2
F0.65625
aF0.86440677966101698
aF0.87878787878787878
aF0.75
aF0.92957746478873238
aF0.82222222222222219
aF0.8671875
aF0.80597014925373134
aF0.94666666666666666
aF0.54545454545454541
aF1
aF0.67021276595744683
aF1
aF0
aF0.94666666666666666
aF0
aF0.84615384615384615
aF0
aF0.73684210526315785
aF0.54000000000000004
aF1
aF0.94666666666666666
aF0.921875
aF0.97058823529411764
aF0
aF0.59999999999999998
aF1
aa(lp3
F0.69259259259259265
aF0.90476190476190466
aF0.88042328042328044
aF0.67407407407407405
aF0.94047619047619058
aF0.85132275132275126
aF0.89285714285714279
aF0.85608465608465611
aF0.95238095238095233
aF0.31111111111111112
aF1
aF0.72804232804232794
aF1
aF0
aF0.95238095238095233
aF0
aF0.60000000000000009
aF0
aF0.81375661375661368
aF0.52222222222222214
aF1
aF0.95238095238095255
aF0.94047619047619035
aF0.97222222222222221
aF0
aF0.55555555555555558
aF1
aa(lp4
F0.60592348827642939
aF0.95441595441595461
aF0.94442144007361406
aF0.44668911335577999
aF1
aF0.86663816293445928
aF0.92626748641183276
aF0.86176121803092476
aF1
aF0.35555555555555557
aF1
aF0.66192772581054615
aF1
aF0
aF1
aF0
aF0.66666666666666663
aF0
aF0.81840380257153889
aF0.63012152498291785
aF1
aF1
aF1
aF1
aF0
aF0.38271604938271608
aF0.66666666666666663
aa(lp5
F0.52500000000000002
aF0.35000000000000003
aF0.33333333333333331
aF0.58333333333333326
aF0.32499999999999996
aF0.39166666666666666
aF0.39166666666666666
aF0.3833333333333333
aF0.31666666666666665
aF0.5
aF0.29999999999999999
aF0.43333333333333329
aF0.29999999999999999
aF0
aF0.31666666666666665
aF0.29999999999999999
aF0.35999999999999999
aF0.29999999999999999
aF0.39999999999999997
aF0.5083333333333333
aF0.29999999999999999
aF0.31666666666666665
aF0.34166666666666662
aF0.30833333333333329
aF0.29999999999999999
aF0.54285714285714282
aF0.29999999999999999
aa(lp6
F-0.17293233082706591
aF-0.34228187919464187
aF-0.18518518518518517
aF0.40000000000000002
aF-0.29411764705882948
aF-0.057627118644063467
aF-0.069078947368420449
aF-0.20729684908789708
aF-0.28301886792451497
aF-0.602739726027397
aF0
aF-0.14782608695652125
aF0
aF0
aF-0.28301886792451497
aF0
aF-0.45454545454545231
aF0
aF-0.27619047619047415
aF-0.13385826771653545
aF0
aF-0.28301886792451497
aF-0.29166666666666546
aF-0.25000000000009159
aF0
aF-3.8857805861880447e-15
aF0.99999999999999611
aa(lp7
F0.375
aF0.25
aF0.25
aF0.5
aF0.25
aF0.375
aF0.25
aF0.25
aF0.25
aF0.375
aF0.125
aF0.375
aF0.125
aF0
aF0.25
aF0.125
aF0.25
aF0.125
aF0.25
aF0.375
aF0.125
aF0.25
aF0.25
aF0.25
aF0.125
aF0.5
aF0.125
aa(lp8
F0.3611111111111111
aF0.83333333333333337
aF0.88888888888888884
aF0.44444444444444442
aF0.91666666666666663
aF0.72222222222222221
aF0.69444444444444442
aF0.72222222222222221
aF0.94444444444444442
aF0.25
aF1
aF0.61111111111111116
aF1
aF0
aF0.94444444444444442
aF0.027777777777777776
aF0.33333333333333331
aF0.055555555555555552
aF0.66666666666666663
aF0.44444444444444442
aF1
aF0.94444444444444442
aF0.86111111111111116
aF0.97222222222222221
aF0.027777777777777776
aF0.27777777777777779
aF0.5
aa(lp9
F0.083333333333333329
aF0.6071428571428571
aF0.69047619047619047
aF0.14285714285714285
aF0.7857142857142857
aF0.44047619047619047
aF0.44047619047619047
aF0.42857142857142855
aF0.84523809523809523
aF0.047619047619047616
aF1
aF0.25
aF1
aF0
aF0.84523809523809523
aF0
aF0.13095238095238096
aF0
aF0.33333333333333331
aF0.10714285714285714
aF1
aF0.84523809523809523
aF0.70238095238095233
aF0.91666666666666663
aF0
aF0.047619047619047616
aF0.25
aa(lp10
F0
aF0.5
aF0.75
aF0.125
aF0.625
aF0.25
aF0.25
aF0.375
aF0.75
aF0
aF1
aF0.25
aF1
aF0
aF0.75
aF0
aF0
aF0
aF0.375
aF0.25
aF1
aF0.75
aF0.375
aF0.875
aF0
aF0
aF0
aa(lp11
F0
aF0.625
aF0.75
aF0.125
aF0.625
aF0.25
aF0.25
aF0.375
aF0.75
aF0
aF1
aF0.25
aF1
aF0
aF0.75
aF0
aF0
aF0
aF0.375
aF0.25
aF1
aF0.75
aF0.375
aF0.875
aF0
aF0
aF0
aa.