(lp1
(lp2
F0.7007299270072993
aF0
aF1
aF0
aF0.73943661971830987
aF0.55384615384615388
aF1
aF0
aF0.41379310344827586
aF0.29999999999999999
aF0
aF0.49090909090909091
aF0.71223021582733814
aF0.77083333333333337
aF1
aF0
aF0.74468085106382975
aF0
aF0.72857142857142854
aF0.71223021582733814
aF1
aF0.25
aF0.40000000000000002
aF0.7007299270072993
aF0.71223021582733814
aF0.42105263157894735
aF0.27272727272727271
aa(lp3
F0.71111111111111114
aF0
aF1
aF0
aF0.70582010582010579
aF0.70370370370370372
aF1
aF0
aF0.40370370370370368
aF0.25925925925925924
aF0
aF0.50740740740740753
aF0.71031746031746035
aF0.80555555555555558
aF1
aF0
aF0.74841269841269842
aF0
aF0.73095238095238102
aF0.72962962962962963
aF1
aF0.1111111111111111
aF0.39417989417989419
aF0.70370370370370372
aF0.72380952380952379
aF0.437037037037037
aF0.25925925925925924
aa(lp4
F0.62789434090571827
aF0
aF1
aF0
aF0.82507624526984169
aF0.49647962148192426
aF1
aF0
aF0.30114124059136854
aF0
aF0
aF0.17849054148571056
aF0.75504029034914943
aF0.8791680215825024
aF1
aF0
aF0.80384458022771854
aF0.35555555555555557
aF0.77089705920097995
aF0.68845111480932453
aF1
aF0
aF0.51277763137716204
aF0.61727098345767661
aF0.69770383206236442
aF0.22769403798815566
aF0.44444444444444442
aa(lp5
F0.375
aF0.82499999999999996
aF0.29999999999999999
aF0.70000000000000007
aF0.375
aF0.46666666666666667
aF0.29999999999999999
aF0.75
aF0.44999999999999996
aF0.94166666666666665
aF0.75
aF0.45833333333333326
aF0.375
aF0.375
aF0.29999999999999999
aF0.82499999999999996
aF0.375
aF0.79999999999999993
aF0.375
aF0.375
aF0.29999999999999999
aF0.83333333333333326
aF0.45833333333333326
aF0.375
aF0.375
aF0.44999999999999996
aF0.47999999999999998
aa(lp6
F-0.26562500000000722
aF-0.058823529411765073
aF0
aF-0.37499999999999944
aF-0.20630749014454222
aF-0.31280388978930318
aF0
aF0
aF-0.10429447852760849
aF-0.058823529411765073
aF0
aF-0.2676056338028025
aF-0.17391304347826048
aF-0.30952380952381697
aF0
aF-0.058823529411765073
aF-0.1826923076923094
aF-0.12499999999999881
aF-0.20382165605095259
aF-0.32436708860760471
aF0
aF-8.4932061383824637e-16
aF-0.20588235294117707
aF-0.18125000000000779
aF-0.27404718693285868
aF-0.30434782608695671
aF-0.68750000000000067
aa(lp7
F0.25
aF0.75
aF0.125
aF0.625
aF0.25
aF0.375
aF0.125
aF0.5
aF0.25
aF0.875
aF0.5
aF0.375
aF0.25
aF0.25
aF0.125
aF0.75
aF0.25
aF0.75
aF0.25
aF0.25
aF0.125
aF0.75
aF0.375
aF0.25
aF0.25
aF0.25
aF0.375
aa(lp8
F0.75
aF0.25
aF1
aF0.25
aF0.75
aF0.5
aF1
aF0.25
aF0.5
aF0.25
aF0.25
aF0.5
aF0.75
aF0.75
aF1
aF0.25
aF0.75
aF0.25
aF0.75
aF0.75
aF1
aF0.25
aF0.5
aF0.75
aF0.75
aF0.5
aF0.25
aa(lp9
F0.38095238095238093
aF0
aF1
aF0
aF0.41666666666666669
aF0.14285714285714285
aF1
aF0
aF0.095238095238095233
aF0.011904761904761904
aF0
aF0.10714285714285714
aF0.39285714285714285
aF0.44047619047619047
aF1
aF0
aF0.41666666666666669
aF0
aF0.40476190476190477
aF0.39285714285714285
aF1
aF0.011904761904761904
aF0.095238095238095233
aF0.38095238095238093
aF0.39285714285714285
aF0.095238095238095233
aF0.011904761904761904
aa(lp10
F0.625
aF0.125
aF1
aF0.125
aF0.375
aF0.25
aF1
aF0.25
aF0.375
aF0.125
aF0.25
aF0.375
aF0.625
aF0.375
aF1
aF0.125
aF0.5
aF0.125
aF0.5
aF0.625
aF1
aF0.125
aF0.375
aF0.625
aF0.5
aF0.375
aF0
aa(lp11
F0.625
aF0.125
aF1
aF0.125
aF0.375
aF0.25
aF1
aF0.25
aF0.375
aF0.125
aF0.25
aF0.375
aF0.625
aF0.375
aF1
aF0.125
aF0.5
aF0.125
aF0.5
aF0.625
aF1
aF0.125
aF0.375
aF0.625
aF0.5
aF0.375
aF0
aa(lp12
cnumpy.core.multiarray
scalar
p13
(cnumpy
dtype
p14
(S'f8'
I0
I1
tRp15
(I3
S'<'
NNNI-1
I-1
I0
tbS'\x84$dT\x8c\xff\xf6B'
tRp16
ag13
(g15
S'\xb7\xe0\x1fW\x1d\xab,\xc3'
tRp17
ag13
(g15
S'\x0e\xc7q\x1c\xc7q\xcc\xc2'
tRp18
ag13
(g15
S',\xb4\x91^\x00\x92\x15C'
tRp19
ag13
(g15
S'\xb5,rD\xd1q\xdcB'
tRp20
ag13
(g15
S'\x1cw\xb5^\xaa\xb1\x19\xc3'
tRp21
ag13
(g15
S'\x0e\xc7q\x1c\xc7q\xcc\xc2'
tRp22
ag13
(g15
S'\x1b\xc7q\x1c\xc7q,\xc3'
tRp23
ag13
(g15
S'\x9d]\x01X\xf7\x8f\xe1\xc2'
tRp24
ag13
(g15
S'\xf3\xff\xc6\xaaqU\xec\xc2'
tRp25
ag13
(g15
S'\x1b\xc7q\x1c\xc7q,\xc3'
tRp26
ag13
(g15
S'T\x83y\xe9Zy\xbcB'
tRp27
ag13
(g15
S'=\x16\xc4\xb4V\xa6\xc5\xc2'
tRp28
ag13
(g15
S'\x8b\xbcw\xa119\xc0\xc2'
tRp29
ag13
(g15
S'\x0e\xc7q\x1c\xc7q\xcc\xc2'
tRp30
ag13
(g15
S'\xbd\x8fO\xdb\x1cb\xea\xc2'
tRp31
ag13
(g15
S'\x0f\xb8rskl\xc4\xc2'
tRp32
ag13
(g15
S'G\xcf\xed\x15\rM\x13C'
tRp33
ag13
(g15
S'\xbdv\x075\x0e7\xcaB'
tRp34
ag13
(g15
S'\x8d#\xb5}\xcf\x93\xd3\xc2'
tRp35
ag13
(g15
S'\x0e\xc7q\x1c\xc7q\xcc\xc2'
tRp36
ag13
(g15
S'\x18t*R\xf5\xac\x0b\xc3'
tRp37
ag13
(g15
S'\x15\xc7q\x1c\xc7q\xec\xc2'
tRp38
ag13
(g15
S'eYL|{\xd0\xf0\xc2'
tRp39
ag13
(g15
S'\x8c\xffD\x12\xf0\x8c\xc3\xc2'
tRp40
ag13
(g15
S'\xaa\xd1L\xa3\xfeF\xd9\xc2'
tRp41
ag13
(g15
S'\x1e\xfc<n,~\xfa\xc2'
tRp42
aa.