(lp1
(lp2
F0
aF0.36206896551724138
aF0.5
aF0.375
aF0.73943661971830987
aF1
aF0.41379310344827586
aF0
aF0.50847457627118642
aF0.46551724137931033
aF1
aF1
aF0.42857142857142855
aF0.71223021582733814
aF0
aF0.67883211678832112
aF0.34999999999999998
aF1
aF0.40677966101694918
aF0
aF0.68382352941176472
aF0.5
aF0.42105263157894735
aF1
aF0.1875
aF0.72340425531914898
aF1
aF0.69565217391304346
aF0.74468085106382975
aF0
aF0.54098360655737709
aF1
aF0.41379310344827586
aF1
aF0
aF0.45000000000000001
aF0.41379310344827586
aF0.4576271186440678
aF0
aF0.49180327868852458
aF0
aF0.72857142857142854
aF0.4576271186440678
aF0.50847457627118642
aF0.4838709677419355
aF0.67883211678832112
aF0
aF0.49180327868852458
aF0.5
aF0.36842105263157893
aF0.71223021582733814
aF1
aF0.38181818181818183
aF0
aF0.72340425531914898
aF0.38709677419354838
aF1
aF0.72857142857142854
aF0
aF0
aF0
aF0.72857142857142854
aF0
aF1
aF0.47619047619047616
aF1
aF0
aF0
aF0
aF0.76595744680851063
aF0.43636363636363634
aF0.75524475524475521
aF0.75
aF0
aF0.45000000000000001
aF0.67391304347826086
aF0.71739130434782605
aF0.5
aF0.42857142857142855
aF1
aF0.68382352941176472
aF0.75
aF0
aF1
aF0.73426573426573427
aF0
aF0.25
aF0
aF0.27272727272727271
aF0.69565217391304346
aF0.73381294964028776
aF0.47368421052631576
aF0.75
aF1
aF0
aF0.66666666666666663
aF0
aF0
aF0.50769230769230766
aF0.5
aF0
aF0.72857142857142854
aF0.42857142857142855
aF0.66666666666666663
aF0
aF0.4838709677419355
aF1
aF0.70714285714285718
aF0.43636363636363634
aF1
aF1
aF0.77622377622377625
aF0.71223021582733814
aF0.72857142857142854
aF0
aF0.29999999999999999
aF0.76056338028169013
aF0.44262295081967212
aF0.532258064516129
aF0.42105263157894735
aF0.16666666666666666
aF0.48214285714285715
aF0.25
aF0.71739130434782605
aF0.42105263157894735
aF0.66666666666666663
aF0.71739130434782605
aF1
aF0.7007299270072993
aF0.68382352941176472
aF0.73381294964028776
aF0
aF0
aF0.54098360655737709
aF0.23076923076923078
aF0.20000000000000001
aF0
aF0.40677966101694918
aF0.47619047619047616
aF0.7007299270072993
aF0
aF1
aF0.27272727272727271
aF0.44262295081967212
aF0.7007299270072993
aF1
aF0.50769230769230766
aF0.59090909090909094
aF0.67883211678832112
aF0
aF0.69565217391304346
aF0.25
aF0
aF0.25
aF0
aF1
aF0.75
aF0.69565217391304346
aF0
aF0.79720279720279719
aF0.71223021582733814
aF1
aF0.66666666666666663
aF0
aF1
aF0.41379310344827586
aF0.25
aF0.74468085106382975
aF0.76056338028169013
aF0.25
aF0.21428571428571427
aF0.67883211678832112
aF0.73381294964028776
aF0.77622377622377625
aF0.46551724137931033
aF0
aF0.38181818181818183
aF0.73381294964028776
aF0.72857142857142854
aF0.71223021582733814
aF0.25
aF1
aF0
aF0.48214285714285715
aF0
aF1
aF1
aF0.49090909090909091
aF0.75
aF1
aF0
aF0.73381294964028776
aF0.70714285714285718
aF0.72857142857142854
aF0.48214285714285715
aF0
aF0
aF0
aF0.75
aF0.25
aF0
aF1
aF0.74468085106382975
aF0.66666666666666663
aF1
aF1
aF1
aF0.41379310344827586
aF0.69565217391304346
aF0.5
aF0.71223021582733814
aF0.21428571428571427
aF1
aF0.5
aF0.75
aF0
aF0.67883211678832112
aF0.27272727272727271
aF0.48214285714285715
aF0.76056338028169013
aF0
aF0.38709677419354838
aF0.71739130434782605
aF0.44262295081967212
aF0.40677966101694918
aF0
aF0.40000000000000002
aF0.7007299270072993
aF0.73381294964028776
aF0
aF0.78620689655172415
aF1
aF0.42105263157894735
aF0.46551724137931033
aF0.47619047619047616
aF1
aF0.73381294964028776
aF0
aF0.68382352941176472
aF0.5625
aF0.45000000000000001
aF0.27272727272727271
aF0.29999999999999999
aF0.7007299270072993
aF0.25
aF0.27272727272727271
aF0.31034482758620691
aF0
aF0.20000000000000001
aF0.54545454545454541
aF1
aF0.67883211678832112
aF0.71739130434782605
aF1
aF0.77622377622377625
aF1
aF0.20000000000000001
aF1
aF0.67883211678832112
aF0.43636363636363634
aF1
aF0.67883211678832112
aF0.49180327868852458
aF0.48214285714285715
aF0.71739130434782605
aF0
aF0.72857142857142854
aF1
aF0.73381294964028776
aF0.72857142857142854
aF1
aF1
aF1
aF0
aa(lp3
F0
aF0.37407407407407411
aF0.5
aF0.37407407407407411
aF0.76005291005291009
aF1
aF0.36666666666666664
aF0
aF0.57037037037037031
aF0.47777777777777775
aF1
aF1
aF0.4148148148148148
aF0.71851851851851867
aF0
aF0.67195767195767198
aF0.35185185185185186
aF1
aF0.47037037037037038
aF0
aF0.67936507936507939
aF0.5
aF0.44814814814814813
aF1
aF0.23333333333333334
aF0.73571428571428565
aF1
aF0.69947089947089947
aF0.77116402116402116
aF0
aF0.6777777777777777
aF1
aF0.38518518518518519
aF1
aF0
aF0.48888888888888882
aF0.42592592592592593
aF0.52962962962962967
aF0
aF0.58888888888888891
aF0
aF0.74576719576719575
aF0.52222222222222225
aF0.55925925925925923
aF0.59259259259259267
aF0.67566137566137563
aF0
aF0.47777777777777775
aF0.5
aF0.3962962962962962
aF0.72142857142857153
aF1
aF0.37777777777777777
aF0
aF0.75899470899470911
aF0.40370370370370368
aF1
aF0.73042328042328042
aF0
aF0
aF0
aF0.73994708994709002
aF0
aF1
aF0.63174603174603172
aF1
aF0
aF0
aF0
aF0.78756613756613758
aF0.43333333333333335
aF0.78941798941798946
aF0.77486772486772493
aF0
aF0.41111111111111115
aF0.65661375661375665
aF0.72962962962962963
aF0.5
aF0.44074074074074071
aF1
aF0.68518518518518523
aF0.78280423280423284
aF0
aF1
aF0.76931216931216939
aF0
aF0.1111111111111111
aF0
aF0.18518518518518517
aF0.6883597883597885
aF0.73253968253968249
aF0.48148148148148157
aF0.77486772486772493
aF1
aF0
aF0.66666666666666663
aF0
aF0
aF0.64973544973544972
aF0.5
aF0
aF0.74153439153439149
aF0.44074074074074077
aF0.66666666666666663
aF0
aF0.59259259259259267
aF1
aF0.71772486772486788
aF0.43333333333333335
aF1
aF1
aF0.80925925925925923
aF0.7142857142857143
aF0.72513227513227507
aF0
aF0.25925925925925924
aF0.76560846560846563
aF0.47037037037037038
aF0.53703703703703698
aF0.37777777777777777
aF0.14074074074074075
aF0.48888888888888893
aF0.18518518518518517
aF0.72539682539682548
aF0.43333333333333335
aF0.66666666666666663
aF0.71957671957671954
aF1
aF0.71111111111111103
aF0.68518518518518523
aF0.72698412698412695
aF0
aF0
aF0.62169312169312174
aF0.16666666666666666
aF0.14814814814814814
aF0
aF0.46666666666666667
aF0.48095238095238091
aF0.71534391534391539
aF0
aF1
aF0.18518518518518517
aF0.42222222222222222
aF0.7052910052910053
aF1
aF0.63121693121693123
aF0.75343915343915357
aF0.67566137566137574
aF0
aF0.70158730158730165
aF0.25925925925925924
aF0
aF0.24074074074074078
aF0
aF1
aF0.76560846560846563
aF0.68253968253968256
aF0
aF0.82777777777777783
aF0.71243386243386242
aF1
aF0.66666666666666663
aF0
aF1
aF0.45185185185185184
aF0.18518518518518517
aF0.75634920634920633
aF0.78915343915343916
aF0.18518518518518517
aF0.092592592592592587
aF0.68518518518518512
aF0.74735449735449744
aF0.82275132275132279
aF0.51481481481481473
aF0
aF0.40370370370370368
aF0.75317460317460316
aF0.73783068783068784
aF0.71428571428571419
aF0.18518518518518517
aF1
aF0
aF0.48888888888888893
aF0
aF1
aF1
aF0.48148148148148157
aF0.76746031746031751
aF1
aF0
aF0.75317460317460316
aF0.73148148148148151
aF0.73783068783068784
aF0.46296296296296302
aF0
aF0
aF0
aF0.76746031746031751
aF0.18518518518518517
aF0
aF1
aF0.75767195767195761
aF0.66666666666666663
aF1
aF1
aF1
aF0.4592592592592592
aF0.71534391534391528
aF0.58148148148148149
aF0.69365079365079352
aF0.16666666666666666
aF1
aF0.5
aF0.76746031746031751
aF0
aF0.68518518518518512
aF0.26666666666666672
aF0.51481481481481473
aF0.76560846560846563
aF0
aF0.39999999999999997
aF0.72962962962962963
aF0.44973544973544971
aF0.47037037037037038
aF0
aF0.48888888888888882
aF0.69788359788359777
aF0.74735449735449744
aF0
aF0.84973544973544979
aF1
aF0.43333333333333335
aF0.47407407407407409
aF0.50687830687830682
aF1
aF0.7328042328042329
aF0
aF0.67936507936507928
aF0.47777777777777786
aF0.44814814814814813
aF0.18518518518518517
aF0.25925925925925924
aF0.71534391534391539
aF0.24074074074074078
aF0.18518518518518517
aF0.30740740740740741
aF0
aF0.092592592592592587
aF0.55555555555555558
aF1
aF0.68148148148148147
aF0.71216931216931223
aF1
aF0.80925925925925934
aF1
aF0.092592592592592587
aF1
aF0.67936507936507939
aF0.43333333333333335
aF1
aF0.67195767195767186
aF0.5185185185185186
aF0.48888888888888893
aF0.72539682539682537
aF0
aF0.73783068783068784
aF1
aF0.75132275132275128
aF0.74735449735449733
aF1
aF1
aF1
aF0
aa(lp4
F0
aF0.4543860570800729
aF0.14814814814814814
aF0.23160402228152904
aF0.82469203252078127
aF1
aF0.257542359506304
aF0
aF0.41050486383819718
aF0.25419372294372289
aF1
aF1
aF0.24627565318812833
aF0.68693625133157887
aF0
aF0.65015753100591966
aF0.40691304727019012
aF1
aF0.34425113048452705
aF0
aF0.60855954127643619
aF0.14814814814814814
aF0.25341697822957193
aF1
aF0
aF0.81377342315689627
aF1
aF0.69210354961253495
aF0.7957311913577324
aF0
aF0.2964823896270159
aF1
aF0.32116034931252324
aF1
aF0.37037037037037035
aF0.44713083179507862
aF0.27254610260349144
aF0.27614052614052614
aF0
aF0.44964275257753517
aF0
aF0.74650637918829432
aF0.33643370160398028
aF0.32850727481230624
aF0.45074955908289244
aF0.65607807903599291
aF0
aF0.40337454094669722
aF0.14814814814814814
aF0.22918852639381093
aF0.74072406634546617
aF1
aF0.2344299733188622
aF0
aF0.7616003647167342
aF0.47834164713895572
aF1
aF0.77761064677002389
aF0.3611111111111111
aF0
aF0
aF0.76252625177411282
aF0
aF1
aF0.36018453885967494
aF1
aF0
aF0
aF0.88888888888888884
aF0.78585341975039646
aF0.18345733698807157
aF0.8776033682465566
aF0.75041583868790662
aF0.27222222222222225
aF0.41346554115432832
aF0.7434139057227741
aF0.64789778116259966
aF0.14814814814814814
aF0.19947776073536724
aF1
aF0.59920474599507767
aF0.73934600520939653
aF0
aF1
aF0.87000667327816084
aF0
aF0
aF0
aF0
aF0.68675190115479234
aF0.73000389544195243
aF0.25869942814387259
aF0.76173534730649683
aF1
aF0.37037037037037041
aF0.57142857142857129
aF0
aF0
aF0.59625252743210244
aF0.14814814814814814
aF0.34920634920634919
aF0.75717047970264195
aF0.21445980591329428
aF0.57142857142857129
aF0.35555555555555557
aF0.43162651500247418
aF1
aF0.78148247008152361
aF0.20711079044412378
aF1
aF1
aF0.865062674399665
aF0.70086880465548385
aF0.77714455473156663
aF0
aF0
aF0.76780287725731788
aF0.4988098585717633
aF0.55295367010086305
aF0.28261736356702039
aF0
aF0.21262038805898456
aF0
aF0.66501553163413485
aF0.24987125059588833
aF0.57142857142857129
aF0.67733673801138528
aF1
aF0.62789434090571827
aF0.59952413890770062
aF0.68803005136305007
aF0.26587301587301587
aF0.14814814814814814
aF0.48694885361552032
aF0
aF0
aF0.35555555555555557
aF0.4076012223071046
aF0.72333197652055248
aF0.61687663782748392
aF0.22222222222222221
aF1
aF0
aF0.58840409103567004
aF0.63047128536604846
aF1
aF0.63474937828504663
aF0.71144724556489269
aF0.6560780790359928
aF0
aF0.67983512345319197
aF0
aF0.3611111111111111
aF0
aF0
aF1
aF0.73953002301089699
aF0.70704910495742812
aF0
aF0.85848900723501742
aF0.73657792791404941
aF1
aF0.57142857142857129
aF0.27222222222222225
aF1
aF0.40606814606814606
aF0
aF0.79971826115517919
aF0.83831301809198633
aF0
aF0
aF0.63615548332662908
aF0.72019855276295808
aF0.85211495314664065
aF0.25964054707475759
aF0
aF0.20191086691086693
aF0.71627139187525657
aF0.77781301765295918
aF0.70092437434571986
aF0
aF1
aF0.27314814814814814
aF0.20262934730326032
aF0
aF1
aF1
aF0.18570525985946917
aF0.76486941585256185
aF1
aF0
aF0.70706298249420085
aF0.73852648533499599
aF0.77781301765295918
aF0.21311594995805522
aF0
aF0.21296296296296294
aF0
aF0.75718901694511453
aF0
aF0
aF1
aF0.7843606927082043
aF0.57142857142857129
aF1
aF1
aF1
aF0.34529026387263939
aF0.64937425645640534
aF0.43731830929097126
aF0.73506988875428314
aF0
aF1
aF0.14814814814814814
aF0.75529555378476743
aF0
aF0.63615548332662897
aF0.35864136714711425
aF0.22712854954636499
aF0.76780287725731788
aF0.37037037037037041
aF0.5639164300909828
aF0.64789778116259966
aF0.43110419835490138
aF0.4427256061027991
aF0
aF0.41224341856525759
aF0.63352894985360086
aF0.7206021747850283
aF0
aF0.91732431149097826
aF1
aF0.24550424883758218
aF0.28434886012180693
aF0.68410168598524768
aF1
aF0.69879827032046704
aF0
aF0.60855954127643619
aF0.61523883837581639
aF0.5223768645107203
aF0
aF0
aF0.61687663782748392
aF0
aF0
aF0.35407422765913332
aF0.18518518518518517
aF0
aF0.19457208592318456
aF1
aF0.63093388093388092
aF0.67887933389155541
aF1
aF0.86506267439966511
aF1
aF0
aF1
aF0.64683465588337108
aF0.18345733698807162
aF1
aF0.65015753100591966
aF0.37842038031383346
aF0.22151854048405772
aF0.66501553163413485
aF0.29629629629629634
aF0.76812613824038178
aF1
aF0.6926779723749642
aF0.76198058581814532
aF1
aF1
aF1
aF0.37037037037037035
aa(lp5
F0.77500000000000002
aF0.46666666666666667
aF0.44999999999999996
aF0.44999999999999996
aF0.375
aF0.29999999999999999
aF0.44999999999999996
aF0.75
aF0.48333333333333334
aF0.44999999999999996
aF0.29999999999999999
aF0.29999999999999999
aF0.45833333333333326
aF0.375
aF0.72499999999999998
aF0.375
aF0.45833333333333326
aF0.29999999999999999
aF0.45833333333333326
aF0.73333333333333339
aF0.375
aF0.44999999999999996
aF0.45833333333333326
aF0.29999999999999999
aF0.70833333333333337
aF0.375
aF0.29999999999999999
aF0.375
aF0.375
aF0.73333333333333339
aF0.45833333333333326
aF0.29999999999999999
aF0.45833333333333326
aF0.29999999999999999
aF0.81666666666666665
aF0.46666666666666667
aF0.44999999999999996
aF0.45833333333333326
aF0.77500000000000002
aF0.46666666666666667
aF0.64999999999999991
aF0.375
aF0.45833333333333326
aF0.46666666666666667
aF0.45833333333333326
aF0.375
aF0.66666666666666663
aF0.46666666666666667
aF0.44999999999999996
aF0.44999999999999996
aF0.375
aF0.29999999999999999
aF0.45833333333333326
aF0.75
aF0.375
aF0.44999999999999996
aF0.29999999999999999
aF0.375
aF0.78333333333333333
aF0.70833333333333337
aF0.75
aF0.375
aF0.75
aF0.29999999999999999
aF0.44999999999999996
aF0.29999999999999999
aF0.75
aF0.75
aF0.47999999999999998
aF0.375
aF0.44999999999999996
aF0.375
aF0.375
aF0.71666666666666667
aF0.45833333333333326
aF0.375
aF0.375
aF0.44999999999999996
aF0.44999999999999996
aF0.29999999999999999
aF0.375
aF0.375
aF0.75
aF0.29999999999999999
aF0.375
aF0.70000000000000007
aF0.79999999999999993
aF0.73333333333333339
aF0.87499999999999989
aF0.375
aF0.375
aF0.45833333333333326
aF0.375
aF0.29999999999999999
aF0.84999999999999998
aF0.375
aF0.7416666666666667
aF0.77500000000000002
aF0.45833333333333326
aF0.44999999999999996
aF0.68333333333333324
aF0.375
aF0.44999999999999996
aF0.375
aF0.66666666666666663
aF0.46666666666666667
aF0.29999999999999999
aF0.375
aF0.44999999999999996
aF0.29999999999999999
aF0.29999999999999999
aF0.375
aF0.375
aF0.375
aF0.75
aF0.44999999999999996
aF0.375
aF0.45833333333333326
aF0.47499999999999998
aF0.44999999999999996
aF0.64166666666666661
aF0.45833333333333326
aF0.82499999999999996
aF0.375
aF0.45833333333333326
aF0.375
aF0.375
aF0.29999999999999999
aF0.375
aF0.375
aF0.375
aF0.75
aF0.76666666666666661
aF0.47499999999999998
aF0.82499999999999996
aF0.72499999999999998
aF0.75
aF0.45833333333333326
aF0.47499999999999998
aF0.375
aF0.79999999999999993
aF0.29999999999999999
aF0.89999999999999991
aF0.46666666666666667
aF0.375
aF0.29999999999999999
aF0.46666666666666667
aF0.46666666666666667
aF0.375
aF0.78333333333333333
aF0.375
aF0.7583333333333333
aF0.73333333333333339
aF0.85833333333333328
aF0.73333333333333339
aF0.29999999999999999
aF0.375
aF0.375
aF0.75
aF0.375
aF0.375
aF0.29999999999999999
aF0.375
aF0.71666666666666667
aF0.29999999999999999
aF0.46666666666666667
aF0.76666666666666661
aF0.375
aF0.375
aF0.81666666666666665
aF0.71666666666666667
aF0.375
aF0.375
aF0.375
aF0.44999999999999996
aF0.78333333333333333
aF0.44999999999999996
aF0.375
aF0.375
aF0.375
aF0.84999999999999998
aF0.29999999999999999
aF0.70000000000000007
aF0.44999999999999996
aF0.75
aF0.29999999999999999
aF0.29999999999999999
aF0.44999999999999996
aF0.375
aF0.29999999999999999
aF0.78333333333333333
aF0.375
aF0.375
aF0.375
aF0.44999999999999996
aF0.70833333333333337
aF0.71666666666666667
aF0.75
aF0.375
aF0.79999999999999993
aF0.73333333333333339
aF0.29999999999999999
aF0.375
aF0.375
aF0.29999999999999999
aF0.29999999999999999
aF0.29999999999999999
aF0.45833333333333326
aF0.375
aF0.47499999999999998
aF0.375
aF0.7416666666666667
aF0.29999999999999999
aF0.44999999999999996
aF0.375
aF0.73333333333333339
aF0.375
aF0.45833333333333326
aF0.46666666666666667
aF0.375
aF0.79999999999999993
aF0.46666666666666667
aF0.375
aF0.44999999999999996
aF0.46666666666666667
aF0.70000000000000007
aF0.45833333333333326
aF0.375
aF0.375
aF0.70833333333333337
aF0.375
aF0.29999999999999999
aF0.45833333333333326
aF0.44999999999999996
aF0.46666666666666667
aF0.29999999999999999
aF0.375
aF0.66666666666666663
aF0.375
aF0.46666666666666667
aF0.46666666666666667
aF0.87499999999999989
aF0.94166666666666665
aF0.375
aF0.80833333333333335
aF0.86666666666666659
aF0.44999999999999996
aF0.84999999999999998
aF0.68333333333333324
aF0.45833333333333326
aF0.29999999999999999
aF0.375
aF0.375
aF0.29999999999999999
aF0.375
aF0.29999999999999999
aF0.70000000000000007
aF0.29999999999999999
aF0.375
aF0.44999999999999996
aF0.29999999999999999
aF0.375
aF0.45833333333333326
aF0.45833333333333326
aF0.375
aF0.76666666666666661
aF0.375
aF0.29999999999999999
aF0.375
aF0.375
aF0.29999999999999999
aF0.29999999999999999
aF0.29999999999999999
aF0.79999999999999993
aa(lp6
F-0.40625000000000111
aF-0.21472392638036819
aF0
aF-0.28571428571428381
aF-0.29083665338645742
aF0
aF-0.23853211009173839
aF0
aF-0.020895522388061541
aF-0.26993865030675079
aF0
aF0
aF-0.028571428571426201
aF-0.27404718693285818
aF0.15624999999999944
aF-0.096875000000009065
aF-0.40909090909091189
aF0
aF-0.23582089552239061
aF-0.058823529411765073
aF-0.006211180124223112
aF0
aF-0.13043478260869001
aF0
aF-0.65405405405405415
aF-0.2743362831858473
aF0
aF-0.24528301886792264
aF-0.26923076923077088
aF-0.058823529411765073
aF-0.38461538461538197
aF0
aF-0.15596330275229423
aF0
aF-0.40625000000000111
aF-0.18181818181818335
aF-0.32352941176470723
aF-0.34328358208955423
aF-0.40625000000000111
aF-0.30549450549450391
aF-0.65000000000000069
aF-0.27261146496815014
aF-0.24935732647814932
aF-0.18208955223880863
aF-0.36201780415430446
aF-0.18125000000001198
aF-0.44642857142857179
aF-0.14725274725274548
aF0
aF-0.47826086956521413
aF-0.24964936886396161
aF0
aF-0.01408450704227507
aF0
aF-0.3805309734513202
aF-0.55830388692579735
aF0
aF-0.20382165605095939
aF-0.59999999999999798
aF-0.40000000000000113
aF0
aF-0.23821656050955475
aF0
aF0
aF-0.43209876543209635
aF0
aF-0.12499999999999881
aF0
aF-0.58823529411765796
aF-0.21153846153846287
aF-0.01408450704227507
aF-0.31607006854531505
aF-0.24711316397228478
aF-0.19277108433734955
aF-0.13636363636363685
aF-0.075471698113210486
aF-0.22727272727273776
aF0
aF-0.28571428571428381
aF0
aF-0.17391304347830508
aF-0.27261146496815014
aF0
aF0
aF-0.37776085300837653
aF-0.73493975903614517
aF0.19999999999999901
aF-0.58823529411765796
aF0.15624999999999944
aF-0.13207547169811151
aF-0.13604488078541369
aF-0.043478260869567936
aF-0.24711316397228478
aF0
aF-0.68750000000000067
aF0
aF-0.12499999999999881
aF-0.40625000000000111
aF-0.35963923337091364
aF0
aF-0.3695652173913041
aF-0.24711316397228478
aF-0.28571428571428537
aF0
aF-0.4285714285714286
aF-0.30388692579505477
aF0
aF-0.27829099307159161
aF-0.2676056338028025
aF0
aF0
aF-0.26672458731537291
aF-0.22504537205082531
aF-0.16942675159236031
aF0
aF-0.58823529411765796
aF-0.24178712220761614
aF-0.3084479371316311
aF-0.10043668122271043
aF0.13043478260869681
aF-0.54166666666666707
aF-0.028571428571426201
aF-0.40000000000000113
aF-0.18867924528301658
aF-0.17241379310345223
aF0
aF-0.13207547169811554
aF0
aF-0.26562500000000722
aF-0.17391304347830508
aF-0.078039927404723528
aF-0.19999999999999968
aF-0.40963855421686757
aF-0.16693679092382432
aF-0.40963855421686768
aF-0.4285714285714286
aF-0.39999999999999902
aF-0.15302491103202848
aF-0.23456790123456819
aF-0.35000000000000686
aF-0.62650602409638578
aF0
aF-0.12499999999999881
aF-0.23772102161100336
aF-0.18125000000001198
aF0
aF-0.36134453781512638
aF-0.3061224489795924
aF-0.18125000000001198
aF-0.058823529411765073
aF-0.24528301886792214
aF-0.19999999999999968
aF-0.30120481927710879
aF-0.37499999999999944
aF-0.58823529411765796
aF0
aF-0.18892045454545162
aF-0.075471698113210486
aF-0.12499999999999881
aF-0.21980886185924808
aF-0.19620253164557355
aF0
aF0
aF-0.19277108433734955
aF0
aF-0.15950920245399244
aF-1.9984014443252762e-16
aF-0.24038461538461706
aF-0.26912442396313918
aF-0.40000000000000113
aF-0.076086956521739038
aF-0.26562500000000722
aF-0.21178120617110774
aF-0.31607006854531505
aF-0.32515337423313023
aF-0.058823529411765073
aF-0.2676056338028025
aF-0.24964936886395503
aF-0.21593533487297759
aF-0.22504537205082531
aF-0.59999999999999798
aF0
aF-0.46739130434782616
aF-0.15714285714285436
aF0
aF0
aF0
aF-0.01408450704227507
aF-0.21593533487297759
aF0
aF-0.058823529411765073
aF-0.24964936886395503
aF-0.34064665127021382
aF-0.21593533487297759
aF0.099999999999994094
aF-0.68750000000000067
aF-0.46739130434782616
aF0
aF-0.21593533487297759
aF-0.19999999999999968
aF-0.058823529411765073
aF0
aF-0.1860465116279087
aF0
aF0
aF0
aF0
aF-0.26993865030675079
aF-0.41509433962266168
aF-0.13636363636363846
aF-0.078039927404723528
aF-0.46739130434782616
aF0
aF0
aF-0.21593533487297759
aF-0.58823529411765796
aF-0.26562500000000722
aF-0.01408450704227507
aF-0.15714285714285436
aF-0.24178712220761614
aF-0.37499999999999944
aF-0.39929328621908389
aF-0.22727272727273776
aF-0.23397913561847869
aF-0.28955223880597292
aF-0.19999999999999968
aF-0.3181818181818209
aF-0.096875000000009065
aF-0.21178120617110774
aF-0.40000000000000113
aF-0.3677631578947409
aF0
aF-0.17241379310345223
aF-0.40366972477064295
aF-0.28395061728395082
aF0
aF-0.12704174228675968
aF-0.51807228915662695
aF-0.006211180124223112
aF-0.054687500000000895
aF-0.1428571428571436
aF0.15624999999999944
aF-0.058823529411765073
aF-0.35000000000000686
aF-0.125
aF0.15624999999999944
aF-0.43558282208589133
aF-0.12500000000000083
aF-0.27272727272727304
aF-0.01408450704227507
aF0
aF-0.26562500000000722
aF-0.075471698113210486
aF0
aF-0.26672458731537291
aF0
aF-0.45454545454545631
aF0
aF-0.18125000000001198
aF-0.01408450704227507
aF0
aF-0.096875000000009065
aF-0.34505494505494283
aF-0.15714285714285436
aF-0.18867924528301658
aF-0.19999999999999968
aF-0.21593533487297759
aF0
aF-0.22504537205082531
aF-0.27829099307159161
aF0
aF0
aF0
aF-0.37499999999999944
aa(lp7
F0.75
aF0.375
aF0.25
aF0.25
aF0.25
aF0.125
aF0.25
aF0.5
aF0.375
aF0.25
aF0.125
aF0.125
aF0.375
aF0.25
aF0.625
aF0.25
aF0.375
aF0.125
aF0.375
aF0.625
aF0.25
aF0.25
aF0.375
aF0.125
aF0.5
aF0.25
aF0.125
aF0.25
aF0.25
aF0.625
aF0.375
aF0.125
aF0.375
aF0.125
aF0.75
aF0.375
aF0.25
aF0.375
aF0.75
aF0.375
aF0.5
aF0.25
aF0.375
aF0.375
aF0.375
aF0.25
aF0.5
aF0.375
aF0.25
aF0.25
aF0.25
aF0.125
aF0.375
aF0.5
aF0.25
aF0.25
aF0.125
aF0.25
aF0.625
aF0.625
aF0.5
aF0.25
aF0.5
aF0.125
aF0.25
aF0.125
aF0.625
aF0.5
aF0.375
aF0.25
aF0.25
aF0.25
aF0.25
aF0.625
aF0.375
aF0.25
aF0.25
aF0.25
aF0.25
aF0.125
aF0.25
aF0.25
aF0.5
aF0.125
aF0.25
aF0.625
aF0.75
aF0.625
aF0.875
aF0.25
aF0.25
aF0.375
aF0.25
aF0.125
aF0.75
aF0.25
aF0.625
aF0.75
aF0.375
aF0.25
aF0.5
aF0.25
aF0.25
aF0.25
aF0.5
aF0.375
aF0.125
aF0.25
aF0.25
aF0.125
aF0.125
aF0.25
aF0.25
aF0.25
aF0.5
aF0.25
aF0.25
aF0.375
aF0.375
aF0.25
aF0.5
aF0.375
aF0.75
aF0.25
aF0.375
aF0.25
aF0.25
aF0.125
aF0.25
aF0.25
aF0.25
aF0.625
aF0.75
aF0.375
aF0.75
aF0.625
aF0.625
aF0.375
aF0.375
aF0.25
aF0.75
aF0.125
aF0.875
aF0.375
aF0.25
aF0.125
aF0.375
aF0.375
aF0.25
aF0.75
aF0.25
aF0.625
aF0.625
aF0.75
aF0.625
aF0.125
aF0.25
aF0.25
aF0.625
aF0.25
aF0.25
aF0.125
aF0.25
aF0.625
aF0.125
aF0.375
aF0.625
aF0.25
aF0.25
aF0.75
aF0.625
aF0.25
aF0.25
aF0.25
aF0.25
aF0.75
aF0.25
aF0.25
aF0.25
aF0.25
aF0.75
aF0.125
aF0.5
aF0.25
aF0.5
aF0.125
aF0.125
aF0.25
aF0.25
aF0.125
aF0.75
aF0.25
aF0.25
aF0.25
aF0.25
aF0.625
aF0.625
aF0.5
aF0.25
aF0.75
aF0.625
aF0.125
aF0.25
aF0.25
aF0.125
aF0.125
aF0.125
aF0.375
aF0.25
aF0.375
aF0.25
aF0.625
aF0.125
aF0.25
aF0.25
aF0.625
aF0.25
aF0.375
aF0.375
aF0.25
aF0.75
aF0.375
aF0.25
aF0.25
aF0.375
aF0.625
aF0.375
aF0.25
aF0.25
aF0.625
aF0.25
aF0.125
aF0.375
aF0.25
aF0.375
aF0.125
aF0.25
aF0.5
aF0.25
aF0.375
aF0.375
aF0.875
aF0.875
aF0.25
aF0.75
aF0.875
aF0.25
aF0.875
aF0.5
aF0.375
aF0.125
aF0.25
aF0.25
aF0.125
aF0.25
aF0.125
aF0.5
aF0.125
aF0.25
aF0.25
aF0.125
aF0.25
aF0.375
aF0.375
aF0.25
aF0.625
aF0.25
aF0.125
aF0.25
aF0.25
aF0.125
aF0.125
aF0.125
aF0.75
aa(lp8
F0.25
aF0.5
aF0.5
aF0.5
aF0.75
aF1
aF0.5
aF0.25
aF0.5
aF0.5
aF1
aF1
aF0.5
aF0.75
aF0.25
aF0.75
aF0.5
aF1
aF0.5
aF0.25
aF0.75
aF0.5
aF0.5
aF1
aF0.25
aF0.75
aF1
aF0.75
aF0.75
aF0.25
aF0.5
aF1
aF0.5
aF1
aF0.25
aF0.5
aF0.5
aF0.5
aF0.25
aF0.5
aF0.25
aF0.75
aF0.5
aF0.5
aF0.5
aF0.75
aF0.25
aF0.5
aF0.5
aF0.5
aF0.75
aF1
aF0.5
aF0.25
aF0.75
aF0.5
aF1
aF0.75
aF0.25
aF0.25
aF0.25
aF0.75
aF0.25
aF1
aF0.5
aF1
aF0.25
aF0.25
aF0.25
aF0.75
aF0.5
aF0.75
aF0.75
aF0.25
aF0.5
aF0.75
aF0.75
aF0.5
aF0.5
aF1
aF0.75
aF0.75
aF0.25
aF1
aF0.75
aF0.25
aF0.25
aF0.25
aF0.25
aF0.75
aF0.75
aF0.5
aF0.75
aF1
aF0.25
aF0.75
aF0.25
aF0.25
aF0.5
aF0.5
aF0.25
aF0.75
aF0.5
aF0.75
aF0.25
aF0.5
aF1
aF0.75
aF0.5
aF1
aF1
aF0.75
aF0.75
aF0.75
aF0.25
aF0.25
aF0.75
aF0.5
aF0.5
aF0.5
aF0.25
aF0.5
aF0.25
aF0.75
aF0.5
aF0.75
aF0.75
aF1
aF0.75
aF0.75
aF0.75
aF0.25
aF0.25
aF0.5
aF0.25
aF0.25
aF0.25
aF0.5
aF0.5
aF0.75
aF0.25
aF1
aF0.25
aF0.5
aF0.75
aF1
aF0.5
aF0.5
aF0.75
aF0.25
aF0.75
aF0.25
aF0.25
aF0.25
aF0.25
aF1
aF0.75
aF0.75
aF0.25
aF0.75
aF0.75
aF1
aF0.75
aF0.25
aF1
aF0.5
aF0.25
aF0.75
aF0.75
aF0.25
aF0.25
aF0.75
aF0.75
aF0.75
aF0.5
aF0.25
aF0.5
aF0.75
aF0.75
aF0.75
aF0.25
aF1
aF0.25
aF0.5
aF0.25
aF1
aF1
aF0.5
aF0.75
aF1
aF0.25
aF0.75
aF0.75
aF0.75
aF0.5
aF0.25
aF0.25
aF0.25
aF0.75
aF0.25
aF0.25
aF1
aF0.75
aF0.75
aF1
aF1
aF1
aF0.5
aF0.75
aF0.5
aF0.75
aF0.25
aF1
aF0.5
aF0.75
aF0.25
aF0.75
aF0.5
aF0.5
aF0.75
aF0.25
aF0.5
aF0.75
aF0.5
aF0.5
aF0.25
aF0.5
aF0.75
aF0.75
aF0.25
aF0.75
aF1
aF0.5
aF0.5
aF0.5
aF1
aF0.75
aF0.25
aF0.75
aF0.5
aF0.5
aF0.25
aF0.25
aF0.75
aF0.25
aF0.25
aF0.5
aF0.25
aF0.25
aF0.5
aF1
aF0.75
aF0.75
aF1
aF0.75
aF1
aF0.25
aF1
aF0.75
aF0.5
aF1
aF0.75
aF0.5
aF0.5
aF0.75
aF0.25
aF0.75
aF1
aF0.75
aF0.75
aF1
aF1
aF1
aF0.25
aa(lp9
F0
aF0.083333333333333329
aF0.10714285714285714
aF0.083333333333333329
aF0.41666666666666669
aF1
aF0.095238095238095233
aF0
aF0.11904761904761904
aF0.10714285714285714
aF1
aF1
aF0.095238095238095233
aF0.39285714285714285
aF0
aF0.36904761904761907
aF0.083333333333333329
aF1
aF0.095238095238095233
aF0
aF0.36904761904761907
aF0.10714285714285714
aF0.095238095238095233
aF1
aF0.011904761904761904
aF0.40476190476190477
aF1
aF0.38095238095238093
aF0.41666666666666669
aF0
aF0.13095238095238096
aF1
aF0.095238095238095233
aF1
aF0
aF0.10714285714285714
aF0.095238095238095233
aF0.10714285714285714
aF0
aF0.11904761904761904
aF0
aF0.40476190476190477
aF0.10714285714285714
aF0.11904761904761904
aF0.11904761904761904
aF0.36904761904761907
aF0
aF0.11904761904761904
aF0.10714285714285714
aF0.083333333333333329
aF0.39285714285714285
aF1
aF0.083333333333333329
aF0
aF0.40476190476190477
aF0.095238095238095233
aF1
aF0.40476190476190477
aF0
aF0
aF0
aF0.40476190476190477
aF0
aF1
aF0.11904761904761904
aF1
aF0
aF0
aF0
aF0.42857142857142855
aF0.095238095238095233
aF0.42857142857142855
aF0.41666666666666669
aF0
aF0.10714285714285714
aF0.36904761904761907
aF0.39285714285714285
aF0.10714285714285714
aF0.095238095238095233
aF1
aF0.36904761904761907
aF0.41666666666666669
aF0
aF1
aF0.41666666666666669
aF0
aF0.011904761904761904
aF0
aF0.011904761904761904
aF0.38095238095238093
aF0.40476190476190477
aF0.10714285714285714
aF0.41666666666666669
aF1
aF0
aF0.35714285714285715
aF0
aF0
aF0.13095238095238096
aF0.10714285714285714
aF0
aF0.40476190476190477
aF0.095238095238095233
aF0.35714285714285715
aF0
aF0.11904761904761904
aF1
aF0.39285714285714285
aF0.095238095238095233
aF1
aF1
aF0.44047619047619047
aF0.39285714285714285
aF0.40476190476190477
aF0
aF0.011904761904761904
aF0.42857142857142855
aF0.10714285714285714
aF0.13095238095238096
aF0.095238095238095233
aF0.011904761904761904
aF0.10714285714285714
aF0.011904761904761904
aF0.39285714285714285
aF0.095238095238095233
aF0.35714285714285715
aF0.39285714285714285
aF1
aF0.38095238095238093
aF0.36904761904761907
aF0.40476190476190477
aF0
aF0
aF0.13095238095238096
aF0.011904761904761904
aF0.011904761904761904
aF0
aF0.095238095238095233
aF0.11904761904761904
aF0.38095238095238093
aF0
aF1
aF0.011904761904761904
aF0.10714285714285714
aF0.38095238095238093
aF1
aF0.13095238095238096
aF0.15476190476190477
aF0.36904761904761907
aF0
aF0.38095238095238093
aF0.011904761904761904
aF0
aF0.011904761904761904
aF0
aF1
aF0.41666666666666669
aF0.38095238095238093
aF0
aF0.45238095238095238
aF0.39285714285714285
aF1
aF0.35714285714285715
aF0
aF1
aF0.095238095238095233
aF0.011904761904761904
aF0.41666666666666669
aF0.42857142857142855
aF0.011904761904761904
aF0.011904761904761904
aF0.36904761904761907
aF0.40476190476190477
aF0.44047619047619047
aF0.10714285714285714
aF0
aF0.083333333333333329
aF0.40476190476190477
aF0.40476190476190477
aF0.39285714285714285
aF0.011904761904761904
aF1
aF0
aF0.10714285714285714
aF0
aF1
aF1
aF0.10714285714285714
aF0.41666666666666669
aF1
aF0
aF0.40476190476190477
aF0.39285714285714285
aF0.40476190476190477
aF0.10714285714285714
aF0
aF0
aF0
aF0.41666666666666669
aF0.011904761904761904
aF0
aF1
aF0.41666666666666669
aF0.35714285714285715
aF1
aF1
aF1
aF0.095238095238095233
aF0.38095238095238093
aF0.11904761904761904
aF0.39285714285714285
aF0.011904761904761904
aF1
aF0.10714285714285714
aF0.41666666666666669
aF0
aF0.36904761904761907
aF0.059523809523809521
aF0.10714285714285714
aF0.42857142857142855
aF0
aF0.095238095238095233
aF0.39285714285714285
aF0.10714285714285714
aF0.095238095238095233
aF0
aF0.095238095238095233
aF0.38095238095238093
aF0.40476190476190477
aF0
aF0.45238095238095238
aF1
aF0.095238095238095233
aF0.10714285714285714
aF0.11904761904761904
aF1
aF0.40476190476190477
aF0
aF0.36904761904761907
aF0.14285714285714285
aF0.10714285714285714
aF0.011904761904761904
aF0.011904761904761904
aF0.38095238095238093
aF0.011904761904761904
aF0.011904761904761904
aF0.071428571428571425
aF0
aF0.011904761904761904
aF0.11904761904761904
aF1
aF0.36904761904761907
aF0.39285714285714285
aF1
aF0.44047619047619047
aF1
aF0.011904761904761904
aF1
aF0.36904761904761907
aF0.095238095238095233
aF1
aF0.36904761904761907
aF0.11904761904761904
aF0.10714285714285714
aF0.39285714285714285
aF0
aF0.40476190476190477
aF1
aF0.40476190476190477
aF0.40476190476190477
aF1
aF1
aF1
aF0
aa(lp10
F0.125
aF0.375
aF0.5
aF0.375
aF0.5
aF1
aF0.25
aF0.25
aF0.25
aF0.375
aF1
aF1
aF0.375
aF0.5
aF0.125
aF0.625
aF0.25
aF1
aF0.25
aF0.125
aF0.625
aF0.5
aF0.375
aF1
aF0.125
aF0.625
aF1
aF0.625
aF0.5
aF0.125
aF0.25
aF1
aF0.25
aF1
aF0.125
aF0.25
aF0.375
aF0.25
aF0.125
aF0.25
aF0.125
aF0.5
aF0.375
aF0.25
aF0.25
aF0.625
aF0.125
aF0.25
aF0.5
aF0.375
aF0.625
aF1
aF0.375
aF0.25
aF0.5
aF0.25
aF1
aF0.5
aF0.125
aF0.125
aF0.25
aF0.5
aF0.25
aF1
aF0.25
aF1
aF0.125
aF0.25
aF0
aF0.5
aF0.375
aF0.5
aF0.625
aF0.125
aF0.25
aF0.625
aF0.5
aF0.5
aF0.375
aF1
aF0.625
aF0.5
aF0.25
aF1
aF0.5
aF0.125
aF0.125
aF0.125
aF0.125
aF0.625
aF0.625
aF0.375
aF0.625
aF1
aF0.125
aF0.75
aF0.125
aF0.125
aF0.25
aF0.5
aF0.125
aF0.625
aF0.375
aF0.75
aF0.125
aF0.25
aF1
aF0.625
aF0.375
aF1
aF1
aF0.5
aF0.5
aF0.5
aF0.25
aF0
aF0.375
aF0.25
aF0.25
aF0.375
aF0.125
aF0.375
aF0.125
aF0.625
aF0.375
aF0.75
aF0.625
aF1
aF0.625
aF0.625
aF0.5
aF0.125
aF0.125
aF0.25
aF0.125
aF0.125
aF0.125
aF0.25
aF0.25
aF0.625
aF0.125
aF1
aF0.125
aF0.25
aF0.625
aF1
aF0.25
aF0.25
aF0.625
aF0.125
aF0.625
aF0.125
aF0.125
aF0.125
aF0.125
aF1
aF0.5
aF0.625
aF0.125
aF0.5
aF0.5
aF1
aF0.75
aF0.125
aF1
aF0.375
aF0.125
aF0.5
aF0.5
aF0.125
aF0.125
aF0.625
aF0.625
aF0.5
aF0.375
aF0.125
aF0.375
aF0.625
aF0.625
aF0.5
aF0.125
aF1
aF0.125
aF0.375
aF0.25
aF1
aF1
aF0.375
aF0.625
aF1
aF0.125
aF0.5
aF0.625
aF0.625
aF0.375
aF0.125
aF0.125
aF0.25
aF0.625
aF0.125
aF0.125
aF1
aF0.5
aF0.75
aF1
aF1
aF1
aF0.375
aF0.625
aF0.25
aF0.5
aF0.125
aF1
aF0.5
aF0.625
aF0.125
aF0.625
aF0.375
aF0.375
aF0.375
aF0.125
aF0.25
aF0.5
aF0.375
aF0.25
aF0.125
aF0.25
aF0.625
aF0.625
aF0.125
aF0.5
aF1
aF0.375
aF0.25
aF0.25
aF1
aF0.5
aF0.125
aF0.625
aF0.25
aF0.375
aF0.125
aF0.125
aF0.625
aF0.125
aF0.125
aF0.375
aF0.125
aF0.125
aF0.375
aF1
aF0.625
aF0.625
aF1
aF0.5
aF1
aF0.125
aF1
aF0.625
aF0.375
aF1
aF0.625
aF0.25
aF0.375
aF0.625
aF0.125
aF0.625
aF1
aF0.5
aF0.625
aF1
aF1
aF1
aF0.125
aa(lp11
F0.125
aF0.375
aF0.5
aF0.375
aF0.5
aF1
aF0.25
aF0.25
aF0.25
aF0.375
aF1
aF1
aF0.375
aF0.5
aF0.125
aF0.625
aF0.25
aF1
aF0.25
aF0.125
aF0.625
aF0.5
aF0.375
aF1
aF0.125
aF0.625
aF1
aF0.625
aF0.5
aF0.125
aF0.25
aF1
aF0.25
aF1
aF0.125
aF0.25
aF0.375
aF0.25
aF0.125
aF0.25
aF0.125
aF0.5
aF0.375
aF0.25
aF0.25
aF0.625
aF0.125
aF0.25
aF0.5
aF0.375
aF0.625
aF1
aF0.375
aF0.25
aF0.625
aF0.25
aF1
aF0.5
aF0.125
aF0.125
aF0.25
aF0.5
aF0.25
aF1
aF0.25
aF1
aF0.125
aF0.25
aF0
aF0.5
aF0.375
aF0.5
aF0.625
aF0.125
aF0.25
aF0.625
aF0.5
aF0.5
aF0.375
aF1
aF0.625
aF0.5
aF0.25
aF1
aF0.5
aF0.125
aF0.125
aF0.125
aF0.125
aF0.625
aF0.625
aF0.375
aF0.625
aF1
aF0.125
aF0.75
aF0.125
aF0.125
aF0.25
aF0.5
aF0.125
aF0.625
aF0.375
aF0.75
aF0.125
aF0.25
aF1
aF0.625
aF0.375
aF1
aF1
aF0.5
aF0.5
aF0.5
aF0.25
aF0
aF0.375
aF0.25
aF0.25
aF0.375
aF0.125
aF0.375
aF0.125
aF0.625
aF0.375
aF0.75
aF0.625
aF1
aF0.625
aF0.625
aF0.5
aF0.125
aF0.125
aF0.25
aF0.125
aF0.125
aF0.125
aF0.25
aF0.25
aF0.625
aF0.125
aF1
aF0.125
aF0.25
aF0.625
aF1
aF0.25
aF0.25
aF0.625
aF0.125
aF0.625
aF0.125
aF0.125
aF0.125
aF0.125
aF1
aF0.5
aF0.625
aF0.125
aF0.5
aF0.5
aF1
aF0.75
aF0.125
aF1
aF0.375
aF0.125
aF0.5
aF0.5
aF0.125
aF0.125
aF0.625
aF0.625
aF0.5
aF0.375
aF0.125
aF0.375
aF0.625
aF0.625
aF0.5
aF0.125
aF1
aF0.125
aF0.375
aF0.25
aF1
aF1
aF0.375
aF0.625
aF1
aF0.125
aF0.625
aF0.625
aF0.625
aF0.375
aF0.125
aF0.125
aF0.25
aF0.625
aF0.125
aF0.125
aF1
aF0.5
aF0.75
aF1
aF1
aF1
aF0.375
aF0.625
aF0.25
aF0.5
aF0.125
aF1
aF0.5
aF0.625
aF0.125
aF0.625
aF0.375
aF0.375
aF0.375
aF0.125
aF0.25
aF0.5
aF0.375
aF0.25
aF0.125
aF0.25
aF0.625
aF0.625
aF0.125
aF0.5
aF1
aF0.375
aF0.25
aF0.25
aF1
aF0.5
aF0.125
aF0.625
aF0.25
aF0.375
aF0.125
aF0.125
aF0.625
aF0.125
aF0.125
aF0.375
aF0.125
aF0.125
aF0.375
aF1
aF0.625
aF0.625
aF1
aF0.5
aF1
aF0.125
aF1
aF0.625
aF0.375
aF1
aF0.625
aF0.25
aF0.375
aF0.625
aF0.125
aF0.625
aF1
aF0.5
aF0.625
aF1
aF1
aF1
aF0.125
aa(lp12
cnumpy.core.multiarray
scalar
p13
(cnumpy
dtype
p14
(S'f8'
I0
I1
tRp15
(I3
S'<'
NNNI-1
I-1
I0
tbS'\x04\xa3\xb1\x90O\xd7@\xc3'
tRp16
ag13
(g15
S'92\xc4<\xb7\x9f\xcc\xc2'
tRp17
ag13
(g15
S'^\xff\x18+\x1e\x95\xbbB'
tRp18
ag13
(g15
S'\x8c\xdd\xc8\xf4\x9ch\xd1\xc2'
tRp19
ag13
(g15
S'\xb3\xb4f(xV\xc2\xc2'
tRp20
ag13
(g15
S'\x0e\xc7q\x1c\xc7q\xcc\xc2'
tRp21
ag13
(g15
S'.Y\x0b\xcf\xfa\xfb\xe3\xc2'
tRp22
ag13
(g15
S'\x1b\xc7q\x1c\xc7q,\xc3'
tRp23
ag13
(g15
S'\xebt\xabR\x7f\x84\xdeB'
tRp24
ag13
(g15
S'"\xbe\xf4=n\xa6\xc3B'
tRp25
ag13
(g15
S'\x0e\xc7q\x1c\xc7q\xcc\xc2'
tRp26
ag13
(g15
S'\x0e\xc7q\x1c\xc7q\xcc\xc2'
tRp27
ag13
(g15
S'\xfe]Px\x0b9\xc2\xc2'
tRp28
ag13
(g15
S'\xd1\x07\xb4\xe0^q\xdc\xc2'
tRp29
ag13
(g15
S'\xd7\x1fx\x08\xae*\xf7B'
tRp30
ag13
(g15
S'\xbb\x16[\xa9M\xa9\xf3\xc2'
tRp31
ag13
(g15
S'|R"\xf2\x134\xc1\xc2'
tRp32
ag13
(g15
S'\x0e\xc7q\x1c\xc7q\xcc\xc2'
tRp33
ag13
(g15
S'\x9ac\xfdRJK\xe4B'
tRp34
ag13
(g15
S'vor\x12\xf2\xaf\xf3\xc2'
tRp35
ag13
(g15
S"\xf6'\x1c(%\xc2\xe1\xc2"
tRp36
ag13
(g15
S'^\xff\x18+\x1e\x95\xbbB'
tRp37
ag13
(g15
S'Y\t7\xa3\xdb\xa7\xffB'
tRp38
ag13
(g15
S'\x0e\xc7q\x1c\xc7q\xcc\xc2'
tRp39
ag13
(g15
S'\xed\x89\xe4i\x95V\x03\xc3'
tRp40
ag13
(g15
S'\x8a\xcc\x19I\x85\x90\xd6\xc2'
tRp41
ag13
(g15
S'\x0e\xc7q\x1c\xc7q\xcc\xc2'
tRp42
ag13
(g15
S'\xff\xcc\x9aN\xc1q\xdc\xc2'
tRp43
ag13
(g15
S'\xa4k6\x98\x1b\xd6\xd3B'
tRp44
ag13
(g15
S'\x00\x1aM\xf5\x88\xef\xd8B'
tRp45
ag13
(g15
S'\xbb"L\xac>\x99\x0e\xc3'
tRp46
ag13
(g15
S'\x0e\xc7q\x1c\xc7q\xcc\xc2'
tRp47
ag13
(g15
S'\x9f\xc4\x80\xdd0\xa3\xc4\xc2'
tRp48
ag13
(g15
S'\x0e\xc7q\x1c\xc7q\xcc\xc2'
tRp49
ag13
(g15
S'"\xcf\xf8\xd6-.\xf7\xc2'
tRp50
ag13
(g15
S'\xd2\x08\xa1\xfe\xd9\x81\xd1\xc2'
tRp51
ag13
(g15
S'\xdc\xe6\xe5\x89\x8b\x8c\xfe\xc2'
tRp52
ag13
(g15
S')R\xad\x81Yt\xbcB'
tRp53
ag13
(g15
S'I\x8f\x86\xac\xb3\xb4\xdfB'
tRp54
ag13
(g15
S'\xec\xca\x85\xa2\x04w\xe1B'
tRp55
ag13
(g15
S'p[\xb0\xf6>X\x04C'
tRp56
ag13
(g15
S'{_\xfe\xc8\x0c\x82\xc4\xc2'
tRp57
ag13
(g15
S'\xb4*\x01h\xd5\xab\xe2\xc2'
tRp58
ag13
(g15
S'\xe4p\xe1G]\xbb\xdeB'
tRp59
ag13
(g15
S'\x1a\xc7q\x1c\xc7q\xfc\xc2'
tRp60
ag13
(g15
S'\xd8]\xb2\xf4\xae\xe9\x12\xc3'
tRp61
ag13
(g15
S'\x0cun\x9f\xbe\xa1\x15\xc3'
tRp62
ag13
(g15
S'\x96w(5pB\x1c\xc3'
tRp63
ag13
(g15
S'^\xff\x18+\x1e\x95\xbbB'
tRp64
ag13
(g15
S'w\xe1\x80\xce8\x97\xc1\xc2'
tRp65
ag13
(g15
S'N7\xcch4\x96\xb5\xc2'
tRp66
ag13
(g15
S'\x0e\xc7q\x1c\xc7q\xcc\xc2'
tRp67
ag13
(g15
S'\x03\xd4\xa9\xa5R|\nC'
tRp68
ag13
(g15
S'\x1b\xc7q\x1c\xc7q,\xc3'
tRp69
ag13
(g15
S',w\xa99\xea\xf5\xb2\xc2'
tRp70
ag13
(g15
S'\xa2\xcb\x17\xac6[\xd1B'
tRp71
ag13
(g15
S'\x0e\xc7q\x1c\xc7q\xcc\xc2'
tRp72
ag13
(g15
S';>/\xea\xf8_\xc0\xc2'
tRp73
ag13
(g15
S'\xcb9\xdaS\nE\r\xc3'
tRp74
ag13
(g15
S'\xcd\x97\x1e\x9b\x12\xdb\xf0\xc2'
tRp75
ag13
(g15
S'\x1b\xc7q\x1c\xc7q,\xc3'
tRp76
ag13
(g15
S'\xf7o\xd3;\xc9\x9c\xbf\xc2'
tRp77
ag13
(g15
S'\x1b\xc7q\x1c\xc7q,\xc3'
tRp78
ag13
(g15
S'\x0e\xc7q\x1c\xc7q\xcc\xc2'
tRp79
ag13
(g15
S'\xa6\x9aN\\\x9b\x0f\xd1B'
tRp80
ag13
(g15
S'\x0e\xc7q\x1c\xc7q\xcc\xc2'
tRp81
ag13
(g15
S'\x824\xea~l\xaa\xf7\xc2'
tRp82
ag13
(g15
S'\x1b\xc7q\x1c\xc7q,\xc3'
tRp83
ag13
(g15
S'\x9cp\xf0\x8a\xa8\x81\xe9\xc2'
tRp84
ag13
(g15
S'\xdf\x8b\x00\xd2\xcfb\xd4B'
tRp85
ag13
(g15
S'\xd3\xad\x97\xbb\xdf\xc0\xc9B'
tRp86
ag13
(g15
S'\xaeElb\xc9u\xd8B'
tRp87
ag13
(g15
S'\x8c\xab\xca\xf0\xa8[\xc1\xc2'
tRp88
ag13
(g15
S'\xf7P\xb4}\x1a\x1f\xf0\xc2'
tRp89
ag13
(g15
S'\xb9w\xe4\x1b\xe9 \xc1B'
tRp90
ag13
(g15
S'k9aW\x85m\x9e\xc3'
tRp91
ag13
(g15
S'\x0c\xb8\x04\xd5\xa4-\xdfB'
tRp92
ag13
(g15
S'^\xff\x18+\x1e\x95\xbbB'
tRp93
ag13
(g15
S'{\xbd\x1b{\x0f\x19\xe0\xc2'
tRp94
ag13
(g15
S'\x0e\xc7q\x1c\xc7q\xcc\xc2'
tRp95
ag13
(g15
S'\xcb\x15\xee\xd8\x04#\xc1\xc2'
tRp96
ag13
(g15
S'i\x10;Cy*\xbc\xc2'
tRp97
ag13
(g15
S'\x1b\xc7q\x1c\xc7q,\xc3'
tRp98
ag13
(g15
S'\x0e\xc7q\x1c\xc7q\xcc\xc2'
tRp99
ag13
(g15
S'!\x17\xaa\xaa\xefS\xc2B'
tRp100
ag13
(g15
S'u\x00\xb76\x10\x13\xffB'
tRp101
ag13
(g15
S'\x84\xaa@k1n*\xc3'
tRp102
ag13
(g15
S'liXQ*\x88\xd8\xc2'
tRp103
ag13
(g15
S'L`\xb6V{\x7f\xfbB'
tRp104
ag13
(g15
S'\xf3J[y\x8eL\xcc\xc2'
tRp105
ag13
(g15
S'\xb1\xe4!\xce\x88\xbf\xc1\xc2'
tRp106
ag13
(g15
S'\x80v\xdb=\xfe[\xe7\xc2'
tRp107
ag13
(g15
S'T\x88w\x89\xb9\xb3\xb6B'
tRp108
ag13
(g15
S'\x0e\xc7q\x1c\xc7q\xcc\xc2'
tRp109
ag13
(g15
S'\xc4\xf6\xa6$\xe6\xb0\xeb\xc2'
tRp110
ag13
(g15
S'\x90\xff\x0e\x9fM\xa3\x1bC'
tRp111
ag13
(g15
S'0\x15\x1euQN\xdf\xc2'
tRp112
ag13
(g15
S'\xae\xc5#\x87\xeb$\xe0B'
tRp113
ag13
(g15
S'\xec\xff\x03=\xd30\xc0\xc2'
tRp114
ag13
(g15
S'^\xff\x18+\x1e\x95\xbbB'
tRp115
ag13
(g15
S'c=\x95\xd6\x16\xaa\x1aC'
tRp116
ag13
(g15
S'\xf7V\x8fyY}\xec\xc2'
tRp117
ag13
(g15
S"\xb40!\xd7\xf1'\xe2\xc2"
tRp118
ag13
(g15
S'\x90\xff\x0e\x9fM\xa3\x1bC'
tRp119
ag13
(g15
S'\xeb\xfb\x96\n\xa2\x03\xf0B'
tRp120
ag13
(g15
S'U\xb0\x9d\x03\xc6\xae\xddB'
tRp121
ag13
(g15
S'\x0e\xc7q\x1c\xc7q\xcc\xc2'
tRp122
ag13
(g15
S'\x0e~\xf3\xb9dh\xffB'
tRp123
ag13
(g15
S'@\xfd\xb2\x00Z\x8b\x08\xc3'
tRp124
ag13
(g15
S'\x0e\xc7q\x1c\xc7q\xcc\xc2'
tRp125
ag13
(g15
S'\x0e\xc7q\x1c\xc7q\xcc\xc2'
tRp126
ag13
(g15
S't\xb5n\x9a\xffn\xd5B'
tRp127
ag13
(g15
S'\x8a\x08\xac\xda\x00\xde\xf5\xc2'
tRp128
ag13
(g15
S'~\x19\x96$!\x95\xf1\xc2'
tRp129
ag13
(g15
S'\x1b\xc7q\x1c\xc7q,\xc3'
tRp130
ag13
(g15
S'\x80\x85\x1c~|y\x18\xc3'
tRp131
ag13
(g15
S'|\x89\xdc$\xb09\xd9\xc2'
tRp132
ag13
(g15
S'{\xbfR\xa0\xd6\xaf\xc4B'
tRp133
ag13
(g15
S'n-\xc9\x9b\x10\xa9\xed\xc2'
tRp134
ag13
(g15
S'Y<F\xe8i#\xdcB'
tRp135
ag13
(g15
S'4\xf9\xf6\xe1\x02\x9e\xea\xc2'
tRp136
ag13
(g15
S'\xbc(m\xd3\xed\x11\xd2\xc2'
tRp137
ag13
(g15
S'|\x8e\xc4\x1d\xd5\xbe\xf4\xc2'
tRp138
ag13
(g15
S'\xa0@\x10\x92\xa9\x1a\xcf\xc2'
tRp139
ag13
(g15
S'\xa8,\x80_\xba\xf2\xe2\xc2'
tRp140
ag13
(g15
S'\x90\xff\x0e\x9fM\xa3\x1bC'
tRp141
ag13
(g15
S'\xd4\xedq\x00\xde_\xc0\xc2'
tRp142
ag13
(g15
S'\x0e\xc7q\x1c\xc7q\xcc\xc2'
tRp143
ag13
(g15
S'"\xc2\x0c\xad\xa8\xe2\xdd\xc2'
tRp144
ag13
(g15
S'\xc7\x0f%4\xe7P\xd1B'
tRp145
ag13
(g15
S'D\xc1Fv\xf8\xf6\xe1\xc2'
tRp146
ag13
(g15
S'\x0b\xff&\x01+\xc1\xd7B'
tRp147
ag13
(g15
S'\xff\xd8\xb0\xc53\xb3AC'
tRp148
ag13
(g15
S'\x00\x04A\x10\x04A\xd0\xc2'
tRp149
ag13
(g15
S'\x9a\xda\x02\xcb\x7f\xc4\xda\xc2'
tRp150
ag13
(g15
S'\xd5\xa3\x14\xe4\x8a\xd8\xf3\xc2'
tRp151
ag13
(g15
S'e\xf2\x9d\xd7#(\x03C'
tRp152
ag13
(g15
S'\xb7\xb9\x18y>\xc7\xd5B'
tRp153
ag13
(g15
S'ayW\xd1\xa3\xea\xc5B'
tRp154
ag13
(g15
S'\xa5!3M\xc7]\xb5\xc2'
tRp155
ag13
(g15
S'\xdf\xb4\xbbezr\xe8B'
tRp156
ag13
(g15
S'\x0e\xc7q\x1c\xc7q\xcc\xc2'
tRp157
ag13
(g15
S'\xff\xa9\xd5S\xb6O\x0c\xc3'
tRp158
ag13
(g15
S'r6\xfb\x1f\xbf\x8b\xe6B'
tRp159
ag13
(g15
S'$\xbeQ!lv\xd2B'
tRp160
ag13
(g15
S'\x0e\xc7q\x1c\xc7q\xcc\xc2'
tRp161
ag13
(g15
S'\xa2m\xa0\x02.\xe1\xfb\xc2'
tRp162
ag13
(g15
S'\x8e\x82H\xddz\x1a\xd5B'
tRp163
ag13
(g15
S'rz\xfd\xed`*\x93\xc3'
tRp164
ag13
(g15
S'\x99qBL\xfc\xaf\xf9\xc2'
tRp165
ag13
(g15
S'%\xee\x83\xfc\xa9\xd4\xdd\xc2'
tRp166
ag13
(g15
S'\xeet\x8di\xf6\x90\xe5B'
tRp167
ag13
(g15
S'\xb4M{\x9fp\xc6\xebB'
tRp168
ag13
(g15
S'\xf9\x9dk\xa2\xca\xc8\xf8B'
tRp169
ag13
(g15
S'\xbe\x18B\xeaRk\xc5B'
tRp170
ag13
(g15
S'\x0e\xc7q\x1c\xc7q\xcc\xc2'
tRp171
ag13
(g15
S'~P\xde\x9e>\xa3\xc5\xc2'
tRp172
ag13
(g15
S'\x91\xaf\xa8\x07\x9b\x8b\xfa\xc2'
tRp173
ag13
(g15
S'\xd4\xc2\xfd\xf9H\xd4\xf5B'
tRp174
ag13
(g15
S'\x80\xd8\xd8.\xb0\xa4\xbd\xc2'
tRp175
ag13
(g15
S'\x87\xbe\xa5\x8c\x06\x8b\xfeB'
tRp176
ag13
(g15
S'\x0e\xc7q\x1c\xc7q\xcc\xc2'
tRp177
ag13
(g15
S'\x90\xff\x0e\x9fM\xa3\x1bC'
tRp178
ag13
(g15
S'\x8d\xcdb\x07\xf0\xa3\xf5\xc2'
tRp179
ag13
(g15
S'\x0e\xc7q\x1c\xc7q\xcc\xc2'
tRp180
ag13
(g15
S'\xe1\xd6\xb14\x92\xbe\x13\xc3'
tRp181
ag13
(g15
S'\x93\xb2RSa\xaeA\xc3'
tRp182
ag13
(g15
S'R\x13\x1f\x17Iy\xcd\xc2'
tRp183
ag13
(g15
S'<z\x1a#\xf8U\x07\xc3'
tRp184
ag13
(g15
S'\xb7\xd1\x97f\x10n\xf1\xc2'
tRp185
ag13
(g15
S'>F\xfc`?{#\xc3'
tRp186
ag13
(g15
S'\x1a`z\xa0\xb6\x9b\xd0B'
tRp187
ag13
(g15
S'\xf7j/\xca\xd6Y\xb8B'
tRp188
ag13
(g15
S'\x19a\x870X\xe9\xf2\xc2'
tRp189
ag13
(g15
S'\xe0\xe9\xd6\xfc\xb0H9C'
tRp190
ag13
(g15
S'\xaem!\x15]\xc3\xec\xc2'
tRp191
ag13
(g15
S'\x8f2C\xe6Xm\xcaB'
tRp192
ag13
(g15
S'\xa1N\xa9W\x19F\xc0\xc2'
tRp193
ag13
(g15
S'$Rz\x8a\x02\xc8\xb6\xc2'
tRp194
ag13
(g15
S'\xbf\xab\x8a\xd0J\xdb\xe0B'
tRp195
ag13
(g15
S'\x1a\x87\n(\x189\xf2B'
tRp196
ag13
(g15
S'\x0e\xc7q\x1c\xc7q\xcc\xc2'
tRp197
ag13
(g15
S'/\xb6\x18>\xa5\x11"\xc3'
tRp198
ag13
(g15
S'\x12\x15\xbe2\xbc\x1b\xe1B'
tRp199
ag13
(g15
S'\x1b\xc7q\x1c\xc7q,\xc3'
tRp200
ag13
(g15
S'\x0e\xc7q\x1c\xc7q\xcc\xc2'
tRp201
ag13
(g15
S'\x0e\xc7q\x1c\xc7q\xcc\xc2'
tRp202
ag13
(g15
S'72\x13\xe7\xa1\xdb\xd0B'
tRp203
ag13
(g15
S'\x06\x17\x86f\x07\xd7\xc8\xc2'
tRp204
ag13
(g15
S'\x0e\xc7q\x1c\xc7q\xcc\xc2'
tRp205
ag13
(g15
S'\x84r\xad\x1f\x9aG\xddB'
tRp206
ag13
(g15
S'\xa9\xfdT\x7f\x97\xc8\x01\xc3'
tRp207
ag13
(g15
S'\xdd\xc0j\n\xe0\x1c\xca\xc2'
tRp208
ag13
(g15
S'm\xa8\x88x\x13?\xc4B'
tRp209
ag13
(g15
S'0\x0b\xbc=I\xfb\x1d\xc3'
tRp210
ag13
(g15
S'\xbe\x98\xe6ow\xf3\xe5B'
tRp211
ag13
(g15
S'\xba\xe5\x9c\xdc\x0c{\x00C'
tRp212
ag13
(g15
S'\x1b\xc7q\x1c\xc7q,\xc3'
tRp213
ag13
(g15
S'\x92\xb9\xcc{a\xba\xe7\xc2'
tRp214
ag13
(g15
S'\xe1\xecN\xf7L\xc2\xeaB'
tRp215
ag13
(g15
S'vor\x12\xf2\xaf\xf3\xc2'
tRp216
ag13
(g15
S'\x0e\xc7q\x1c\xc7q\xcc\xc2'
tRp217
ag13
(g15
S'\x97\xfcH\x7f\x8b9\xf1B'
tRp218
ag13
(g15
S'\x90\xff\x0e\x9fM\xa3\x1bC'
tRp219
ag13
(g15
S'\x0e\xc7q\x1c\xc7q\xcc\xc2'
tRp220
ag13
(g15
S'\x0e\xc7q\x1c\xc7q\xcc\xc2'
tRp221
ag13
(g15
S'\x0e\xc7q\x1c\xc7q\xcc\xc2'
tRp222
ag13
(g15
S'\x11\x04A\x10\x04A\x00C'
tRp223
ag13
(g15
S'\xcc\x84w\xe6\x94d\xd4\xc2'
tRp224
ag13
(g15
S'\xc3\xb4\xcc\xcfI\x8d\xdbB'
tRp225
ag13
(g15
S'\x80\x08#\x83\x17\xca\xbd\xc2'
tRp226
ag13
(g15
S'\x99G\xc9\xa8P\xf3\xfe\xc2'
tRp227
ag13
(g15
S'\x0e\xc7q\x1c\xc7q\xcc\xc2'
tRp228
ag13
(g15
S'^\xff\x18+\x1e\x95\xbbB'
tRp229
ag13
(g15
S'\xa7\xfe\x9c\xf8\x0f\x9b\xd2B'
tRp230
ag13
(g15
S"|\x90\xba\xb4'\xbb\xf1\xc2"
tRp231
ag13
(g15
S'B<-,1\xc5\xddB'
tRp232
ag13
(g15
S'\xd9\x94\x1e\x95\x84m\xe0B'
tRp233
ag13
(g15
S'\xdd\x82\x9c\xe8N\x81\xd9\xc2'
tRp234
ag13
(g15
S"'\xa62\x08+\xd9\xb6B"
tRp235
ag13
(g15
S'\xcc\xe6\x1d\xf9\xe6B\x10\xc3'
tRp236
ag13
(g15
S'\x9c\xd8i\xe1|\x92\x13\xc3'
tRp237
ag13
(g15
S'\x92?\xf4\x15\x9c\xef\xccB'
tRp238
ag13
(g15
S'(\xcc4\x88\xa7\x98\xbaB'
tRp239
ag13
(g15
S'q/\xa1\xbd\x84\xf6\xe2B'
tRp240
ag13
(g15
S'\xeb}\x17\xb9~\x1d\xfcB'
tRp241
ag13
(g15
S'\xb3\xdeG.\x8ew\xe1B'
tRp242
ag13
(g15
S'~-v\xa8\xbb\x99\xc2\xc2'
tRp243
ag13
(g15
S'\xe4\xa6\x13\x91/\x07\xf7\xc2'
tRp244
ag13
(g15
S'}*\xf9\xd4~\xe1\x10C'
tRp245
ag13
(g15
S'\x92^\xe8\x143\xce\x13\xc3'
tRp246
ag13
(g15
S'\x0e\xc7q\x1c\xc7q\xcc\xc2'
tRp247
ag13
(g15
S'HPn3\xba\xde\xca\xc2'
tRp248
ag13
(g15
S'@{\xd0\xbf\xae\x1c\xc9\xc2'
tRp249
ag13
(g15
S'\xcf\xf0\xcc\x1e\x1d\xd6\xd8B'
tRp250
ag13
(g15
S'\x0e\xc7q\x1c\xc7q\xcc\xc2'
tRp251
ag13
(g15
S'7\xf3\x7f\x8f\xc6\xb1\xc5\xc2'
tRp252
ag13
(g15
S'`\x9b\xf05\x8d\xb9\xfeB'
tRp253
ag13
(g15
S'=\x8b%\x02Tk\xd7B'
tRp254
ag13
(g15
S'P\x11\xd0\x01~\t\xd8\xc2'
tRp255
ag13
(g15
S'\xe2?:=\xfbS\xc8B'
tRp256
ag13
(g15
S'7\x88\xe9]3\xd1\xf7\xc2'
tRp257
ag13
(g15
S'W\xfd+\x0c.\x99\x13C'
tRp258
ag13
(g15
S'\xd2\xd5\x17\x1f\xde\xef\xc8\xc2'
tRp259
ag13
(g15
S'X\xdf7\xd16\x06\x06\xc3'
tRp260
ag13
(g15
S'0\x0b\x01\x0c\x8a\xb3\x00\xc3'
tRp261
ag13
(g15
S'\xc4\xd1\xe6Z\x9b\x04\xce\xc2'
tRp262
ag13
(g15
S'\x00\x85X\x049_\xf2\xc2'
tRp263
ag13
(g15
S'\xb8D\xf5\xc2\xadf\xd9B'
tRp264
ag13
(g15
S"'\x8a\xc8\x00\xe9z\xd2\xc2"
tRp265
ag13
(g15
S'\x0e\xc7q\x1c\xc7q\xcc\xc2'
tRp266
ag13
(g15
S'\xa9&N\x83\x82\xd7\xa2\xc3'
tRp267
ag13
(g15
S'\xae\xdb2\xafj\xdf\xf2B'
tRp268
ag13
(g15
S'\x0e\xc7q\x1c\xc7q\xcc\xc2'
tRp269
ag13
(g15
S'\xf2A\xe6o\x08\x88\xffB'
tRp270
ag13
(g15
S'\x0e\xc7q\x1c\xc7q\xcc\xc2'
tRp271
ag13
(g15
S"`\xb1\x01p\x8a\x14'C"
tRp272
ag13
(g15
S'\x0e\xc7q\x1c\xc7q\xcc\xc2'
tRp273
ag13
(g15
S'\xcc\xb3d\xc2\xb9\x02\xcf\xc2'
tRp274
ag13
(g15
S'SF\xd2@{\x96"\xc3'
tRp275
ag13
(g15
S'\x0e\xc7q\x1c\xc7q\xcc\xc2'
tRp276
ag13
(g15
S'\x04[\x93\xca%\x87\xd8B'
tRp277
ag13
(g15
S'H}Ca4\xa6\xc6B'
tRp278
ag13
(g15
S'\xfa\x95\xc6\xf9\xe3\xcc\xd2\xc2'
tRp279
ag13
(g15
S'\xa5Yf7\xea\xd3\xd8\xc2'
tRp280
ag13
(g15
S'U\x93t\x9b\xe3*\xd3\xc2'
tRp281
ag13
(g15
S'}0\xe5\xbd\xa8P\xdaB'
tRp282
ag13
(g15
S'\x0e\xc7q\x1c\xc7q\xcc\xc2'
tRp283
ag13
(g15
S'\xf3ug\xfa\x1b\r%\xc3'
tRp284
ag13
(g15
S"'\xf6\xfdB|\x14\x11C"
tRp285
ag13
(g15
S'\x0e\xc7q\x1c\xc7q\xcc\xc2'
tRp286
ag13
(g15
S'\x0e\xc7q\x1c\xc7q\xcc\xc2'
tRp287
ag13
(g15
S'\x0e\xc7q\x1c\xc7q\xcc\xc2'
tRp288
ag13
(g15
S'\xe3\x1e\xe4\xd8\x94\x95\xd5\xc2'
tRp289
aa.