(lp1
(lp2
I0
aI0
aa(lp3
F0
aF0
aa(lp4
I0
aI0
aa(lp5
F1
aI0
aa(lp6
cnumpy.core.multiarray
scalar
p7
(cnumpy
dtype
p8
(S'f8'
I0
I1
tRp9
(I3
S'<'
NNNI-1
I-1
I0
tbS'\x00\x00\x00\x00\x00\x00\xf8\xff'
tRp10
aI0
aa(lp11
I1
aI0
aa(lp12
F1
aI0
aa(lp13
I0
aI0
aa(lp14
I1
aI0
aa(lp15
I1
aI0
aa(lp16
g7
(g9
S'\x00\x00\x00\x00\x00\x00\xf0\x7f'
tRp17
aI0
aa.