(lp1
(lp2
F1
aI0
aI0
aI0
aa(lp3
F1
aF0
aF0
aF0
aa(lp4
I0
aI0
aI0
aI0
aa(lp5
F1
aF1.3333333333333333
aF1
aI0
aa(lp6
cnumpy.core.multiarray
scalar
p7
(cnumpy
dtype
p8
(S'f8'
I0
I1
tRp9
(I3
S'<'
NNNI-1
I-1
I0
tbS'\x00\x00\x00\x00\x00\x00\xf8\xff'
tRp10
ag7
(g9
S'\x00\x00\x00\x00\x00\x00\xf0\xbf'
tRp11
ag7
(g9
S'\x00\x00\x00\x00\x00\x00\xf8\xff'
tRp12
aI0
aa(lp13
I1
aI2
aI1
aI0
aa(lp14
F1
aF0.66666666666666663
aF0.33333333333333331
aI0
aa(lp15
F1
aF0
aF0
aI0
aa(lp16
I2
aI1
aI0
aI0
aa(lp17
I2
aI1
aI0
aI0
aa(lp18
g7
(g9
S'UUUUUU%\xc3'
tRp19
ag7
(g9
S'eO\x9cI\xd7+>C'
tRp20
ag7
(g9
S'\x00\x00\x00\x00\x00\x00\xf0\x7f'
tRp21
aI0
aa.