(lp1
(lp2
F0
aF0
aF0
aF0
aF0
aF0
aF0
aF0
aF0
aF1
aF0
aF0.59999999999999998
aF0
aF0.375
aF0
aF0.25
aF0
aF0
aF0.42857142857142855
aF0
aF0.29999999999999999
aF0
aF0.75
aF0
aF0.54545454545454541
aF0
aF0.40000000000000002
aF0
aF0.42857142857142855
aF0
aF0.59999999999999998
aF0
aF0.47368421052631576
aF0
aF0.5
aF0
aF1
aF0
aF0.59999999999999998
aF0
aF0.5
aF0.59999999999999998
aF0
aF0.33333333333333331
aF0.42857142857142855
aF0
aF0.75
aF0.75
aF0.375
aF0
aF0.375
aF0.42857142857142855
aF0.5
aF0
aF0.5
aF0.27272727272727271
aF0.52941176470588236
aF1
aF0.80000000000000004
aF0.46153846153846156
aF0.63157894736842102
aF0
aF0
aF0.33333333333333331
aF0.59999999999999998
aF0.33333333333333331
aF0.6428571428571429
aF0
aF0.46153846153846156
aF0.25
aF0.5
aF0.66666666666666663
aF0.78947368421052633
aF0.375
aF0.65217391304347827
aF0
aF0.375
aF0.52941176470588236
aF0.52941176470588236
aF0.20000000000000001
aF0.54545454545454541
aF0.29999999999999999
aF0.6428571428571429
aF0.27272727272727271
aF0
aF0.29999999999999999
aF0.40000000000000002
aF0.5
aF0.27272727272727271
aF0.5625
aF0
aF0.40000000000000002
aF0.5714285714285714
aF0.5714285714285714
aF0.45000000000000001
aF0.66666666666666663
aF0.46153846153846156
aF0.66666666666666663
aF0
aF0.375
aF0.54545454545454541
aF0.68181818181818177
aF0.875
aF0.5714285714285714
aF0.75
aF0.40000000000000002
aF0
aF0.45000000000000001
aF0.31578947368421051
aF0.57692307692307687
aF0.72727272727272729
aF0.47999999999999998
aF0
aF0.375
aF0.58064516129032262
aF0.76923076923076927
aF1
aF1
aF0.59999999999999998
aF0.54545454545454541
aF0.75
aF0.59999999999999998
aF0.7142857142857143
aF0.59999999999999998
aF0.42857142857142855
aF0.59999999999999998
aF0.7142857142857143
aF0.47368421052631576
aF0.69230769230769229
aF0.5
aF0.75
aF1
aF0.77777777777777779
aF0.88235294117647056
aF0.69230769230769229
aF0.59999999999999998
aF0.75
aF0.84615384615384615
aF0.42857142857142855
aF0.21428571428571427
aF0.47368421052631576
aF0.59999999999999998
aF0.33333333333333331
aF0.59999999999999998
aF0.5
aF0.67741935483870963
aF0.78947368421052633
aF0.8666666666666667
aF0.59999999999999998
aF0.67741935483870963
aF0.59999999999999998
aF0.72972972972972971
aF0.66666666666666663
aF0.81818181818181823
aF0.92307692307692313
aF1
aa(lp3
F0
aF0
aF0
aF0
aF0
aF0
aF0
aF0
aF0
aF0.5
aF0
aF0.3888888888888889
aF0
aF0.3611111111111111
aF0
aF0.35000000000000003
aF0
aF0
aF0.27777777777777773
aF0
aF0.25
aF0
aF0.55555555555555547
aF0
aF0.5
aF0
aF0.4777777777777778
aF0
aF0.44444444444444448
aF0
aF0.66666666666666663
aF0
aF0.6333333333333333
aF0
aF0.80000000000000016
aF0
aF0.5
aF0
aF0.3888888888888889
aF0
aF0.3888888888888889
aF0.72222222222222221
aF0
aF0.3611111111111111
aF0.70000000000000007
aF0
aF0.55555555555555547
aF0.5
aF0.3888888888888889
aF0
aF0.27777777777777773
aF0.3888888888888889
aF0.61111111111111116
aF0
aF0.5
aF0.3611111111111111
aF0.82777777777777783
aF0.66666666666666663
aF0.58333333333333337
aF0.41666666666666657
aF0.54999999999999993
aF0
aF0
aF0.16666666666666666
aF0.44444444444444442
aF0.27777777777777773
aF0.63888888888888884
aF0
aF0.3888888888888889
aF0.25
aF0.60555555555555551
aF0.5
aF0.72222222222222221
aF0.30555555555555552
aF0.6777777777777777
aF0
aF0.44444444444444448
aF0.58333333333333337
aF0.55555555555555547
aF0.25
aF0.76111111111111107
aF0.27777777777777779
aF0.83333333333333337
aF0.27777777777777773
aF0
aF0.27777777777777773
aF0.50000000000000011
aF0.33333333333333331
aF0.16666666666666666
aF0.52777777777777779
aF0
aF0.3888888888888889
aF0.73333333333333328
aF0.75
aF0.47222222222222227
aF0.80555555555555547
aF0.33333333333333331
aF0.55555555555555547
aF0
aF0.27777777777777773
aF0.51111111111111107
aF0.63888888888888884
aF0.75
aF0.5
aF0.69444444444444453
aF0.33333333333333331
aF0
aF0.44444444444444442
aF0.27777777777777773
aF0.66666666666666663
aF0.83888888888888891
aF0.44444444444444442
aF0
aF0.33333333333333331
aF0.59999999999999998
aF0.85000000000000009
aF1
aF0.66666666666666663
aF0.77777777777777768
aF0.44444444444444442
aF0.58333333333333337
aF0.77777777777777768
aF0.90000000000000002
aF0.5
aF0.55555555555555558
aF0.72222222222222221
aF0.61111111111111105
aF0.55555555555555558
aF0.80555555555555547
aF0.55555555555555558
aF0.86666666666666659
aF0.83333333333333337
aF0.66666666666666663
aF0.76666666666666661
aF0.77777777777777768
aF0.52777777777777779
aF0.8222222222222223
aF0.90000000000000002
aF0.33333333333333331
aF0.16666666666666666
aF0.41666666666666669
aF0.63888888888888884
aF0.33333333333333331
aF0.66666666666666663
aF0.5
aF0.71111111111111092
aF0.84444444444444455
aF0.89999999999999991
aF0.55555555555555547
aF0.58333333333333337
aF0.61111111111111105
aF0.72777777777777775
aF0.66666666666666663
aF0.8222222222222223
aF0.93333333333333346
aF1
aa(lp4
F0
aF0
aF0
aF0
aF0
aF0
aF0
aF0
aF0
aF0
aF0
aF0
aF0
aF0
aF0
aF0
aF0
aF0
aF0
aF0
aF0
aF0.66666666666666663
aF0.66666666666666663
aF0.66666666666666663
aF0.66666666666666663
aF0.66666666666666663
aF0.66666666666666663
aF0.5
aF0.5
aF0.83333333333333337
aF0.83333333333333337
aF0.83333333333333337
aF0.83333333333333337
aF1
aF1
aF0
aF0
aF0
aF0
aF0
aF0
aF0
aF0
aF0
aF0
aF0.66666666666666663
aF0.66666666666666663
aF0
aF0
aF0
aF0
aF0
aF0
aF0.55555555555555558
aF0.53333333333333333
aF0.53333333333333333
aF0.51851851851851849
aF0.66666666666666663
aF0.66666666666666663
aF0.44444444444444442
aF0.66666666666666663
aF0
aF0
aF0
aF0.5
aF0.5
aF0.75
aF0.66666666666666663
aF0.47222222222222227
aF0.5
aF0.75
aF0.58333333333333337
aF0.83333333333333337
aF0.6333333333333333
aF0.83333333333333337
aF0.27777777777777773
aF0.66666666666666663
aF0.59444444444444444
aF0.70000000000000007
aF0.68333333333333324
aF0.91666666666666663
aF0.80952380952380965
aF1
aF0.375
aF0
aF0
aF0.27380952380952378
aF0.41666666666666669
aF0.41666666666666669
aF0.61428571428571421
aF0.88888888888888884
aF0.69444444444444453
aF0.83712121212121204
aF0.55000000000000004
aF0.6958333333333333
aF0.93518518518518523
aF0.66666666666666663
aF0.75
aF0.83333333333333337
aF0.63888888888888895
aF0.75
aF0.72222222222222232
aF0.83333333333333337
aF0.66666666666666663
aF0.83333333333333337
aF0.53333333333333333
aF1
aF0.83333333333333337
aF0.73888888888888893
aF0.90476190476190477
aF1
aF0.80219780219780235
aF1
aF0.83333333333333337
aF0.90476190476190477
aF1
aF0
aF0.66666666666666663
aF0
aF0.3666666666666667
aF0.55555555555555558
aF0.29629629629629628
aF0.53333333333333333
aF0.75
aF0.16666666666666666
aF0.68055555555555547
aF0.68518518518518512
aF0.37222222222222223
aF0.86309523809523814
aF0.48571428571428571
aF0.90476190476190477
aF0.83333333333333337
aF0.73333333333333339
aF0.83333333333333337
aF0.83333333333333337
aF0.76944444444444449
aF0.919047619047619
aF1
aF0.14999999999999999
aF0.42777777777777776
aF0.43888888888888888
aF0.68055555555555547
aF0.39999999999999997
aF0.63409090909090915
aF0.59999999999999998
aF0.85675381263616546
aF0.95833333333333337
aF1
aF0.77777777777777768
aF0.84615384615384626
aF0.68424908424908437
aF0.8852258852258853
aF0.7142857142857143
aF0.93939393939393945
aF1
aF1
aa(lp5
F0
aF0.42857142857142855
aF0.5714285714285714
aF0.64285714285714279
aF0.68571428571428572
aF0.7142857142857143
aF0.42857142857142855
aF0.5714285714285714
aF0.64285714285714279
aF0.42857142857142855
aF0.7142857142857143
aF0.5714285714285714
aF0.77142857142857135
aF0.64285714285714279
aF0.79999999999999993
aF0.68571428571428572
aF0.5714285714285714
aF0.82857142857142851
aF0.68571428571428572
aF0.91428571428571426
aF0.74285714285714288
aF0.5714285714285714
aF0.5
aF0.68571428571428572
aF0.59999999999999998
aF0.74285714285714288
aF0.65714285714285714
aF0.79999999999999993
aF0.68571428571428572
aF0.59999999999999998
aF0.55714285714285716
aF0.68571428571428572
aF0.62857142857142845
aF0.62857142857142845
aF0.59999999999999998
aF0.42857142857142855
aF0.42857142857142855
aF0.7142857142857143
aF0.5714285714285714
aF0.8571428571428571
aF0.72857142857142854
aF0.59999999999999998
aF0.88571428571428579
aF0.77142857142857135
aF0.65714285714285714
aF0.5714285714285714
aF0.5
aF0.42857142857142855
aF0.79999999999999993
aF1
aF0.82857142857142851
aF0.88571428571428579
aF0.7142857142857143
aF0.82857142857142851
aF0.74285714285714288
aF0.7142857142857143
aF0.62857142857142845
aF0.42857142857142855
aF0.55714285714285716
aF0.7142857142857143
aF0.62857142857142845
aF0.64285714285714279
aF0.74285714285714288
aF0.77142857142857135
aF0.64285714285714279
aF0.59999999999999998
aF0.55714285714285716
aF0.77142857142857135
aF0.7142857142857143
aF0.68571428571428572
aF0.62857142857142845
aF0.65714285714285714
aF0.51428571428571423
aF0.65714285714285714
aF0.59999999999999998
aF0.65714285714285714
aF0.62857142857142845
aF0.65714285714285714
aF0.68571428571428572
aF0.62857142857142845
aF0.59999999999999998
aF0.59999999999999998
aF0.5714285714285714
aF0.7142857142857143
aF0.77142857142857135
aF0.68571428571428572
aF0.62857142857142845
aF0.77142857142857135
aF0.7142857142857143
aF0.68571428571428572
aF0.7142857142857143
aF0.65714285714285714
aF0.59999999999999998
aF0.59999999999999998
aF0.59999999999999998
aF0.5714285714285714
aF0.55714285714285716
aF0.51428571428571423
aF0.7142857142857143
aF0.65714285714285714
aF0.59999999999999998
aF0.62857142857142845
aF0.47142857142857142
aF0.62857142857142845
aF0.5714285714285714
aF0.68571428571428572
aF0.65714285714285714
aF0.62857142857142845
aF0.59999999999999998
aF0.5714285714285714
aF0.54285714285714282
aF0.5714285714285714
aF0.59999999999999998
aF0.5714285714285714
aF0.54285714285714282
aF0.51428571428571423
aF0.42857142857142855
aF0.42857142857142855
aF0.77142857142857135
aF0.79999999999999993
aF0.7142857142857143
aF0.68571428571428572
aF0.59999999999999998
aF0.59999999999999998
aF0.65714285714285714
aF0.62857142857142845
aF0.65714285714285714
aF0.59999999999999998
aF0.5714285714285714
aF0.5714285714285714
aF0.54285714285714282
aF0.42857142857142855
aF0.59999999999999998
aF0.54285714285714282
aF0.59999999999999998
aF0.5714285714285714
aF0.54285714285714282
aF0.51428571428571423
aF0.62857142857142845
aF0.62857142857142845
aF0.59999999999999998
aF0.5714285714285714
aF0.59999999999999998
aF0.5714285714285714
aF0.5714285714285714
aF0.54285714285714282
aF0.51428571428571423
aF0.48571428571428565
aF0.54285714285714282
aF0.54285714285714282
aF0.54285714285714282
aF0.51428571428571423
aF0.51428571428571423
aF0.48571428571428565
aF0.45714285714285713
aF0.42857142857142855
aa(lp6
cnumpy.core.multiarray
scalar
p7
(cnumpy
dtype
p8
(S'f8'
I0
I1
tRp9
(I3
S'<'
NNNI-1
I-1
I0
tbS'\x00\x00\x00\x00\x00\x00\x00\x00'
tRp10
ag7
(g9
S'\x00\x00\x00\x00\x00\x00\x00\x00'
tRp11
ag7
(g9
S'\x00\x00\x00\x00\x00\x00\xf0\xbf'
tRp12
ag7
(g9
S'\x00\x00\x00\x00\x00\x00\xf0\xbf'
tRp13
ag7
(g9
S'\x00\x00\x00\x00\x00\x00\xf0\xbf'
tRp14
ag7
(g9
S'\x00\x00\x00\x00\x00\x00\xf0\xbf'
tRp15
ag7
(g9
S'\x00\x00\x00\x00\x00\x00\x00\x00'
tRp16
ag7
(g9
S'\xfc\xff\xff\xff\xff\xff\xdf\xbf'
tRp17
ag7
(g9
S'333333\xe3\xbf'
tRp18
ag7
(g9
S'\x00\x00\x00\x00\x00\x00\x00\x00'
tRp19
ag7
(g9
S'\xea\xff\xff\xff\xff\xff\xdf\xbf'
tRp20
ag7
(g9
S'\xb7m\xdb\xb6m\xdb\xe6\xbf'
tRp21
ag7
(g9
S'UUUUUU\xe5\xbf'
tRp22
ag7
(g9
S'v\x1c\xc7q\x1c\xc7\xe9\xbf'
tRp23
ag7
(g9
S'\x83\xd3\x9b\xde\xf4\xa6\xe7\xbf'
tRp24
ag7
(g9
S'\xb6\xaa\xaa\xaa\xaa\xaa\xea\xbf'
tRp25
ag7
(g9
S'\x00\x00\x00\x00\x00\x00\xf0\xbf'
tRp26
ag7
(g9
S'_UUUUU\xe5\xbf'
tRp27
ag7
(g9
S'\x19\x00\x00\x00\x00\x00\xe2\xbf'
tRp28
ag7
(g9
S'[UUUUU\xe5\xbf'
tRp29
ag7
(g9
S'\xc1\xf5(\\\x8f\xc2\xe5\xbf'
tRp30
ag7
(g9
S'\x00\x00\x00\x00\x00\x00\x00\x00'
tRp31
ag7
(g9
S'\xc2UUUUU\xe5\xbf'
tRp32
ag7
(g9
S'kUUUUU\xe5\xbf'
tRp33
ag7
(g9
S'\xb2m\xdb\xb6m\xdb\xe6\xbf'
tRp34
ag7
(g9
S'ywwwww\xe7\xbf'
tRp35
ag7
(g9
S"\x1a\x88\x0b5'\x81\xe8\xbf"
tRp36
ag7
(g9
S'\x86\x99\x99\x99\x99\x99\xe9\xbf'
tRp37
ag7
(g9
S'nfffff\xe6\xbf'
tRp38
ag7
(g9
S'\x00\x00\x00\x00\x00\x00\xf0\xbf'
tRp39
ag7
(g9
S'\x00\x00\x00\x00\x00\x00\xe8\xbf'
tRp40
ag7
(g9
S'\xca\xbb\xbb\xbb\xbb\xbb\xeb\xbf'
tRp41
ag7
(g9
S'\x1c\x0e\x87\xc3\xe1p\xe8\xbf'
tRp42
ag7
(g9
S'\x00\x00\x00\x00\x00\x00\xf0\xbf'
tRp43
ag7
(g9
S'\x97\x99\x99\x99\x99\x99\xe9\xbf'
tRp44
ag7
(g9
S'\x00\x00\x00\x00\x00\x00\x00\x00'
tRp45
ag7
(g9
S'\x00\x00\x00\x00\x00\x00\xf0?'
tRp46
ag7
(g9
S'\x00\x00\x00\x00\x00\x00\x00\x00'
tRp47
ag7
(g9
S'\xa5\xaa\xaa\xaa\xaa\xaa\xd5\xbc'
tRp48
ag7
(g9
S'UUUUUU\xd5\xbf'
tRp49
ag7
(g9
S'\xcc\xc7q\x1c\xc7q\xbc\xbf'
tRp50
ag7
(g9
S'\xfc\xff\xff\xff\xff\xff\xdf\xbf'
tRp51
ag7
(g9
S'gUUUUU\xd5\xbf'
tRp52
ag7
(g9
S'\xda\xdd\xdd\xdd\xdd\xdd\xdd\xbf'
tRp53
ag7
(g9
S'\x06\x00\x00\x00\x00\x00\xe4\xbf'
tRp54
ag7
(g9
S'\xe1\xff\xff\xff\xff\xff\xef?'
tRp55
ag7
(g9
S'\x85\x99\x99\x99\x99\x99\xd9?'
tRp56
ag7
(g9
S'H\x00\x00\x00\x00\x00\xd0\xbf'
tRp57
ag7
(g9
S'\xe9\xff\xff\xff\xff\xff\xdf\xbf'
tRp58
ag7
(g9
S'H\x00\x00\x00\x00\x00\xd0\xbf'
tRp59
ag7
(g9
S'\x8a\x99\x99\x99\x99\x99\xc9\xbf'
tRp60
ag7
(g9
S'-\x17]t\xd1E\xb7\xbf'
tRp61
ag7
(g9
S'\x8a\x99\x99\x99\x99\x99\xd9\xbf'
tRp62
ag7
(g9
S'-\x17]t\xd1E\xb7\xbf'
tRp63
ag7
(g9
S'\xbb\xf4I\x9f\xf4I\xcf\xbf'
tRp64
ag7
(g9
S'|\x99\x99\x99\x99\x99\xd9\xbf'
tRp65
ag7
(g9
S'\xeb\x06S\xe4\xb3n\xe0\xbf'
tRp66
ag7
(g9
S'\x00\x00\x00\x00\x00\x00\x00\x00'
tRp67
ag7
(g9
S'\x8e\x1c\xc7q\x1c\xc7\xe1\xbf'
tRp68
ag7
(g9
S'IUUUUU\xe3\xbf'
tRp69
ag7
(g9
S'\xc7\xd0t\x07\xfb\xad\xe6\xbf'
tRp70
ag7
(g9
S'\x00\x00\x00\x00\x00\x00\x00\x00'
tRp71
ag7
(g9
S'Nt\xd1E\x17]\xe4\xbf'
tRp72
ag7
(g9
S'UUUUUU\xd5\xbf'
tRp73
ag7
(g9
S'\x94$I\x92$I\xd2\xbf'
tRp74
ag7
(g9
S'pUUUUU\xd5\xbf'
tRp75
ag7
(g9
S'\xf9\xff\xff\xff\xff\xff\xdf\xbf'
tRp76
ag7
(g9
S'\xe9\xff\xff\xff\xff\xff\xdf\xbf'
tRp77
ag7
(g9
S'EUUUUU\xdd\xbf'
tRp78
ag7
(g9
S'y\x1c\xc7q\x1c\xc7\xe1\xbf'
tRp79
ag7
(g9
S'_B{\t\xed%\xe4\xbf'
tRp80
ag7
(g9
S'\xde\xdd\xdd\xdd\xdd\xdd\xdd\xbf'
tRp81
ag7
(g9
S'\x8c1\xc6\x18c\x8c\xe1\xbf'
tRp82
ag7
(g9
S'333333\xe3\xbf'
tRp83
ag7
(g9
S'Ut\xd1E\x17]\xe4\xbf'
tRp84
ag7
(g9
S'\xe8\xff\xff\xff\xff\xff\xe7\xbf'
tRp85
ag7
(g9
S'\x00\x00\x00\x00\x00\x00\xe0\xbf'
tRp86
ag7
(g9
S'1\x0c\xc30\x0c\xc3\xe0\xbf'
tRp87
ag7
(g9
S'Y\x96eY\x96e\xd9\xbf'
tRp88
ag7
(g9
S'5H\x834H\x83\xe4\xbf'
tRp89
ag7
(g9
S'\xd6\xd2\xd2\xd2\xd2\xd2\xe2\xbf'
tRp90
ag7
(g9
S'\x9c\x99\x99\x99\x99\x99\xe9\xbf'
tRp91
ag7
(g9
S'jUUUUU\xe5\xbf'
tRp92
ag7
(g9
S'~\xe55\x94\xd7P\xde\xbf'
tRp93
ag7
(g9
S'\x00\x00\x00\x00\x00\x00\x00\x00'
tRp94
ag7
(g9
S'\x1cUUUUU\xc5\xbf'
tRp95
ag7
(g9
S'\\\xbe\xe5[\xbe\xe5\xdb\xbf'
tRp96
ag7
(g9
S'\xa9UUUUU\xc5\xbf'
tRp97
ag7
(g9
S'\x96\xaf\xa1\xbc\x86\xf2\xba\xbf'
tRp98
ag7
(g9
S'\x9a\x99\x99\x99\x99\x99\xc9\xbf'
tRp99
ag7
(g9
S'\x1cUUUUU\xc5\xbf'
tRp100
ag7
(g9
S'\x9e\xd8\x89\x9d\xd8\x89\xcd\xbf'
tRp101
ag7
(g9
S'\xcd\\t\xd1E\x17\xdd\xbf'
tRp102
ag7
(g9
S'\xea\xff\xff\xff\xff\xff\xdf\xbf'
tRp103
ag7
(g9
S'0\\\x8f\xc2\xf5(\xdc\xbf'
tRp104
ag7
(g9
S'1\x10\x17jN\x02\xe1\xbf'
tRp105
ag7
(g9
S'\xabVUUUU\xc5\xbf'
tRp106
ag7
(g9
S'UUUUUU\xd5\xbf'
tRp107
ag7
(g9
S'~\xe55\x94\xd7P\xde\xbf'
tRp108
ag7
(g9
S'\x9a\x99\x99\x99\x99\x99\xd9\xbf'
tRp109
ag7
(g9
S'\x1c\x0bY\xc8B\x16\xe2\xbf'
tRp110
ag7
(g9
S'\xcd\x89\x9d\xd8\x89\x9d\xd8\xbf'
tRp111
ag7
(g9
S'\xdc\xff\xff\xff\xff\xff\xdf\xbf'
tRp112
ag7
(g9
S'\xae\x99\x99\x99\x99\x99\xd9\xbf'
tRp113
ag7
(g9
S'\x12\x00\x00\x00\x00\x00\xe2\xbf'
tRp114
ag7
(g9
S'\x11\x11\x11\x11\x11\x11\xb1\xbf'
tRp115
ag7
(g9
S'UUUUUU\xd5\xbf'
tRp116
ag7
(g9
S'\xa5p=\n\xd7\xa3\xd0\xbf'
tRp117
ag7
(g9
S'\xda\x89\x9d\xd8\x89\x9d\xd8\xbf'
tRp118
ag7
(g9
S'\x93g\xa3\xbe\xb3Q\xdf\xbf'
tRp119
ag7
(g9
S'\xa5\xaa\xaa\xaa\xaa\xaa\xe2\xbf'
tRp120
ag7
(g9
S'\x9b\x1c\xc7q\x1c\xc7\xe1\xbf'
tRp121
ag7
(g9
S'\x00\x00\x00\x00\x00\x00\x00\x00'
tRp122
ag7
(g9
S'\xa7\x00\x00\x00\x00\x00\xd0\xbf'
tRp123
ag7
(g9
S'~\x03\x07\x0e\x1c8\xe0\xbf'
tRp124
ag7
(g9
S'333333\xe3\xbf'
tRp125
ag7
(g9
S'\x00\x00\x00\x00\x00\x00\x00\x00'
tRp126
ag7
(g9
S'\xee\xff\xff\xff\xff\xff\xef?'
tRp127
ag7
(g9
S'\x1cUUUUU\xc5\xbf'
tRp128
ag7
(g9
S'X\r\xe55\x94\xd7\xd0?'
tRp129
ag7
(g9
S'\x9a\x99\x99\x99\x99\x99\xc9?'
tRp130
ag7
(g9
S'\x9e\xd8\x89\x9d\xd8\x89\xcd\xbf'
tRp131
ag7
(g9
S'\xff\x16]t\xd1E\xd7\xbf'
tRp132
ag7
(g9
S'\x82\x14\xaeG\xe1z\xb4\xbf'
tRp133
ag7
(g9
S'UUUUUU\xd5\xbf'
tRp134
ag7
(g9
S'\xa5p=\n\xd7\xa3\xd0\xbf'
tRp135
ag7
(g9
S'\x00\x00\x00\x00\x00\x00\x00\x00'
tRp136
ag7
(g9
S'\xda\x89\x9d\xd8\x89\x9d\xd8\xbf'
tRp137
ag7
(g9
S'\x85r\x051\xb9\x82\xd8\xbf'
tRp138
ag7
(g9
S'\xc4UUUUU\xe5\xbf'
tRp139
ag7
(g9
S'\xe0\xdd\xdd\xdd\xdd\xdd\xdd\xbf'
tRp140
ag7
(g9
S'\x00\x00\x00\x00\x00\x00\x00\x00'
tRp141
ag7
(g9
S'D\x97\x96\x96\x96\x96\xc6\xbf'
tRp142
ag7
(g9
S'o\xcak(\xaf\xa1\xdc\xbf'
tRp143
ag7
(g9
S'H\x00\x00\x00\x00\x00\xd0\xbf'
tRp144
ag7
(g9
S'\xe9\xc6q\x1c\xc7q\xbc\xbf'
tRp145
ag7
(g9
S'a/\x90I\xf1\x02\xd9\xbf'
tRp146
ag7
(g9
S'\xef\\t\xd1E\x17\xdd\xbf'
tRp147
ag7
(g9
S'UUUUUU\xd5?'
tRp148
ag7
(g9
S'UUUUUU\xd5\xbf'
tRp149
ag7
(g9
S'2;\xb1\x13;\xb1\xa3\xbf'
tRp150
ag7
(g9
S'UUUUUU\xd5\xbf'
tRp151
ag7
(g9
S'\x00\x00\x00\x00\x00\x00\x00\x00'
tRp152
ag7
(g9
S'\xefUUUUU\xd5\xbf'
tRp153
ag7
(g9
S'\xa7\x00\x00\x00\x00\x00\xd0\xbf'
tRp154
ag7
(g9
S'\xa7l\xd9\xb2e\xcb\xd6\xbf'
tRp155
ag7
(g9
S'k\xe9Moz\xd3\xdb\xbf'
tRp156
ag7
(g9
S'\x8a\xc6q\x1c\xc7q\xdc\xbf'
tRp157
ag7
(g9
S'wUUUUU\xb5?'
tRp158
ag7
(g9
S'\xde\x9a\x99\x99\x99\x99\xb9\xbf'
tRp159
ag7
(g9
S'y\x00\x00\x00\x00\x00\xd8\xbf'
tRp160
ag7
(g9
S'\xbc|g\xa3\xbe\xb3\xd1\xbf'
tRp161
ag7
(g9
S'\x00\x00\x00\x00\x00\x00\x00\x00'
tRp162
ag7
(g9
S'K33333\xd3\xbf'
tRp163
ag7
(g9
S'\x06\x98\x99\x99\x99\x99\xd9\xbf'
tRp164
ag7
(g9
S'\x00\x00\x00\x00\x00\x00\x00\x00'
tRp165
aa(lp166
F0
aF0.20000000000000001
aF0.40000000000000002
aF0.40000000000000002
aF0.40000000000000002
aF0.40000000000000002
aF0.20000000000000001
aF0.40000000000000002
aF0.40000000000000002
aF0.20000000000000001
aF0.59999999999999998
aF0.40000000000000002
aF0.59999999999999998
aF0.40000000000000002
aF0.59999999999999998
aF0.40000000000000002
aF0.40000000000000002
aF0.59999999999999998
aF0.59999999999999998
aF0.80000000000000004
aF0.59999999999999998
aF0.40000000000000002
aF0.40000000000000002
aF0.59999999999999998
aF0.40000000000000002
aF0.59999999999999998
aF0.40000000000000002
aF0.80000000000000004
aF0.59999999999999998
aF0.40000000000000002
aF0.40000000000000002
aF0.59999999999999998
aF0.40000000000000002
aF0.40000000000000002
aF0.40000000000000002
aF0.20000000000000001
aF0.20000000000000001
aF0.59999999999999998
aF0.40000000000000002
aF0.80000000000000004
aF0.59999999999999998
aF0.40000000000000002
aF0.80000000000000004
aF0.59999999999999998
aF0.40000000000000002
aF0.40000000000000002
aF0.40000000000000002
aF0.20000000000000001
aF0.59999999999999998
aF1
aF0.80000000000000004
aF0.80000000000000004
aF0.59999999999999998
aF0.80000000000000004
aF0.59999999999999998
aF0.59999999999999998
aF0.40000000000000002
aF0.20000000000000001
aF0.40000000000000002
aF0.59999999999999998
aF0.40000000000000002
aF0.40000000000000002
aF0.59999999999999998
aF0.59999999999999998
aF0.59999999999999998
aF0.40000000000000002
aF0.40000000000000002
aF0.59999999999999998
aF0.59999999999999998
aF0.59999999999999998
aF0.40000000000000002
aF0.59999999999999998
aF0.40000000000000002
aF0.59999999999999998
aF0.40000000000000002
aF0.40000000000000002
aF0.40000000000000002
aF0.59999999999999998
aF0.59999999999999998
aF0.40000000000000002
aF0.40000000000000002
aF0.40000000000000002
aF0.40000000000000002
aF0.59999999999999998
aF0.59999999999999998
aF0.59999999999999998
aF0.40000000000000002
aF0.80000000000000004
aF0.59999999999999998
aF0.59999999999999998
aF0.59999999999999998
aF0.59999999999999998
aF0.40000000000000002
aF0.40000000000000002
aF0.40000000000000002
aF0.40000000000000002
aF0.40000000000000002
aF0.40000000000000002
aF0.59999999999999998
aF0.59999999999999998
aF0.40000000000000002
aF0.59999999999999998
aF0.40000000000000002
aF0.59999999999999998
aF0.40000000000000002
aF0.59999999999999998
aF0.59999999999999998
aF0.59999999999999998
aF0.40000000000000002
aF0.40000000000000002
aF0.40000000000000002
aF0.40000000000000002
aF0.40000000000000002
aF0.40000000000000002
aF0.40000000000000002
aF0.40000000000000002
aF0.20000000000000001
aF0.20000000000000001
aF0.59999999999999998
aF0.80000000000000004
aF0.59999999999999998
aF0.59999999999999998
aF0.40000000000000002
aF0.40000000000000002
aF0.59999999999999998
aF0.59999999999999998
aF0.59999999999999998
aF0.40000000000000002
aF0.40000000000000002
aF0.40000000000000002
aF0.40000000000000002
aF0.20000000000000001
aF0.59999999999999998
aF0.40000000000000002
aF0.59999999999999998
aF0.40000000000000002
aF0.40000000000000002
aF0.40000000000000002
aF0.40000000000000002
aF0.40000000000000002
aF0.40000000000000002
aF0.40000000000000002
aF0.40000000000000002
aF0.40000000000000002
aF0.40000000000000002
aF0.40000000000000002
aF0.40000000000000002
aF0.40000000000000002
aF0.40000000000000002
aF0.40000000000000002
aF0.40000000000000002
aF0.40000000000000002
aF0.40000000000000002
aF0.40000000000000002
aF0.40000000000000002
aF0.20000000000000001
aa(lp167
F0
aF0.066666666666666666
aF0.13333333333333333
aF0.20000000000000001
aF0.26666666666666666
aF0.33333333333333331
aF0.13333333333333333
aF0.20000000000000001
aF0.26666666666666666
aF0.20000000000000001
aF0.20000000000000001
aF0.26666666666666666
aF0.26666666666666666
aF0.33333333333333331
aF0.33333333333333331
aF0.40000000000000002
aF0.26666666666666666
aF0.33333333333333331
aF0.33333333333333331
aF0.33333333333333331
aF0.40000000000000002
aF0.26666666666666666
aF0.33333333333333331
aF0.33333333333333331
aF0.40000000000000002
aF0.40000000000000002
aF0.46666666666666667
aF0.40000000000000002
aF0.46666666666666667
aF0.40000000000000002
aF0.46666666666666667
aF0.46666666666666667
aF0.53333333333333333
aF0.53333333333333333
aF0.59999999999999998
aF0.20000000000000001
aF0.26666666666666666
aF0.26666666666666666
aF0.33333333333333331
aF0.26666666666666666
aF0.33333333333333331
aF0.40000000000000002
aF0.33333333333333331
aF0.40000000000000002
aF0.46666666666666667
aF0.33333333333333331
aF0.40000000000000002
aF0.33333333333333331
aF0.40000000000000002
aF0.33333333333333331
aF0.40000000000000002
aF0.40000000000000002
aF0.46666666666666667
aF0.40000000000000002
aF0.46666666666666667
aF0.46666666666666667
aF0.53333333333333333
aF0.40000000000000002
aF0.46666666666666667
aF0.46666666666666667
aF0.53333333333333333
aF0.33333333333333331
aF0.40000000000000002
aF0.40000000000000002
aF0.40000000000000002
aF0.40000000000000002
aF0.46666666666666667
aF0.40000000000000002
aF0.46666666666666667
aF0.46666666666666667
aF0.53333333333333333
aF0.53333333333333333
aF0.53333333333333333
aF0.53333333333333333
aF0.59999999999999998
aF0.46666666666666667
aF0.53333333333333333
aF0.53333333333333333
aF0.53333333333333333
aF0.53333333333333333
aF0.59999999999999998
aF0.59999999999999998
aF0.66666666666666663
aF0.46666666666666667
aF0.40000000000000002
aF0.46666666666666667
aF0.53333333333333333
aF0.46666666666666667
aF0.46666666666666667
aF0.53333333333333333
aF0.46666666666666667
aF0.53333333333333333
aF0.59999999999999998
aF0.59999999999999998
aF0.59999999999999998
aF0.66666666666666663
aF0.46666666666666667
aF0.53333333333333333
aF0.46666666666666667
aF0.53333333333333333
aF0.59999999999999998
aF0.59999999999999998
aF0.59999999999999998
aF0.59999999999999998
aF0.66666666666666663
aF0.53333333333333333
aF0.53333333333333333
aF0.59999999999999998
aF0.59999999999999998
aF0.66666666666666663
aF0.73333333333333328
aF0.66666666666666663
aF0.59999999999999998
aF0.66666666666666663
aF0.73333333333333328
aF0.80000000000000004
aF0.40000000000000002
aF0.46666666666666667
aF0.46666666666666667
aF0.46666666666666667
aF0.53333333333333333
aF0.53333333333333333
aF0.59999999999999998
aF0.59999999999999998
aF0.53333333333333333
aF0.59999999999999998
aF0.59999999999999998
aF0.59999999999999998
aF0.66666666666666663
aF0.66666666666666663
aF0.73333333333333328
aF0.66666666666666663
aF0.66666666666666663
aF0.73333333333333328
aF0.66666666666666663
aF0.66666666666666663
aF0.73333333333333328
aF0.80000000000000004
aF0.53333333333333333
aF0.53333333333333333
aF0.59999999999999998
aF0.66666666666666663
aF0.59999999999999998
aF0.66666666666666663
aF0.66666666666666663
aF0.73333333333333328
aF0.80000000000000004
aF0.8666666666666667
aF0.73333333333333328
aF0.73333333333333328
aF0.73333333333333328
aF0.80000000000000004
aF0.80000000000000004
aF0.8666666666666667
aF0.93333333333333335
aF1
aa(lp168
F0
aF0
aF0
aF0
aF0
aF0
aF0
aF0
aF0
aF0.050000000000000003
aF0
aF0.050000000000000003
aF0
aF0.050000000000000003
aF0
aF0.050000000000000003
aF0
aF0
aF0.050000000000000003
aF0
aF0.050000000000000003
aF0
aF0.10000000000000001
aF0
aF0.10000000000000001
aF0
aF0.10000000000000001
aF0
aF0.10000000000000001
aF0
aF0.14999999999999999
aF0
aF0.14999999999999999
aF0
aF0.20000000000000001
aF0
aF0.050000000000000003
aF0
aF0.050000000000000003
aF0
aF0.050000000000000003
aF0.10000000000000001
aF0
aF0.050000000000000003
aF0.10000000000000001
aF0
aF0.10000000000000001
aF0.050000000000000003
aF0.050000000000000003
aF0
aF0.050000000000000003
aF0.050000000000000003
aF0.10000000000000001
aF0
aF0.10000000000000001
aF0.050000000000000003
aF0.14999999999999999
aF0.20000000000000001
aF0.20000000000000001
aF0.10000000000000001
aF0.20000000000000001
aF0
aF0
aF0.050000000000000003
aF0.10000000000000001
aF0.050000000000000003
aF0.14999999999999999
aF0
aF0.10000000000000001
aF0.050000000000000003
aF0.14999999999999999
aF0.20000000000000001
aF0.25
aF0.10000000000000001
aF0.25
aF0
aF0.10000000000000001
aF0.14999999999999999
aF0.14999999999999999
aF0.050000000000000003
aF0.20000000000000001
aF0.10000000000000001
aF0.29999999999999999
aF0.050000000000000003
aF0
aF0.050000000000000003
aF0.10000000000000001
aF0.10000000000000001
aF0.050000000000000003
aF0.14999999999999999
aF0
aF0.10000000000000001
aF0.20000000000000001
aF0.20000000000000001
aF0.14999999999999999
aF0.29999999999999999
aF0.10000000000000001
aF0.20000000000000001
aF0
aF0.10000000000000001
aF0.20000000000000001
aF0.25
aF0.34999999999999998
aF0.20000000000000001
aF0.34999999999999998
aF0.10000000000000001
aF0
aF0.14999999999999999
aF0.10000000000000001
aF0.25
aF0.40000000000000002
aF0.20000000000000001
aF0
aF0.14999999999999999
aF0.29999999999999999
aF0.5
aF0.10000000000000001
aF0.20000000000000001
aF0.10000000000000001
aF0.10000000000000001
aF0.20000000000000001
aF0.14999999999999999
aF0.25
aF0.20000000000000001
aF0.10000000000000001
aF0.20000000000000001
aF0.25
aF0.14999999999999999
aF0.29999999999999999
aF0.20000000000000001
aF0.40000000000000002
aF0.5
aF0.34999999999999998
aF0.5
aF0.29999999999999999
aF0.25
aF0.40000000000000002
aF0.55000000000000004
aF0.10000000000000001
aF0.050000000000000003
aF0.14999999999999999
aF0.25
aF0.10000000000000001
aF0.25
aF0.20000000000000001
aF0.34999999999999998
aF0.5
aF0.65000000000000002
aF0.29999999999999999
aF0.34999999999999998
aF0.29999999999999999
aF0.45000000000000001
aF0.40000000000000002
aF0.59999999999999998
aF0.80000000000000004
aF1
aa(lp169
F0
aF0
aF0
aF0
aF0
aF0.20000000000000001
aF0
aF0
aF0
aF0
aF0
aF0
aF0
aF0
aF0.20000000000000001
aF0.20000000000000001
aF0
aF0.20000000000000001
aF0
aF0.20000000000000001
aF0.20000000000000001
aF0
aF0
aF0
aF0
aF0.20000000000000001
aF0.20000000000000001
aF0.20000000000000001
aF0.20000000000000001
aF0
aF0
aF0.20000000000000001
aF0.20000000000000001
aF0.40000000000000002
aF0.40000000000000002
aF0
aF0
aF0
aF0
aF0
aF0
aF0
aF0.20000000000000001
aF0.20000000000000001
aF0.20000000000000001
aF0
aF0
aF0
aF0.20000000000000001
aF0.20000000000000001
aF0.20000000000000001
aF0.20000000000000001
aF0.20000000000000001
aF0.20000000000000001
aF0.20000000000000001
aF0.20000000000000001
aF0.20000000000000001
aF0
aF0
aF0.20000000000000001
aF0.20000000000000001
aF0
aF0.20000000000000001
aF0.20000000000000001
aF0
aF0
aF0
aF0.20000000000000001
aF0.20000000000000001
aF0.20000000000000001
aF0.20000000000000001
aF0.20000000000000001
aF0
aF0.20000000000000001
aF0.20000000000000001
aF0.40000000000000002
aF0.40000000000000002
aF0.20000000000000001
aF0.20000000000000001
aF0.40000000000000002
aF0.40000000000000002
aF0.40000000000000002
aF0.40000000000000002
aF0.20000000000000001
aF0.40000000000000002
aF0.40000000000000002
aF0.40000000000000002
aF0.20000000000000001
aF0.20000000000000001
aF0.20000000000000001
aF0.40000000000000002
aF0.40000000000000002
aF0.40000000000000002
aF0.40000000000000002
aF0.40000000000000002
aF0.40000000000000002
aF0
aF0
aF0.20000000000000001
aF0.20000000000000001
aF0.20000000000000001
aF0.20000000000000001
aF0
aF0.20000000000000001
aF0.20000000000000001
aF0.20000000000000001
aF0.40000000000000002
aF0.40000000000000002
aF0.40000000000000002
aF0.40000000000000002
aF0.40000000000000002
aF0.40000000000000002
aF0.59999999999999998
aF0.59999999999999998
aF0.59999999999999998
aF0.59999999999999998
aF0
aF0
aF0.20000000000000001
aF0.20000000000000001
aF0.20000000000000001
aF0.20000000000000001
aF0.20000000000000001
aF0.40000000000000002
aF0.40000000000000002
aF0.40000000000000002
aF0.20000000000000001
aF0.40000000000000002
aF0.40000000000000002
aF0.40000000000000002
aF0.40000000000000002
aF0
aF0.20000000000000001
aF0.20000000000000001
aF0.40000000000000002
aF0.40000000000000002
aF0.40000000000000002
aF0.40000000000000002
aF0.40000000000000002
aF0.40000000000000002
aF0.40000000000000002
aF0.59999999999999998
aF0.59999999999999998
aF0.40000000000000002
aF0.59999999999999998
aF0.59999999999999998
aF0.59999999999999998
aF0.59999999999999998
aF0.59999999999999998
aF0.40000000000000002
aF0.59999999999999998
aF0.59999999999999998
aF0.80000000000000004
aF0.80000000000000004
aF0.80000000000000004
aF1
aa(lp170
F0
aF0
aF0
aF0
aF0
aF0.20000000000000001
aF0
aF0
aF0
aF0
aF0
aF0
aF0
aF0
aF0.20000000000000001
aF0.20000000000000001
aF0
aF0.20000000000000001
aF0
aF0.20000000000000001
aF0.20000000000000001
aF0
aF0
aF0
aF0
aF0.20000000000000001
aF0.20000000000000001
aF0.20000000000000001
aF0.20000000000000001
aF0
aF0
aF0.20000000000000001
aF0.20000000000000001
aF0.40000000000000002
aF0.40000000000000002
aF0
aF0
aF0
aF0
aF0
aF0
aF0
aF0.20000000000000001
aF0.20000000000000001
aF0.20000000000000001
aF0
aF0
aF0
aF0.20000000000000001
aF0.20000000000000001
aF0.20000000000000001
aF0.20000000000000001
aF0.20000000000000001
aF0.20000000000000001
aF0.20000000000000001
aF0.40000000000000002
aF0.40000000000000002
aF0
aF0
aF0.20000000000000001
aF0.20000000000000001
aF0
aF0.20000000000000001
aF0.20000000000000001
aF0
aF0
aF0
aF0.20000000000000001
aF0.20000000000000001
aF0.20000000000000001
aF0.20000000000000001
aF0.20000000000000001
aF0
aF0.20000000000000001
aF0.20000000000000001
aF0.40000000000000002
aF0.40000000000000002
aF0.20000000000000001
aF0.20000000000000001
aF0.40000000000000002
aF0.40000000000000002
aF0.40000000000000002
aF0.40000000000000002
aF0.20000000000000001
aF0.40000000000000002
aF0.40000000000000002
aF0.40000000000000002
aF0.20000000000000001
aF0.20000000000000001
aF0.20000000000000001
aF0.40000000000000002
aF0.40000000000000002
aF0.40000000000000002
aF0.40000000000000002
aF0.40000000000000002
aF0.40000000000000002
aF0
aF0
aF0.20000000000000001
aF0.20000000000000001
aF0.20000000000000001
aF0.20000000000000001
aF0
aF0.20000000000000001
aF0.20000000000000001
aF0.20000000000000001
aF0.40000000000000002
aF0.40000000000000002
aF0.40000000000000002
aF0.40000000000000002
aF0.40000000000000002
aF0.40000000000000002
aF0.59999999999999998
aF0.59999999999999998
aF0.59999999999999998
aF0.59999999999999998
aF0
aF0
aF0.20000000000000001
aF0.20000000000000001
aF0.20000000000000001
aF0.40000000000000002
aF0.40000000000000002
aF0.40000000000000002
aF0.40000000000000002
aF0.40000000000000002
aF0.20000000000000001
aF0.40000000000000002
aF0.40000000000000002
aF0.59999999999999998
aF0.59999999999999998
aF0
aF0.20000000000000001
aF0.20000000000000001
aF0.40000000000000002
aF0.40000000000000002
aF0.40000000000000002
aF0.40000000000000002
aF0.40000000000000002
aF0.40000000000000002
aF0.40000000000000002
aF0.59999999999999998
aF0.59999999999999998
aF0.40000000000000002
aF0.59999999999999998
aF0.59999999999999998
aF0.59999999999999998
aF0.59999999999999998
aF0.59999999999999998
aF0.40000000000000002
aF0.59999999999999998
aF0.59999999999999998
aF0.80000000000000004
aF0.80000000000000004
aF0.80000000000000004
aF1
aa(lp171
g7
(g9
S'\x00\x00\x00\x00\x00\x00\x00\x00'
tRp172
ag7
(g9
S'\x00\x00\x00\x00\x00\x00\xf8\xff'
tRp173
ag7
(g9
S'\x00\x00\x00\x00\x00\x00\xf8\xff'
tRp174
ag7
(g9
S'\x00\x00\x00\x00\x00\x00\xf8\xff'
tRp175
ag7
(g9
S'\x00\x00\x00\x00\x00\x00\xf8\xff'
tRp176
ag7
(g9
S'\x00\x00\x00\x00\x00\x00\x00\x80'
tRp177
ag7
(g9
S'\x00\x00\x00\x00\x00\x00\xf8\xff'
tRp178
ag7
(g9
S'\x00\x00\x00\x00\x00\x00\xf8\xff'
tRp179
ag7
(g9
S'\x00\x00\x00\x00\x00\x00\xf8\xff'
tRp180
ag7
(g9
S'\x00\x00\x00\x00\x00\x00\xf8\xff'
tRp181
ag7
(g9
S'\x00\x00\x00\x00\x00\x00\x00\x00'
tRp182
ag7
(g9
S'\x00\x00\x00\x00\x00\x00\x00\x80'
tRp183
ag7
(g9
S'\x00\x00\x00\x00\x00\x00\x00\x00'
tRp184
ag7
(g9
S'\x00\x00\x00\x00\x00\x00\x00\x00'
tRp185
ag7
(g9
S'\x00\x00\x00\x00\x00\x00\x00\x00'
tRp186
ag7
(g9
S'\x00\x00\x00\x00\x00\x00\x00\x00'
tRp187
ag7
(g9
S'\x00\x00\x00\x00\x00\x00\x00\x00'
tRp188
ag7
(g9
S'\x00\x00\x00\x00\x00\x00\x00\x00'
tRp189
ag7
(g9
S'\x00\x00\x00\x00\x00\x00\x00\x00'
tRp190
ag7
(g9
S'\x00\x00\x00\x00\x00\x00\x00\x00'
tRp191
ag7
(g9
S'\x00\x00\x00\x00\x00\x00\x00\x00'
tRp192
ag7
(g9
S'\x00\x00\x00\x00\x00\x00\x00\x80'
tRp193
ag7
(g9
S'\x00\x00\x00\x00\x00\x00\xf8\xff'
tRp194
ag7
(g9
S'\x00\x00\x00\x00\x00\x00\x00\x00'
tRp195
ag7
(g9
S'\x00\x00\x00\x00\x00\x00\x00\x00'
tRp196
ag7
(g9
S'\x00\x00\x00\x00\x00\x00\x00\x80'
tRp197
ag7
(g9
S'\x00\x00\x00\x00\x00\x00\x00\x80'
tRp198
ag7
(g9
S'\x00\x00\x00\x00\x00\x00\x00\x80'
tRp199
ag7
(g9
S'\x00\x00\x00\x00\x00\x00\x00\x80'
tRp200
ag7
(g9
S'\x00\x00\x00\x00\x00\x00\x00\x80'
tRp201
ag7
(g9
S'\x00\x00\x00\x00\x00\x00\x00\x80'
tRp202
ag7
(g9
S'\x00\x00\x00\x00\x00\x00\x00\x00'
tRp203
ag7
(g9
S'\x00\x00\x00\x00\x00\x00\x00\x80'
tRp204
ag7
(g9
S'\x00\x00\x00\x00\x00\x00\x00\x80'
tRp205
ag7
(g9
S'\x00\x00\x00\x00\x00\x00\x00\x00'
tRp206
ag7
(g9
S'\x00\x00\x00\x00\x00\x00\xf8\xff'
tRp207
ag7
(g9
S'\x00\x00\x00\x00\x00\x00\xf8\xff'
tRp208
ag7
(g9
S'\x00\x00\x00\x00\x00\x00\xf8\xff'
tRp209
ag7
(g9
S'\x00\x00\x00\x00\x00\x00\x00\x80'
tRp210
ag7
(g9
S'\x00\x00\x00\x00\x00\x00\x00\x80'
tRp211
ag7
(g9
S'\x00\x00\x00\x00\x00\x00\x00\x80'
tRp212
ag7
(g9
S'\x00\x00\x00\x00\x00\x00\x00\x80'
tRp213
ag7
(g9
S'\x00\x00\x00\x00\x00\x00\x00\x80'
tRp214
ag7
(g9
S'\x00\x00\x00\x00\x00\x00\x00\x00'
tRp215
ag7
(g9
S'\x00\x00\x00\x00\x00\x00\x00\x00'
tRp216
ag7
(g9
S'\x00\x00\x00\x00\x00\x00\xf8\xff'
tRp217
ag7
(g9
S'\x00\x00\x00\x00\x00\x00\xf8\xff'
tRp218
ag7
(g9
S'\x00\x00\x00\x00\x00\x00\x00\x00'
tRp219
ag7
(g9
S'\x00\x00\x00\x00\x00\x00\x00\x00'
tRp220
ag7
(g9
S'\x00\x00\x00\x00\x00\x00\x00\x80'
tRp221
ag7
(g9
S'\x00\x00\x00\x00\x00\x00\x00\x00'
tRp222
ag7
(g9
S'\x00\x00\x00\x00\x00\x00\x00\x80'
tRp223
ag7
(g9
S'\x00\x00\x00\x00\x00\x00\x00\x80'
tRp224
ag7
(g9
S'\x00\x00\x00\x00\x00\x00\x00\x80'
tRp225
ag7
(g9
S'\x00\x00\x00\x00\x00\x00\x00\x00'
tRp226
ag7
(g9
S'\x00\x00\x00\x00\x00\x00\x00\x00'
tRp227
ag7
(g9
S'\x00\x00\x00\x00\x00\x00\x00\x00'
tRp228
ag7
(g9
S'\x00\x00\x00\x00\x00\x00\xf8\xff'
tRp229
ag7
(g9
S'\x00\x00\x00\x00\x00\x00\x00\x00'
tRp230
ag7
(g9
S'\x00\x00\x00\x00\x00\x00\x00\x00'
tRp231
ag7
(g9
S'\x00\x00\x00\x00\x00\x00\xf8\xff'
tRp232
ag7
(g9
S'\x00\x00\x00\x00\x00\x00\x00\x00'
tRp233
ag7
(g9
S'\x00\x00\x00\x00\x00\x00\x00\x80'
tRp234
ag7
(g9
S'\x00\x00\x00\x00\x00\x00\x00\x00'
tRp235
ag7
(g9
S'\x00\x00\x00\x00\x00\x00\x00\x00'
tRp236
ag7
(g9
S'\x00\x00\x00\x00\x00\x00\x00\x00'
tRp237
ag7
(g9
S'\x00\x00\x00\x00\x00\x00\x00\x00'
tRp238
ag7
(g9
S'\x00\x00\x00\x00\x00\x00\x00\x00'
tRp239
ag7
(g9
S'\x00\x00\x00\x00\x00\x00\x00\x00'
tRp240
ag7
(g9
S'\x00\x00\x00\x00\x00\x00\x00\x00'
tRp241
ag7
(g9
S'\x00\x00\x00\x00\x00\x00\x00\x80'
tRp242
ag7
(g9
S'\x00\x00\x00\x00\x00\x00\x00\x80'
tRp243
ag7
(g9
S'\x00\x00\x00\x00\x00\x00\x00\x00'
tRp244
ag7
(g9
S'\x00\x00\x00\x00\x00\x00\x00\x80'
tRp245
ag7
(g9
S'\x00\x00\x00\x00\x00\x00\x00\x00'
tRp246
ag7
(g9
S'\x00\x00\x00\x00\x00\x00\x00\x00'
tRp247
ag7
(g9
S'\x00\x00\x00\x00\x00\x00\x00\x00'
tRp248
ag7
(g9
S'\x00\x00\x00\x00\x00\x00\x00\x00'
tRp249
ag7
(g9
S'\x00\x00\x00\x00\x00\x00\x00\x00'
tRp250
ag7
(g9
S'\x00\x00\x00\x00\x00\x00\x00\x80'
tRp251
ag7
(g9
S'\x00\x00\x00\x00\x00\x00\x00\x00'
tRp252
ag7
(g9
S'\x00\x00\x00\x00\x00\x00\x00\x00'
tRp253
ag7
(g9
S'\x00\x00\x00\x00\x00\x00\x00\x80'
tRp254
ag7
(g9
S'\x00\x00\x00\x00\x00\x00\x00\x80'
tRp255
ag7
(g9
S'\x00\x00\x00\x00\x00\x00\x00\x80'
tRp256
ag7
(g9
S'\x00\x00\x00\x00\x00\x00\x00\x00'
tRp257
ag7
(g9
S'\x00\x00\x00\x00\x00\x00\x00\x80'
tRp258
ag7
(g9
S'\x00\x00\x00\x00\x00\x00\x00\x00'
tRp259
ag7
(g9
S'\x00\x00\x00\x00\x00\x00\x00\x00'
tRp260
ag7
(g9
S'\x00\x00\x00\x00\x00\x00\x00\x80'
tRp261
ag7
(g9
S'\x00\x00\x00\x00\x00\x00\x00\x80'
tRp262
ag7
(g9
S'\x00\x00\x00\x00\x00\x00\x00\x80'
tRp263
ag7
(g9
S'\x00\x00\x00\x00\x00\x00\x00\x00'
tRp264
ag7
(g9
S'\x00\x00\x00\x00\x00\x00\x00\x80'
tRp265
ag7
(g9
S'\x00\x00\x00\x00\x00\x00\x00\x00'
tRp266
ag7
(g9
S'\x00\x00\x00\x00\x00\x00\x00\x00'
tRp267
ag7
(g9
S'\x00\x00\x00\x00\x00\x00\x00\x80'
tRp268
ag7
(g9
S'\x00\x00\x00\x00\x00\x00\x00\x00'
tRp269
ag7
(g9
S'\x00\x00\x00\x00\x00\x00\x00\x00'
tRp270
ag7
(g9
S'\x00\x00\x00\x00\x00\x00\x00\x00'
tRp271
ag7
(g9
S'\x00\x00\x00\x00\x00\x00\x00\x00'
tRp272
ag7
(g9
S'\x00\x00\x00\x00\x00\x00\x00\x80'
tRp273
ag7
(g9
S'\x00\x00\x00\x00\x00\x00\x00\x00'
tRp274
ag7
(g9
S'\x00\x00\x00\x00\x00\x00\x00\x00'
tRp275
ag7
(g9
S'\x00\x00\x00\x00\x00\x00\x00\x00'
tRp276
ag7
(g9
S'\x00\x00\x00\x00\x00\x00\x00\x00'
tRp277
ag7
(g9
S'\x00\x00\x00\x00\x00\x00\x00\x00'
tRp278
ag7
(g9
S'\x00\x00\x00\x00\x00\x00\x00\x00'
tRp279
ag7
(g9
S'\x00\x00\x00\x00\x00\x00\x00\x80'
tRp280
ag7
(g9
S'\x00\x00\x00\x00\x00\x00\x00\x00'
tRp281
ag7
(g9
S'\x00\x00\x00\x00\x00\x00\x00\x00'
tRp282
ag7
(g9
S'\x00\x00\x00\x00\x00\x00\x00\x80'
tRp283
ag7
(g9
S'\x00\x00\x00\x00\x00\x00\x00\x80'
tRp284
ag7
(g9
S'\x00\x00\x00\x00\x00\x00\x00\x00'
tRp285
ag7
(g9
S'\x00\x00\x00\x00\x00\x00\xf8\xff'
tRp286
ag7
(g9
S'\x00\x00\x00\x00\x00\x00\x00\x80'
tRp287
ag7
(g9
S'\x00\x00\x00\x00\x00\x00\x00\x80'
tRp288
ag7
(g9
S'\x00\x00\x00\x00\x00\x00\x00\x00'
tRp289
ag7
(g9
S'\x00\x00\x00\x00\x00\x00\x00\x00'
tRp290
ag7
(g9
S'\x00\x00\x00\x00\x00\x00\x00\x00'
tRp291
ag7
(g9
S'\x00\x00\x00\x00\x00\x00\x00\x00'
tRp292
ag7
(g9
S'\x00\x00\x00\x00\x00\x00\x00\x80'
tRp293
ag7
(g9
S'\x00\x00\x00\x00\x00\x00\x00\x00'
tRp294
ag7
(g9
S'\x00\x00\x00\x00\x00\x00\x00\x80'
tRp295
ag7
(g9
S'\x00\x00\x00\x00\x00\x00\x00\x80'
tRp296
ag7
(g9
S'\x00\x00\x00\x00\x00\x00\x00\x00'
tRp297
ag7
(g9
S'\x00\x00\x00\x00\x00\x00\x00\x80'
tRp298
ag7
(g9
S'\x00\x00\x00\x00\x00\x00\x00\x00'
tRp299
ag7
(g9
S'\x00\x00\x00\x00\x00\x00\x00\x00'
tRp300
ag7
(g9
S'\x00\x00\x00\x00\x00\x00\x00\x00'
tRp301
ag7
(g9
S'\x00\x00\x00\x00\x00\x00\x00\x80'
tRp302
ag7
(g9
S'\x00\x00\x00\x00\x00\x00\xf8\xff'
tRp303
ag7
(g9
S'\x00\x00\x00\x00\x00\x00\x00\x80'
tRp304
ag7
(g9
S'\x00\x00\x00\x00\x00\x00\x00\x80'
tRp305
ag7
(g9
S'\x00\x00\x00\x00\x00\x00\x00\x00'
tRp306
ag7
(g9
S'\x00\x00\x00\x00\x00\x00\x00\x80'
tRp307
ag7
(g9
S'\x00\x00\x00\x00\x00\x00\x00\x00'
tRp308
ag7
(g9
S'\x00\x00\x00\x00\x00\x00\x00\x80'
tRp309
ag7
(g9
S'\x00\x00\x00\x00\x00\x00\x00\x00'
tRp310
ag7
(g9
S'\x00\x00\x00\x00\x00\x00\x00\x80'
tRp311
ag7
(g9
S'\x00\x00\x00\x00\x00\x00\x00\x00'
tRp312
ag7
(g9
S'\x00\x00\x00\x00\x00\x00\x00\x00'
tRp313
ag7
(g9
S'\x00\x00\x00\x00\x00\x00\x00\x00'
tRp314
ag7
(g9
S'\x00\x00\x00\x00\x00\x00\x00\x00'
tRp315
ag7
(g9
S'\x00\x00\x00\x00\x00\x00\x00\x00'
tRp316
ag7
(g9
S'\x00\x00\x00\x00\x00\x00\x00\x00'
tRp317
ag7
(g9
S'\x00\x00\x00\x00\x00\x00\x00\x00'
tRp318
ag7
(g9
S'\x00\x00\x00\x00\x00\x00\x00\x80'
tRp319
ag7
(g9
S'\x00\x00\x00\x00\x00\x00\x00\x00'
tRp320
ag7
(g9
S'\x00\x00\x00\x00\x00\x00\x00\x00'
tRp321
ag7
(g9
S'\x00\x00\x00\x00\x00\x00\x00\x00'
tRp322
ag7
(g9
S'\x00\x00\x00\x00\x00\x00\x00\x80'
tRp323
ag7
(g9
S'\x00\x00\x00\x00\x00\x00\x00\x80'
tRp324
ag7
(g9
S'\x00\x00\x00\x00\x00\x00\x00\x00'
tRp325
ag7
(g9
S'\x00\x00\x00\x00\x00\x00\x00\x80'
tRp326
ag7
(g9
S'\x00\x00\x00\x00\x00\x00\x00\x00'
tRp327
aa.