(lp1
(lp2
F0.75
aF0.76595744680851063
aF0.76595744680851063
aF0.75
aF0.75
aF0.76595744680851063
aF0.76595744680851063
aF0.75
aF0.74468085106382975
aF0.75
aF0.76595744680851063
aF0.76595744680851063
aF0.75
aF0.76595744680851063
aF0.75572519083969469
aF0.75
aF0.73282442748091603
aF0.76595744680851063
aF0.75572519083969469
aF0.76595744680851063
aF0.75
aF0.75
aF0.75
aF0.75
aF0.73770491803278693
aF0.75
aF0.73770491803278693
aF0.75
aF0.73170731707317072
aF0.73282442748091603
aF0.75
aF0.73282442748091603
aF0.73282442748091603
aF0.75
aF0.75
aF0.73770491803278693
aF0.75572519083969469
aF0.75572519083969469
aF0.73770491803278693
aF0.73770491803278693
aF0.75609756097560976
aF0.73999999999999999
aF0.76056338028169013
aF0.74468085106382975
aF0.74468085106382975
aF0.73282442748091603
aF0.74468085106382975
aF0.76056338028169013
aF0.73282442748091603
aF0.74468085106382975
aF0.76056338028169013
aF0.74468085106382975
aF0.76056338028169013
aF0.76056338028169013
aF0.76056338028169013
aF0.74468085106382975
aF0.76056338028169013
aF0.76056338028169013
aF0.73943661971830987
aF0.74436090225563911
aF0.72727272727272729
aF0.74436090225563911
aF0.72727272727272729
aF0.74436090225563911
aF0.72727272727272729
aF0.76119402985074625
aF0.76119402985074625
aF0.72727272727272729
aF0.74436090225563911
aF0.72727272727272729
aF0.76119402985074625
aF0.72580645161290325
aF0.76056338028169013
aF0.74468085106382975
aF0.74468085106382975
aF0.74468085106382975
aF0.77622377622377625
aF0.76056338028169013
aF0.74468085106382975
aF0.74468085106382975
aF0.74468085106382975
aF0.74468085106382975
aF0.77622377622377625
aF0.74468085106382975
aF0.76056338028169013
aF0.73282442748091603
aF0.76056338028169013
aF0.73282442748091603
aF0.72857142857142854
aF0.76056338028169013
aF0.73282442748091603
aF0.74468085106382975
aF0.74468085106382975
aF0.74468085106382975
aF0.76056338028169013
aF0.73282442748091603
aF0.74468085106382975
aF0.76056338028169013
aF0.73282442748091603
aF0.73282442748091603
aF0.75
aF0.76056338028169013
aF0.76056338028169013
aF0.75
aF0.76056338028169013
aF0.73282442748091603
aF0.72727272727272729
aF0.72727272727272729
aF0.72727272727272729
aF0.76056338028169013
aF0.74468085106382975
aF0.74468085106382975
aF0.74468085106382975
aF0.74468085106382975
aF0.76056338028169013
aF0.75
aF0.73282442748091603
aF0.72727272727272729
aF0.75
aF0.72727272727272729
aF0.72727272727272729
aF0.74436090225563911
aF0.72580645161290325
aF0.73170731707317072
aF0.74468085106382975
aF0.74468085106382975
aF0.74468085106382975
aF0.75
aF0.75
aF0.76056338028169013
aF0.73282442748091603
aF0.73282442748091603
aF0.73282442748091603
aF0.73282442748091603
aF0.73282442748091603
aF0.75
aF0.73282442748091603
aF0.75
aF0.76691729323308266
aF0.75
aF0.75
aF0.75
aF0.73770491803278693
aF0.73170731707317072
aF0.73170731707317072
aF0.73170731707317072
aF0.73170731707317072
aF0.73943661971830987
aF0.75524475524475521
aF0.73943661971830987
aF0.72727272727272729
aF0.72727272727272729
aF0.74436090225563911
aF0.74436090225563911
aF0.76119402985074625
aF0.74436090225563911
aF0.74436090225563911
aF0.72580645161290325
aF0.72580645161290325
aF0.72727272727272729
aF0.74436090225563911
aF0.73943661971830987
aF0.74436090225563911
aF0.72727272727272729
aF0.74436090225563911
aF0.72727272727272729
aF0.73170731707317072
aF0.73170731707317072
aF0.75
aF0.73170731707317072
aF0.73170731707317072
aF0.73170731707317072
aF0.73170731707317072
aF0.73170731707317072
aF0.75
aF0.73170731707317072
aF0.73170731707317072
aF0.73170731707317072
aF0.75
aF0.74436090225563911
aF0.72727272727272729
aF0.74436090225563911
aF0.72580645161290325
aF0.72580645161290325
aF0.74399999999999999
aF0.72580645161290325
aF0.72580645161290325
aF0.74399999999999999
aF0.74399999999999999
aF0.72580645161290325
aF0.72580645161290325
aF0.74436090225563911
aF0.75
aF0.72580645161290325
aF0.74399999999999999
aF0.74399999999999999
aF0.83076923076923082
aF0.72580645161290325
aF0.72580645161290325
aF0.83606557377049184
aF0.81818181818181823
aF0.81818181818181823
aF0.82300884955752207
aF0.82300884955752207
aF0.72580645161290325
aF0.72580645161290325
aF0.74399999999999999
aF0.85365853658536583
aF0.73170731707317072
aF0.73170731707317072
aF0.75
aF0.73170731707317072
aF0.73170731707317072
aF0.73170731707317072
aF0.73170731707317072
aF0.73170731707317072
aF0.75
aF0.80672268907563027
aF0.73170731707317072
aF0.73170731707317072
aa(lp3
F0.77486772486772493
aF0.78756613756613758
aF0.79867724867724865
aF0.76746031746031751
aF0.76746031746031751
aF0.7952380952380953
aF0.78888888888888897
aF0.76746031746031751
aF0.76560846560846563
aF0.76746031746031751
aF0.78756613756613758
aF0.78915343915343916
aF0.77486772486772493
aF0.7952380952380953
aF0.79365079365079372
aF0.79312169312169312
aF0.7693121693121695
aF0.79338624338624353
aF0.78835978835978848
aF0.78968253968253987
aF0.77883597883597888
aF0.78994708994709006
aF0.78201058201058204
aF0.7952380952380953
aF0.78148148148148155
aF0.79206349206349214
aF0.78968253968253965
aF0.78968253968253965
aF0.78439153439153442
aF0.77513227513227534
aF0.79312169312169323
aF0.77883597883597888
aF0.75502645502645516
aF0.77301587301587316
aF0.78783068783068799
aF0.785978835978836
aF0.78571428571428581
aF0.79523809523809541
aF0.79126984126984123
aF0.78968253968253965
aF0.79920634920634914
aF0.75291005291005286
aF0.78915343915343916
aF0.76375661375661386
aF0.77486772486772493
aF0.76613756613756623
aF0.77116402116402116
aF0.79391534391534391
aF0.77142857142857146
aF0.75264550264550278
aF0.77804232804232809
aF0.77486772486772493
aF0.78042328042328046
aF0.78941798941798946
aF0.79153439153439153
aF0.76190476190476197
aF0.78306878306878314
aF0.79259259259259263
aF0.76005291005291009
aF0.76137566137566137
aF0.76190476190476197
aF0.78412698412698423
aF0.75343915343915357
aF0.76560846560846563
aF0.76243386243386246
aF0.79576719576719568
aF0.79735449735449737
aF0.76772486772486781
aF0.78412698412698423
aF0.76402116402116405
aF0.79365079365079372
aF0.75555555555555576
aF0.76137566137566137
aF0.76190476190476197
aF0.7505291005291006
aF0.76164021164021167
aF0.77751322751322749
aF0.77804232804232809
aF0.76534391534391544
aF0.75582010582010595
aF0.76190476190476197
aF0.76878306878306879
aF0.78253968253968254
aF0.76375661375661386
aF0.78703703703703709
aF0.75661375661375674
aF0.77222222222222225
aF0.75291005291005286
aF0.7510582010582012
aF0.78915343915343916
aF0.75873015873015881
aF0.76904761904761909
aF0.77301587301587305
aF0.75634920634920644
aF0.78783068783068788
aF0.75820105820105832
aF0.76746031746031762
aF0.79894179894179906
aF0.76560846560846563
aF0.75820105820105832
aF0.78941798941798946
aF0.78544973544973551
aF0.79656084656084658
aF0.78783068783068788
aF0.77592592592592591
aF0.75661375661375674
aF0.75608465608465614
aF0.75608465608465614
aF0.76137566137566148
aF0.76560846560846552
aF0.76613756613756612
aF0.77116402116402127
aF0.76587301587301604
aF0.77698412698412711
aF0.79338624338624342
aF0.78465608465608472
aF0.76772486772486781
aF0.75608465608465625
aF0.78994708994708995
aF0.75820105820105832
aF0.75449735449735456
aF0.7597883597883599
aF0.77116402116402105
aF0.78227513227513212
aF0.77116402116402116
aF0.76931216931216939
aF0.77116402116402127
aF0.79312169312169312
aF0.7952380952380953
aF0.79682539682539699
aF0.75238095238095259
aF0.76190476190476197
aF0.75449735449735456
aF0.76560846560846574
aF0.76560846560846563
aF0.78941798941798946
aF0.7687830687830689
aF0.76349206349206356
aF0.78148148148148144
aF0.79312169312169312
aF0.78201058201058204
aF0.79100529100529104
aF0.78756613756613758
aF0.75423280423280425
aF0.78015873015873016
aF0.75582010582010584
aF0.78677248677248668
aF0.75582010582010584
aF0.76296296296296295
aF0.76693121693121702
aF0.76349206349206344
aF0.75820105820105832
aF0.76349206349206356
aF0.78412698412698412
aF0.78148148148148144
aF0.76560846560846563
aF0.76719576719576721
aF0.76031746031746039
aF0.75291005291005286
aF0.76243386243386257
aF0.75820105820105832
aF0.76349206349206356
aF0.75555555555555565
aF0.75767195767195783
aF0.76296296296296306
aF0.75238095238095248
aF0.78756613756613758
aF0.79126984126984123
aF0.78994708994708995
aF0.78968253968253965
aF0.77116402116402105
aF0.78465608465608472
aF0.78677248677248679
aF0.76613756613756623
aF0.77883597883597888
aF0.75052910052910038
aF0.78386243386243382
aF0.76164021164021156
aF0.79365079365079361
aF0.76772486772486781
aF0.76402116402116405
aF0.77301587301587305
aF0.76666666666666661
aF0.76666666666666661
aF0.77195767195767195
aF0.76746031746031729
aF0.75291005291005286
aF0.78835978835978837
aF0.79047619047619044
aF0.75714285714285723
aF0.75978835978835979
aF0.75238095238095237
aF0.77195767195767195
aF0.76031746031746039
aF0.78835978835978837
aF0.7772486772486773
aF0.76613756613756612
aF0.76084656084656088
aF0.76666666666666672
aF0.75026455026455019
aF0.75767195767195761
aF0.76190476190476197
aF0.76613756613756623
aF0.76825396825396841
aF0.75582010582010584
aF0.76243386243386246
aF0.77407407407407414
aF0.76137566137566137
aF0.7772486772486773
aF0.78306878306878325
aF0.77354497354497354
aF0.76455026455026465
aF0.79126984126984135
aF0.75714285714285723
aF0.78968253968253976
aF0.76746031746031751
aF0.79285714285714282
aF0.7502645502645503
aF0.79708994708994707
aF0.78280423280423284
aa(lp4
F0.76173534730649672
aF0.78859403329473288
aF0.79340751251966168
aF0.75718901694511453
aF0.76486941585256174
aF0.81260758211977724
aF0.78961165390361765
aF0.75548172757475074
aF0.81129469415609501
aF0.75529555378476754
aF0.78585341975039658
aF0.78737666036688236
aF0.75041583868790662
aF0.79885778246957484
aF0.76659599196786488
aF0.80838977743576246
aF0.77277987881002397
aF0.77094835745346568
aF0.76469977654446397
aF0.77549969410434527
aF0.7845356154853913
aF0.8055640159726799
aF0.78378389070343824
aF0.81178851045290501
aF0.76358135481688505
aF0.76261193113317893
aF0.75058871336761823
aF0.82171604708627788
aF0.80992484718154256
aF0.76072112415696103
aF0.81872277030839535
aF0.76790986779345405
aF0.75777875538906136
aF0.79697578072767561
aF0.81535088001563993
aF0.76146997956452667
aF0.76722305134179469
aF0.7650078027045546
aF0.79110900328653377
aF0.79592484916099959
aF0.75884489757025031
aF0.76961430141269838
aF0.83102053367669526
aF0.80726008732400412
aF0.7915446554818989
aF0.75136100515364901
aF0.79573119135773218
aF0.78875098469752225
aF0.75530338771673811
aF0.80705041812884337
aF0.82421514053374167
aF0.78528992668287945
aF0.84287537012898139
aF0.78639431690769324
aF0.77624489144997777
aF0.75665927390065324
aF0.79272727272727272
aF0.79640260309147493
aF0.82469203252078127
aF0.79330580289929875
aF0.76508863737779398
aF0.79945595340332176
aF0.75664808353303725
aF0.82472070597547331
aF0.7738122256979445
aF0.79293864964027772
aF0.82839130033034281
aF0.79618892660144169
aF0.83093526295717568
aF0.78713143461245327
aF0.82367700622479356
aF0.7886540515648498
aF0.78548169337643026
aF0.76712574159127633
aF0.80551308858667503
aF0.80106464256605081
aF0.84905113830945034
aF0.82506612959395043
aF0.7901747256774434
aF0.79580323519838592
aF0.81573056573056579
aF0.78210529257228123
aF0.81477539555058931
aF0.79271397420972123
aF0.83721860136337645
aF0.77564360863576132
aF0.83625919547493011
aF0.76805751036534342
aF0.75747937182696257
aF0.83831301809198633
aF0.77093925995081314
aF0.80052735959218291
aF0.81769041200005654
aF0.79971826115517919
aF0.83529161365554672
aF0.76750250191587399
aF0.79572344543328155
aF0.84297048573382449
aF0.78086370776887282
aF0.77701156364830704
aF0.80325481643441132
aF0.8221692835774731
aF0.82649904167602706
aF0.77403408446293431
aF0.82873673330760966
aF0.751793517611684
aF0.83265581949792478
aF0.84217572042556188
aF0.83911546543125481
aF0.76780287725731788
aF0.75133543558772498
aF0.78526096845910998
aF0.78377964724662053
aF0.77911745862550807
aF0.81057623265814938
aF0.758925546432204
aF0.76254976880062619
aF0.80042351406252965
aF0.76393960213472001
aF0.82065003769010969
aF0.81151030689702053
aF0.84962734051666211
aF0.80743060467221306
aF0.81644954282015336
aF0.77541404561215388
aF0.810754449141873
aF0.77379901230263115
aF0.76229808671081345
aF0.76403670592687201
aF0.8364847430079716
aF0.77489519601045809
aF0.77190100265391881
aF0.76762141470113943
aF0.76650136492995502
aF0.76713756291071666
aF0.81426150847203482
aF0.78828045319273388
aF0.80522405605039293
aF0.8164718843857528
aF0.79517283409072781
aF0.78645641965982138
aF0.79968217332359393
aF0.75398496584431973
aF0.80744825498719597
aF0.80031538236497224
aF0.81692915319190285
aF0.81690594457890053
aF0.82798227728386797
aF0.79977835281795362
aF0.83641542466406349
aF0.78274862749000673
aF0.78010007234145173
aF0.79029052646699705
aF0.80047941595263605
aF0.8450854783280296
aF0.81298727872229681
aF0.82418872706989355
aF0.78540774718816952
aF0.84031109771616108
aF0.77918501780171112
aF0.79777697188678631
aF0.84981208777388095
aF0.82170378131397626
aF0.81153127917833789
aF0.82808584346768166
aF0.82471020936697204
aF0.79510034952116426
aF0.81286606905400327
aF0.81981403336214209
aF0.81144056077427495
aF0.78621392547103142
aF0.76243997639363803
aF0.76203064275808241
aF0.76143873531695605
aF0.779732496635552
aF0.79489599204377992
aF0.79619484031064069
aF0.79105110896194542
aF0.75942961359628014
aF0.82082933096802058
aF0.80678223266707816
aF0.82452482010055361
aF0.77965240198786345
aF0.7817621103355461
aF0.82646936397646309
aF0.81755461591432343
aF0.8055326885590044
aF0.83236376204228457
aF0.80090658262145498
aF0.78040399655915438
aF0.7543304411917866
aF0.83213407266347383
aF0.82267440368855471
aF0.80546392546392553
aF0.79028554558026554
aF0.83900525155790473
aF0.83449204993149795
aF0.82123586257883452
aF0.80842474928496433
aF0.80959506885432808
aF0.83481377590774497
aF0.83154965236468581
aF0.83706943685073809
aF0.83363709746524428
aF0.83710556270304703
aF0.79844907564205814
aF0.84449174014391404
aF0.83405017921146951
aF0.82528761992126276
aF0.79864047007822148
aF0.8240641277916797
aF0.7973384855385377
aF0.78476167967627641
aF0.7601759757595431
aF0.83287401014451679
aF0.80777927330570121
aF0.80796699909247571
aF0.77918766115487426
aF0.83161788829137029
aF0.75434352301383256
aa(lp5
F1.25
aF1.25
aF1.25
aF1.25
aF1.25
aF1.25
aF1.25
aF1.25
aF1.25
aF1.25
aF1.25
aF1.25
aF1.25
aF1.25
aF1.2777777777777777
aF1.2777777777777777
aF1.2777777777777777
aF1.25
aF1.2777777777777777
aF1.25
aF1.2777777777777777
aF1.2777777777777777
aF1.2777777777777777
aF1.2777777777777777
aF1.3055555555555556
aF1.2777777777777777
aF1.3055555555555556
aF1.3055555555555556
aF1.3055555555555556
aF1.2777777777777777
aF1.2777777777777777
aF1.2777777777777777
aF1.2777777777777777
aF1.2777777777777777
aF1.2777777777777777
aF1.3055555555555556
aF1.2777777777777777
aF1.2777777777777777
aF1.3055555555555556
aF1.3055555555555556
aF1.3055555555555556
aF1.2222222222222223
aF1.25
aF1.25
aF1.25
aF1.2777777777777777
aF1.25
aF1.25
aF1.2777777777777777
aF1.25
aF1.25
aF1.25
aF1.25
aF1.25
aF1.25
aF1.25
aF1.25
aF1.25
aF1.25
aF1.2777777777777777
aF1.2777777777777777
aF1.2777777777777777
aF1.2777777777777777
aF1.2777777777777777
aF1.2777777777777777
aF1.2777777777777777
aF1.2777777777777777
aF1.2777777777777777
aF1.2777777777777777
aF1.2777777777777777
aF1.3055555555555556
aF1.3333333333333333
aF1.25
aF1.25
aF1.25
aF1.25
aF1.25
aF1.25
aF1.25
aF1.25
aF1.25
aF1.25
aF1.25
aF1.25
aF1.25
aF1.2777777777777777
aF1.25
aF1.2777777777777777
aF1.25
aF1.25
aF1.2777777777777777
aF1.25
aF1.25
aF1.25
aF1.25
aF1.2777777777777777
aF1.25
aF1.25
aF1.2777777777777777
aF1.2777777777777777
aF1.2777777777777777
aF1.25
aF1.25
aF1.2777777777777777
aF1.25
aF1.2777777777777777
aF1.2777777777777777
aF1.2777777777777777
aF1.2777777777777777
aF1.25
aF1.25
aF1.25
aF1.25
aF1.25
aF1.25
aF1.2777777777777777
aF1.2777777777777777
aF1.2777777777777777
aF1.3055555555555556
aF1.2777777777777777
aF1.2777777777777777
aF1.2777777777777777
aF1.3055555555555556
aF1.3055555555555556
aF1.25
aF1.25
aF1.25
aF1.2777777777777777
aF1.2777777777777777
aF1.25
aF1.2777777777777777
aF1.2777777777777777
aF1.2777777777777777
aF1.2777777777777777
aF1.2777777777777777
aF1.2777777777777777
aF1.2777777777777777
aF1.2777777777777777
aF1.2777777777777777
aF1.2777777777777777
aF1.2777777777777777
aF1.2777777777777777
aF1.3055555555555556
aF1.3055555555555556
aF1.3055555555555556
aF1.3055555555555556
aF1.3055555555555556
aF1.25
aF1.25
aF1.25
aF1.2777777777777777
aF1.2777777777777777
aF1.2777777777777777
aF1.2777777777777777
aF1.2777777777777777
aF1.2777777777777777
aF1.2777777777777777
aF1.3055555555555556
aF1.3333333333333333
aF1.2777777777777777
aF1.2777777777777777
aF1.25
aF1.2777777777777777
aF1.2777777777777777
aF1.2777777777777777
aF1.2777777777777777
aF1.3055555555555556
aF1.3055555555555556
aF1.3333333333333333
aF1.3055555555555556
aF1.3055555555555556
aF1.3055555555555556
aF1.3055555555555556
aF1.3055555555555556
aF1.3055555555555556
aF1.3055555555555556
aF1.3055555555555556
aF1.3055555555555556
aF1.3055555555555556
aF1.2777777777777777
aF1.2777777777777777
aF1.2777777777777777
aF1.3055555555555556
aF1.3055555555555556
aF1.3055555555555556
aF1.3055555555555556
aF1.3333333333333333
aF1.3333333333333333
aF1.3055555555555556
aF1.3055555555555556
aF1.3055555555555556
aF1.2777777777777777
aF1.3055555555555556
aF1.3055555555555556
aF1.3055555555555556
aF1.3055555555555556
aF1.3333333333333333
aF1.3055555555555556
aF1.3333333333333333
aF1.1428571428571428
aF1.3888888888888888
aF1.3611111111111112
aF1.4166666666666667
aF1.3888888888888888
aF1.3055555555555556
aF1.3055555555555556
aF1.3333333333333333
aF1.1428571428571428
aF1.3333333333333333
aF1.3055555555555556
aF1.3055555555555556
aF1.3055555555555556
aF1.3055555555555556
aF1.3055555555555556
aF1.3055555555555556
aF1.3055555555555556
aF1.3055555555555556
aF1.3888888888888888
aF1.3055555555555556
aF1.3055555555555556
aa(lp6
cnumpy.core.multiarray
scalar
p7
(cnumpy
dtype
p8
(S'f8'
I0
I1
tRp9
(I3
S'<'
NNNI-1
I-1
I0
tbS'\xb0\x05\xd6vg\xa1\xcf\xbf'
tRp10
ag7
(g9
S'k\xb1\x13;\xb1\x13\xcb\xbf'
tRp11
ag7
(g9
S'\x85\xec\xc4N\xec\xc4\xce\xbf'
tRp12
ag7
(g9
S'\x89E\xaa\xe0\xc4\xa3\xcb\xbf'
tRp13
ag7
(g9
S'\x89E\xaa\xe0\xc4\xa3\xcb\xbf'
tRp14
ag7
(g9
S'\xa9\xf3>\xc5%C\xd0\xbf'
tRp15
ag7
(g9
S'\xe7\x99\x99\x99\x99\x99\xc9\xbf'
tRp16
ag7
(g9
S'\x89E\xaa\xe0\xc4\xa3\xcb\xbf'
tRp17
ag7
(g9
S'\xa9\xf3>\xc5%C\xd0\xbf'
tRp18
ag7
(g9
S'\x89E\xaa\xe0\xc4\xa3\xcb\xbf'
tRp19
ag7
(g9
S'k\xb1\x13;\xb1\x13\xcb\xbf'
tRp20
ag7
(g9
S'~\xb1\x13;\xb1\x13\xcb\xbf'
tRp21
ag7
(g9
S'\xb0\x05\xd6vg\xa1\xcf\xbf'
tRp22
ag7
(g9
S'\xa9\xf3>\xc5%C\xd0\xbf'
tRp23
ag7
(g9
S'\xdf\xf5\x82\xab\xdb\xc4\xc9\xbf'
tRp24
ag7
(g9
S'\xad\x7fY\xef\x97\xf5\xce\xbf'
tRp25
ag7
(g9
S'?\xe8y\x9e\xe7y\xce\xbf'
tRp26
ag7
(g9
S'\x8b\xec\xc4N\xec\xc4\xce\xbf'
tRp27
ag7
(g9
S'\x03\xf6\x82\xab\xdb\xc4\xc9\xbf'
tRp28
ag7
(g9
S'k\xb1\x13;\xb1\x13\xcb\xbf'
tRp29
ag7
(g9
S'\x07\\<\xb9\xc5\x93\xcb\xbf'
tRp30
ag7
(g9
S'\xa8\x7fY\xef\x97\xf5\xce\xbf'
tRp31
ag7
(g9
S'\xbf\x04\xf7\x11\xdcG\xd0\xbf'
tRp32
ag7
(g9
S'\x15\x1c\x95\xa2\x87\xbd\xd1\xbf'
tRp33
ag7
(g9
S'\xc7\x98+\xe57\xb6\xc9\xbf'
tRp34
ag7
(g9
S'kQ\xbb\x12\xb5+\xd1\xbf'
tRp35
ag7
(g9
S's\xdfA\x1fY9\xce\xbf'
tRp36
ag7
(g9
S'I`\xef\x98\x1a\xd8\xcb\xbf'
tRp37
ag7
(g9
S'#\x91W\xec\x9b_\xd2\xbf'
tRp38
ag7
(g9
S'\xeb7X)4\xcf\xd2\xbf'
tRp39
ag7
(g9
S'\xbf\x04\xf7\x11\xdcG\xd0\xbf'
tRp40
ag7
(g9
S'\xeb7X)4\xcf\xd2\xbf'
tRp41
ag7
(g9
S'\xfe\xe7y\x9e\xe7y\xce\xbf'
tRp42
ag7
(g9
S'\xbf\xda\xb1\x02a\xa4\xcd\xbf'
tRp43
ag7
(g9
S'\xba\x04\xf7\x11\xdcG\xd0\xbf'
tRp44
ag7
(g9
S'\x9e\x1e\xbb\x06\x1a\xdc\xcf\xbf'
tRp45
ag7
(g9
S'\x86\xdd(f\x7f>\xcc\xbf'
tRp46
ag7
(g9
S'\xff\xb8\x00\xb5w^\xcf\xbf'
tRp47
ag7
(g9
S'\x1f\x9a\x83\xb6t\x19\xcf\xbf'
tRp48
ag7
(g9
S'\x9e\x1e\xbb\x06\x1a\xdc\xcf\xbf'
tRp49
ag7
(g9
S'g\xb8\x1f-\xb7^\xcc\xbf'
tRp50
ag7
(g9
S'\xe5\x12\xd9Md7\xd1\xbf'
tRp51
ag7
(g9
S'6%\xd4\x90\xb6W\xce\xbf'
tRp52
ag7
(g9
S'\x7f\xec\xc4N\xec\xc4\xce\xbf'
tRp53
ag7
(g9
S'\xcf\x13;\xb1\x13;\xd1\xbf'
tRp54
ag7
(g9
S'Q\xf2\xa72\x1b\xb0\xca\xbf'
tRp55
ag7
(g9
S'\xcf\x13;\xb1\x13;\xd1\xbf'
tRp56
ag7
(g9
S'[\x1e\t]\x1b\x17\xd2\xbf'
tRp57
ag7
(g9
S'xD\x1d\x1f\xa5\x18\xd0\xbf'
tRp58
ag7
(g9
S'k\xb1\x13;\xb1\x13\xcb\xbf'
tRp59
ag7
(g9
S'6%\xd4\x90\xb6W\xce\xbf'
tRp60
ag7
(g9
S'V\xb1\x13;\xb1\x13\xd3\xbf'
tRp61
ag7
(g9
S'\xc9\xc9,\x96\x06\x07\xd0\xbf'
tRp62
ag7
(g9
S'u\xe3<c\xe1\xf2\xce\xbf'
tRp63
ag7
(g9
S'\xc3\x15w\x0e\xbd\xbe\xd1\xbf'
tRp64
ag7
(g9
S'!\xf4\x05}A_\xd0\xbf'
tRp65
ag7
(g9
S'9\x86\x14\x82\xb1\x80\xd0\xbf'
tRp66
ag7
(g9
S'\xae_\xe5\x1f\xf7_\xd2\xbf'
tRp67
ag7
(g9
S'\x8fw\xb1V\x11\x9d\xd2\xbf'
tRp68
ag7
(g9
S'o\x00\x94\xce._\xcc\xbf'
tRp69
ag7
(g9
S'\xb0P\xbb\x12\xb5+\xd1\xbf'
tRp70
ag7
(g9
S'\x00\x9cn\xa3\xd5\x95\xd1\xbf'
tRp71
ag7
(g9
S'\x8bj6\xec\xefb\xd0\xbf'
tRp72
ag7
(g9
S'k\x00\x94\xce._\xcc\xbf'
tRp73
ag7
(g9
S'\xb8\x98JL%\xa6\xd2\xbf'
tRp74
ag7
(g9
S'>Q\xbb\x12\xb5+\xd1\xbf'
tRp75
ag7
(g9
S'\xbe\x91\x91\x91\x91\x91\xd1\xbf'
tRp76
ag7
(g9
S'\x1f\xe3\xc9-\x9e\xdc\xd2\xbf'
tRp77
ag7
(g9
S'\xd4rG\xb9\xa3\xdc\xd1\xbf'
tRp78
ag7
(g9
S'\x1f\xe3\xc9-\x9e\xdc\xd2\xbf'
tRp79
ag7
(g9
S'5s\xfa\x87\xfc\xd4\xcd\xbf'
tRp80
ag7
(g9
S"\xca\x07'\x17\x1f\x1b\xcd\xbf"
tRp81
ag7
(g9
S'u\x9a\x8b\xa9Hh\xca\xbf'
tRp82
ag7
(g9
S'!\xf4\x05}A_\xd0\xbf'
tRp83
ag7
(g9
S'k\xb1\x13;\xb1\x13\xcb\xbf'
tRp84
ag7
(g9
S'\x85\xec\xc4N\xec\xc4\xce\xbf'
tRp85
ag7
(g9
S'Id\x0b\xe4[\xc1\xc9\xbf'
tRp86
ag7
(g9
S'6%\xd4\x90\xb6W\xce\xbf'
tRp87
ag7
(g9
S'\xcf\x13;\xb1\x13;\xd1\xbf'
tRp88
ag7
(g9
S'\x8b\xec\xc4N\xec\xc4\xce\xbf'
tRp89
ag7
(g9
S'\xa9\xf3>\xc5%C\xd0\xbf'
tRp90
ag7
(g9
S'\xa9\r\xe55\x94\xd7\xd0\xbf'
tRp91
ag7
(g9
S'\xdfMIu\x88\r\xcc\xbf'
tRp92
ag7
(g9
S'\x8b\xec\xc4N\xec\xc4\xce\xbf'
tRp93
ag7
(g9
S'\xb5\r}\x86>C\xcf\xbf'
tRp94
ag7
(g9
S'\xdf\xf5\x82\xab\xdb\xc4\xc9\xbf'
tRp95
ag7
(g9
S'\x92\x1c=\xc1\xd1\x13\xcc\xbf'
tRp96
ag7
(g9
S'\xdf\xf5\x82\xab\xdb\xc4\xc9\xbf'
tRp97
ag7
(g9
S'\xe5\xe2\x80\x06\x85\xcf\xd1\xbf'
tRp98
ag7
(g9
S'T\x7f\xde\xa5U9\xd1\xbf'
tRp99
ag7
(g9
S'\x19\x08C\xda\x1dn\xcd\xbf'
tRp100
ag7
(g9
S'\x13\xec\x18\xc5\xb9\x8e\xd1\xbf'
tRp101
ag7
(g9
S'\xa2\xa7\xb8d\x08\xd6\xd1\xbf'
tRp102
ag7
(g9
S'\x8b\xec\xc4N\xec\xc4\xce\xbf'
tRp103
ag7
(g9
S'?e\x9fCj\x82\xd1\xbf'
tRp104
ag7
(g9
S'?\xe8y\x9e\xe7y\xce\xbf'
tRp105
ag7
(g9
S'\xd5\x13;\xb1\x13;\xd1\xbf'
tRp106
ag7
(g9
S'\xac\x00\x12\xf1\xcd\xfd\xd2\xbf'
tRp107
ag7
(g9
S'?\xe8y\x9e\xe7y\xce\xbf'
tRp108
ag7
(g9
S'?\xe8y\x9e\xe7y\xce\xbf'
tRp109
ag7
(g9
S'\xad\x7fY\xef\x97\xf5\xce\xbf'
tRp110
ag7
(g9
S'T\x7f\xde\xa5U9\xd1\xbf'
tRp111
ag7
(g9
S'\xc5w~\x08\x0c\xd1\xd2\xbf'
tRp112
ag7
(g9
S'Y\xcdw<\x91\xf3\xcd\xbf'
tRp113
ag7
(g9
S'\xb5\r}\x86>C\xcf\xbf'
tRp114
ag7
(g9
S'\xab\x07C\xda\x1dn\xcd\xbf'
tRp115
ag7
(g9
S'\xbf\x04\xf7\x11\xdcG\xd0\xbf'
tRp116
ag7
(g9
S'\xbf\x04\xf7\x11\xdcG\xd0\xbf'
tRp117
ag7
(g9
S'\xfaw\xba5?,\xd2\xbf'
tRp118
ag7
(g9
S'\xa5\xe2<c\xe1\xf2\xce\xbf'
tRp119
ag7
(g9
S'\xb1\xac)k\xca\x9a\xd2\xbf'
tRp120
ag7
(g9
S'\xcf\x13;\xb1\x13;\xd1\xbf'
tRp121
ag7
(g9
S'\xd5\x13;\xb1\x13;\xd1\xbf'
tRp122
ag7
(g9
S'_\xb1\x13;\xb1\x13\xd3\xbf'
tRp123
ag7
(g9
S'\x8fw\xb1V\x11\x9d\xd2\xbf'
tRp124
ag7
(g9
S'\xff\xb5\x03s\xed\xc0\xcc\xbf'
tRp125
ag7
(g9
S'\xdb\xf3\x8f\x0f\x8c\xec\xd0\xbf'
tRp126
ag7
(g9
S'\x1a\x1c\x95\xa2\x87\xbd\xd1\xbf'
tRp127
ag7
(g9
S'\x11\xb0\xe9)\xe5\x88\xca\xbf'
tRp128
ag7
(g9
S'\x15\x1c\x95\xa2\x87\xbd\xd1\xbf'
tRp129
ag7
(g9
S'\x15\x1c\x95\xa2\x87\xbd\xd1\xbf'
tRp130
ag7
(g9
S'\t\xa6o\x7fe\xa2\xd0\xbf'
tRp131
ag7
(g9
S'\xaewL\r\xec\x1d\xd3\xbf'
tRp132
ag7
(g9
S'~\xff\x14%1\xfa\xd0\xbf'
tRp133
ag7
(g9
S'b\xb1\x13;\xb1\x13\xd3\xbf'
tRp134
ag7
(g9
S'\xa2\xa7\xb8d\x08\xd6\xd1\xbf'
tRp135
ag7
(g9
S'b\xb1\x13;\xb1\x13\xd3\xbf'
tRp136
ag7
(g9
S'UQ\xbb\x12\xb5+\xd1\xbf'
tRp137
ag7
(g9
S'\xb0P\xbb\x12\xb5+\xd1\xbf'
tRp138
ag7
(g9
S'\tL2U\xbf$\xd3\xbf'
tRp139
ag7
(g9
S'\x86\xdd(f\x7f>\xcc\xbf'
tRp140
ag7
(g9
S'\xff\xb8\x00\xb5w^\xcf\xbf'
tRp141
ag7
(g9
S'\xff\xb8\x00\xb5w^\xcf\xbf'
tRp142
ag7
(g9
S'9J\xec\x018?\xd1\xbf'
tRp143
ag7
(g9
S'9J\xec\x018?\xd1\xbf'
tRp144
ag7
(g9
S'\xbf\x04\xf7\x11\xdcG\xd0\xbf'
tRp145
ag7
(g9
S']J\xdf\xeb\xdf\xc4\xd1\xbf'
tRp146
ag7
(g9
S'\x0e\xacu\xe1\t\xb9\xca\xbf'
tRp147
ag7
(g9
S'^-\xd7\x1a\x87g\xcb\xbf'
tRp148
ag7
(g9
S'\x1a\x1c\x95\xa2\x87\xbd\xd1\xbf'
tRp149
ag7
(g9
S'\xbf\x04\xf7\x11\xdcG\xd0\xbf'
tRp150
ag7
(g9
S'\xfaw\xba5?,\xd2\xbf'
tRp151
ag7
(g9
S'\x1f\x9a\x83\xb6t\x19\xcf\xbf'
tRp152
ag7
(g9
S'^\xb8\x1f-\xb7^\xcc\xbf'
tRp153
ag7
(g9
S'\x80\xff\x14%1\xfa\xd0\xbf'
tRp154
ag7
(g9
S'\xda\x19\xc1;\x87?\xcd\xbf'
tRp155
ag7
(g9
S'\x06\xd0\xfc2\xd0\xfc\xd2\xbf'
tRp156
ag7
(g9
S'!w~\x08\x0c\xd1\xd2\xbf'
tRp157
ag7
(g9
S'\xad\x89B7%\xd5\xd1\xbf'
tRp158
ag7
(g9
S'\xc5w~\x08\x0c\xd1\xd2\xbf'
tRp159
ag7
(g9
S'UQ\xbb\x12\xb5+\xd1\xbf'
tRp160
ag7
(g9
S'Y\xcdw<\x91\xf3\xcd\xbf'
tRp161
ag7
(g9
S'@\x9c\xb8\nm\xc5\xcf\xbf'
tRp162
ag7
(g9
S'\xd5\x9bn\xa3\xd5\x95\xd1\xbf'
tRp163
ag7
(g9
S'@g\xa3\xbe\xb3Q\xcf\xbf'
tRp164
ag7
(g9
S'\xd5\x9bn\xa3\xd5\x95\xd1\xbf'
tRp165
ag7
(g9
S'\xed\xa5o\x7fe\xa2\xd0\xbf'
tRp166
ag7
(g9
S'\x11\xb0\xe9)\xe5\x88\xca\xbf'
tRp167
ag7
(g9
S'N\xcf\x91!\xfb\xf4\xcc\xbf'
tRp168
ag7
(g9
S'\xb8\x98JL%\xa6\xd2\xbf'
tRp169
ag7
(g9
S'\xd5\x9bn\xa3\xd5\x95\xd1\xbf'
tRp170
ag7
(g9
S'\tL2U\xbf$\xd3\xbf'
tRp171
ag7
(g9
S'\xb3<\xdb\x0c)V\xce\xbf'
tRp172
ag7
(g9
S'\xfaw\xba5?,\xd2\xbf'
tRp173
ag7
(g9
S'\xb8\xadqx\xb6\x19\xd2\xbf'
tRp174
ag7
(g9
S'\xbf\x04\xf7\x11\xdcG\xd0\xbf'
tRp175
ag7
(g9
S'\x8f\xff\x14%1\xfa\xd0\xbf'
tRp176
ag7
(g9
S'\x1d\x91W\xec\x9b_\xd2\xbf'
tRp177
ag7
(g9
S'\x11\xb0\xe9)\xe5\x88\xca\xbf'
tRp178
ag7
(g9
S'*\x91W\xec\x9b_\xd2\xbf'
tRp179
ag7
(g9
S'~\xff\x14%1\xfa\xd0\xbf'
tRp180
ag7
(g9
S'\xc9g3\xbe?R\xd0\xbf'
tRp181
ag7
(g9
S'\xefn4u~\xed\xd1\xbf'
tRp182
ag7
(g9
S'\xc9g3\xbe?R\xd0\xbf'
tRp183
ag7
(g9
S'N\xcf\x91!\xfb\xf4\xcc\xbf'
tRp184
ag7
(g9
S'\xc7\xdb\xa4\xbb\x8c)\xcf\xbf'
tRp185
ag7
(g9
S'\x1d\x91W\xec\x9b_\xd2\xbf'
tRp186
ag7
(g9
S'\x8f\xff\x14%1\xfa\xd0\xbf'
tRp187
ag7
(g9
S'\xfe\xf8\x97\x88\xcbM\xce\xbf'
tRp188
ag7
(g9
S':\x9c\xb8\nm\xc5\xcf\xbf'
tRp189
ag7
(g9
S'\x1f\xe3\xc9-\x9e\xdc\xd2\xbf'
tRp190
ag7
(g9
S'\xd4rG\xb9\xa3\xdc\xd1\xbf'
tRp191
ag7
(g9
S'yE\xfa"\xcc\xeb\xd2\xbf'
tRp192
ag7
(g9
S'yE\xfa"\xcc\xeb\xd2\xbf'
tRp193
ag7
(g9
S'-\xf2Y7\x98"\xcf\xbf'
tRp194
ag7
(g9
S'\xaewL\r\xec\x1d\xd3\xbf'
tRp195
ag7
(g9
S'N\xcf\x91!\xfb\xf4\xcc\xbf'
tRp196
ag7
(g9
S'\xca\x14\xf9\xac\x1bL\xd1\xbf'
tRp197
ag7
(g9
S'r0E>\xeb\x06\xd3\xbf'
tRp198
ag7
(g9
S'\xe4\x1a\xd1\xb0\x82\xae\xd1\xbf'
tRp199
ag7
(g9
S'\x0cU\x80j\xf5\xaf\xd2\xbf'
tRp200
ag7
(g9
S'{&A\x93\xa0I\xd0\xbf'
tRp201
ag7
(g9
S'\x0f\x9c\x89\x01\xf6\xc0\xc9\xbf'
tRp202
ag7
(g9
S'\x84\x1e\xd8\xee\x10\xc4\xd0\xbf'
tRp203
ag7
(g9
S'\x14\x15\xf9\xac\x1bL\xd1\xbf'
tRp204
ag7
(g9
S'\xe0\nY\xc8B\x16\xd2\xbf'
tRp205
ag7
(g9
S'\xbd\x1c\xc7q\x1c\xc7\xd1\xbf'
tRp206
ag7
(g9
S'D\xe1\xa6\xcf\x8c(\xd2\xbf'
tRp207
ag7
(g9
S'yE\xfa"\xcc\xeb\xd2\xbf'
tRp208
ag7
(g9
S'\x88#Zas \xd1\xbf'
tRp209
ag7
(g9
S'\x9d\x9d@\xcc\xfa\xb4\xcd\xbf'
tRp210
ag7
(g9
S'\x17R\x0c\xf5\x97#\xd2\xbf'
tRp211
ag7
(g9
S'\xd1\xb2\xf0}.\x0b\xcf\xbf'
tRp212
ag7
(g9
S'\xa3k\x13%\xbb6\xd1\xbf'
tRp213
ag7
(g9
S'^\xeb\x12\xe0\x15K\xd1\xbf'
tRp214
ag7
(g9
S'L\xe1\xa6\xcf\x8c(\xd2\xbf'
tRp215
ag7
(g9
S'\xcd\x14\xf9\xac\x1bL\xd1\xbf'
tRp216
ag7
(g9
S'\xa6\xd8\x89\x9d\xd8\x89\xcd\xbf'
tRp217
ag7
(g9
S'\x03k^\x9bj^\xcb\xbf'
tRp218
ag7
(g9
S'\n\x1a\xac\xd0\x19\xac\xd0\xbf'
tRp219
ag7
(g9
S'\x0f2uZ2\xf6\xcb\xbf'
tRp220
ag7
(g9
S'\n\x1a\xac\xd0\x19\xac\xd0\xbf'
tRp221
ag7
(g9
S'0\x91W\xec\x9b_\xd2\xbf'
tRp222
ag7
(g9
S'\n\x1a\xac\xd0\x19\xac\xd0\xbf'
tRp223
ag7
(g9
S'8\x16)\x03O\xb7\xd2\xbf'
tRp224
ag7
(g9
S'\xcb\x97\xd0^B{\xd1\xbf'
tRp225
ag7
(g9
S'L\x82I\xa9g\x86\xd2\xbf'
tRp226
ag7
(g9
S"'\xf5[v/\xa0\xcc\xbf"
tRp227
ag7
(g9
S'8\x16)\x03O\xb7\xd2\xbf'
tRp228
ag7
(g9
S'\xa7\x90W\xec\x9b_\xd2\xbf'
tRp229
aa(lp230
I2
aI2
aI2
aI2
aI2
aI2
aI2
aI2
aI2
aI2
aI2
aI2
aI2
aI2
aI2
aI2
aI2
aI2
aI2
aI2
aI2
aI2
aI2
aI2
aI2
aI2
aI2
aI2
aI2
aI2
aI2
aI2
aI2
aI2
aI2
aI2
aI2
aI2
aI2
aI2
aI2
aI2
aI2
aI2
aI2
aI2
aI2
aI2
aI2
aI2
aI2
aI2
aI2
aI2
aI2
aI2
aI2
aI2
aI2
aI2
aI2
aI2
aI2
aI2
aI2
aI2
aI2
aI2
aI2
aI2
aI3
aI3
aI2
aI2
aI2
aI2
aI2
aI2
aI2
aI2
aI2
aI2
aI2
aI2
aI2
aI2
aI2
aI2
aI2
aI2
aI2
aI2
aI2
aI2
aI2
aI2
aI2
aI2
aI2
aI2
aI2
aI2
aI2
aI2
aI2
aI2
aI2
aI2
aI2
aI2
aI2
aI2
aI2
aI2
aI2
aI2
aI2
aI2
aI2
aI2
aI2
aI2
aI2
aI2
aI2
aI2
aI2
aI2
aI2
aI2
aI2
aI2
aI2
aI2
aI2
aI2
aI2
aI2
aI2
aI2
aI2
aI2
aI2
aI2
aI2
aI2
aI2
aI2
aI2
aI2
aI2
aI2
aI2
aI2
aI2
aI2
aI2
aI2
aI3
aI2
aI2
aI2
aI2
aI2
aI2
aI2
aI2
aI2
aI3
aI2
aI2
aI2
aI2
aI2
aI2
aI2
aI2
aI2
aI2
aI2
aI2
aI2
aI2
aI2
aI2
aI2
aI3
aI3
aI2
aI2
aI2
aI2
aI2
aI2
aI2
aI2
aI3
aI2
aI3
aI2
aI3
aI3
aI3
aI3
aI2
aI2
aI3
aI2
aI3
aI2
aI2
aI2
aI2
aI2
aI2
aI2
aI2
aI3
aI2
aI2
aa(lp231
F0.75
aF0.75
aF0.75
aF0.75
aF0.75
aF0.75
aF0.75
aF0.75
aF0.75
aF0.75
aF0.75
aF0.75
aF0.75
aF0.75
aF0.72222222222222221
aF0.72222222222222221
aF0.72222222222222221
aF0.75
aF0.72222222222222221
aF0.75
aF0.72222222222222221
aF0.72222222222222221
aF0.72222222222222221
aF0.72222222222222221
aF0.69444444444444442
aF0.72222222222222221
aF0.69444444444444442
aF0.69444444444444442
aF0.69444444444444442
aF0.72222222222222221
aF0.72222222222222221
aF0.72222222222222221
aF0.72222222222222221
aF0.72222222222222221
aF0.72222222222222221
aF0.69444444444444442
aF0.72222222222222221
aF0.72222222222222221
aF0.69444444444444442
aF0.69444444444444442
aF0.69444444444444442
aF0.77777777777777779
aF0.75
aF0.75
aF0.75
aF0.72222222222222221
aF0.75
aF0.75
aF0.72222222222222221
aF0.75
aF0.75
aF0.75
aF0.75
aF0.75
aF0.75
aF0.75
aF0.75
aF0.75
aF0.75
aF0.72222222222222221
aF0.72222222222222221
aF0.72222222222222221
aF0.72222222222222221
aF0.72222222222222221
aF0.72222222222222221
aF0.72222222222222221
aF0.72222222222222221
aF0.72222222222222221
aF0.72222222222222221
aF0.72222222222222221
aF0.72222222222222221
aF0.69444444444444442
aF0.75
aF0.75
aF0.75
aF0.75
aF0.75
aF0.75
aF0.75
aF0.75
aF0.75
aF0.75
aF0.75
aF0.75
aF0.75
aF0.72222222222222221
aF0.75
aF0.72222222222222221
aF0.75
aF0.75
aF0.72222222222222221
aF0.75
aF0.75
aF0.75
aF0.75
aF0.72222222222222221
aF0.75
aF0.75
aF0.72222222222222221
aF0.72222222222222221
aF0.72222222222222221
aF0.75
aF0.75
aF0.72222222222222221
aF0.75
aF0.72222222222222221
aF0.72222222222222221
aF0.72222222222222221
aF0.72222222222222221
aF0.75
aF0.75
aF0.75
aF0.75
aF0.75
aF0.75
aF0.72222222222222221
aF0.72222222222222221
aF0.72222222222222221
aF0.69444444444444442
aF0.72222222222222221
aF0.72222222222222221
aF0.72222222222222221
aF0.69444444444444442
aF0.69444444444444442
aF0.75
aF0.75
aF0.75
aF0.72222222222222221
aF0.72222222222222221
aF0.75
aF0.72222222222222221
aF0.72222222222222221
aF0.72222222222222221
aF0.72222222222222221
aF0.72222222222222221
aF0.72222222222222221
aF0.72222222222222221
aF0.72222222222222221
aF0.72222222222222221
aF0.72222222222222221
aF0.72222222222222221
aF0.72222222222222221
aF0.69444444444444442
aF0.69444444444444442
aF0.69444444444444442
aF0.69444444444444442
aF0.69444444444444442
aF0.75
aF0.75
aF0.75
aF0.72222222222222221
aF0.72222222222222221
aF0.72222222222222221
aF0.72222222222222221
aF0.72222222222222221
aF0.72222222222222221
aF0.72222222222222221
aF0.69444444444444442
aF0.69444444444444442
aF0.72222222222222221
aF0.72222222222222221
aF0.75
aF0.72222222222222221
aF0.72222222222222221
aF0.72222222222222221
aF0.72222222222222221
aF0.69444444444444442
aF0.69444444444444442
aF0.69444444444444442
aF0.69444444444444442
aF0.69444444444444442
aF0.69444444444444442
aF0.69444444444444442
aF0.69444444444444442
aF0.69444444444444442
aF0.69444444444444442
aF0.69444444444444442
aF0.69444444444444442
aF0.69444444444444442
aF0.72222222222222221
aF0.72222222222222221
aF0.72222222222222221
aF0.69444444444444442
aF0.69444444444444442
aF0.69444444444444442
aF0.69444444444444442
aF0.69444444444444442
aF0.69444444444444442
aF0.69444444444444442
aF0.69444444444444442
aF0.69444444444444442
aF0.72222222222222221
aF0.69444444444444442
aF0.69444444444444442
aF0.69444444444444442
aF0.69444444444444442
aF0.69444444444444442
aF0.69444444444444442
aF0.69444444444444442
aF0.66666666666666663
aF0.66666666666666663
aF0.66666666666666663
aF0.63888888888888884
aF0.63888888888888884
aF0.69444444444444442
aF0.69444444444444442
aF0.69444444444444442
aF0.66666666666666663
aF0.69444444444444442
aF0.69444444444444442
aF0.69444444444444442
aF0.69444444444444442
aF0.69444444444444442
aF0.69444444444444442
aF0.69444444444444442
aF0.69444444444444442
aF0.69444444444444442
aF0.66666666666666663
aF0.69444444444444442
aF0.69444444444444442
aa(lp232
F0.41666666666666669
aF0.42857142857142855
aF0.42857142857142855
aF0.41666666666666669
aF0.41666666666666669
aF0.42857142857142855
aF0.42857142857142855
aF0.41666666666666669
aF0.41666666666666669
aF0.41666666666666669
aF0.42857142857142855
aF0.42857142857142855
aF0.41666666666666669
aF0.42857142857142855
aF0.39285714285714285
aF0.39285714285714285
aF0.38095238095238093
aF0.42857142857142855
aF0.39285714285714285
aF0.42857142857142855
aF0.39285714285714285
aF0.39285714285714285
aF0.39285714285714285
aF0.39285714285714285
aF0.35714285714285715
aF0.39285714285714285
aF0.35714285714285715
aF0.36904761904761907
aF0.35714285714285715
aF0.38095238095238093
aF0.39285714285714285
aF0.38095238095238093
aF0.38095238095238093
aF0.39285714285714285
aF0.39285714285714285
aF0.35714285714285715
aF0.39285714285714285
aF0.39285714285714285
aF0.35714285714285715
aF0.35714285714285715
aF0.36904761904761907
aF0.44047619047619047
aF0.42857142857142855
aF0.41666666666666669
aF0.41666666666666669
aF0.38095238095238093
aF0.41666666666666669
aF0.42857142857142855
aF0.38095238095238093
aF0.41666666666666669
aF0.42857142857142855
aF0.41666666666666669
aF0.42857142857142855
aF0.42857142857142855
aF0.42857142857142855
aF0.41666666666666669
aF0.42857142857142855
aF0.42857142857142855
aF0.41666666666666669
aF0.39285714285714285
aF0.38095238095238093
aF0.39285714285714285
aF0.38095238095238093
aF0.39285714285714285
aF0.38095238095238093
aF0.40476190476190477
aF0.40476190476190477
aF0.38095238095238093
aF0.39285714285714285
aF0.38095238095238093
aF0.40476190476190477
aF0.35714285714285715
aF0.42857142857142855
aF0.41666666666666669
aF0.41666666666666669
aF0.41666666666666669
aF0.44047619047619047
aF0.42857142857142855
aF0.41666666666666669
aF0.41666666666666669
aF0.41666666666666669
aF0.41666666666666669
aF0.44047619047619047
aF0.41666666666666669
aF0.42857142857142855
aF0.38095238095238093
aF0.42857142857142855
aF0.38095238095238093
aF0.40476190476190477
aF0.42857142857142855
aF0.38095238095238093
aF0.41666666666666669
aF0.41666666666666669
aF0.41666666666666669
aF0.42857142857142855
aF0.38095238095238093
aF0.41666666666666669
aF0.42857142857142855
aF0.38095238095238093
aF0.38095238095238093
aF0.39285714285714285
aF0.42857142857142855
aF0.42857142857142855
aF0.39285714285714285
aF0.42857142857142855
aF0.38095238095238093
aF0.38095238095238093
aF0.38095238095238093
aF0.38095238095238093
aF0.42857142857142855
aF0.41666666666666669
aF0.41666666666666669
aF0.41666666666666669
aF0.41666666666666669
aF0.42857142857142855
aF0.39285714285714285
aF0.38095238095238093
aF0.38095238095238093
aF0.36904761904761907
aF0.38095238095238093
aF0.38095238095238093
aF0.39285714285714285
aF0.35714285714285715
aF0.35714285714285715
aF0.41666666666666669
aF0.41666666666666669
aF0.41666666666666669
aF0.39285714285714285
aF0.39285714285714285
aF0.42857142857142855
aF0.38095238095238093
aF0.38095238095238093
aF0.38095238095238093
aF0.38095238095238093
aF0.38095238095238093
aF0.39285714285714285
aF0.38095238095238093
aF0.39285714285714285
aF0.40476190476190477
aF0.39285714285714285
aF0.39285714285714285
aF0.39285714285714285
aF0.35714285714285715
aF0.35714285714285715
aF0.35714285714285715
aF0.35714285714285715
aF0.35714285714285715
aF0.41666666666666669
aF0.42857142857142855
aF0.41666666666666669
aF0.38095238095238093
aF0.38095238095238093
aF0.39285714285714285
aF0.39285714285714285
aF0.40476190476190477
aF0.39285714285714285
aF0.39285714285714285
aF0.35714285714285715
aF0.35714285714285715
aF0.38095238095238093
aF0.39285714285714285
aF0.41666666666666669
aF0.39285714285714285
aF0.38095238095238093
aF0.39285714285714285
aF0.38095238095238093
aF0.35714285714285715
aF0.35714285714285715
aF0.36904761904761907
aF0.35714285714285715
aF0.35714285714285715
aF0.35714285714285715
aF0.35714285714285715
aF0.35714285714285715
aF0.36904761904761907
aF0.35714285714285715
aF0.35714285714285715
aF0.35714285714285715
aF0.36904761904761907
aF0.39285714285714285
aF0.38095238095238093
aF0.39285714285714285
aF0.35714285714285715
aF0.35714285714285715
aF0.36904761904761907
aF0.35714285714285715
aF0.35714285714285715
aF0.36904761904761907
aF0.36904761904761907
aF0.35714285714285715
aF0.35714285714285715
aF0.39285714285714285
aF0.36904761904761907
aF0.35714285714285715
aF0.36904761904761907
aF0.36904761904761907
aF0.42857142857142855
aF0.35714285714285715
aF0.35714285714285715
aF0.40476190476190477
aF0.39285714285714285
aF0.39285714285714285
aF0.36904761904761907
aF0.36904761904761907
aF0.35714285714285715
aF0.35714285714285715
aF0.36904761904761907
aF0.41666666666666669
aF0.35714285714285715
aF0.35714285714285715
aF0.36904761904761907
aF0.35714285714285715
aF0.35714285714285715
aF0.35714285714285715
aF0.35714285714285715
aF0.35714285714285715
aF0.36904761904761907
aF0.38095238095238093
aF0.35714285714285715
aF0.35714285714285715
aa(lp233
I5
aI4
aI4
aI5
aI5
aI5
aI4
aI5
aI5
aI5
aI4
aI4
aI5
aI5
aI4
aI3
aI4
aI4
aI4
aI4
aI3
aI3
aI4
aI4
aI3
aI3
aI3
aI2
aI3
aI4
aI4
aI4
aI4
aI4
aI4
aI4
aI4
aI4
aI3
aI4
aI3
aI5
aI4
aI4
aI4
aI3
aI4
aI3
aI3
aI4
aI4
aI4
aI4
aI3
aI3
aI4
aI4
aI4
aI4
aI3
aI4
aI3
aI3
aI3
aI3
aI2
aI2
aI3
aI3
aI3
aI2
aI2
aI3
aI4
aI4
aI4
aI3
aI4
aI4
aI4
aI5
aI4
aI3
aI4
aI4
aI4
aI4
aI4
aI5
aI4
aI4
aI5
aI5
aI4
aI4
aI4
aI4
aI4
aI4
aI4
aI3
aI4
aI4
aI3
aI4
aI4
aI4
aI4
aI4
aI3
aI4
aI4
aI4
aI4
aI4
aI3
aI4
aI4
aI2
aI4
aI4
aI3
aI2
aI3
aI4
aI5
aI4
aI3
aI4
aI5
aI4
aI4
aI4
aI4
aI4
aI4
aI5
aI4
aI3
aI4
aI4
aI4
aI3
aI3
aI3
aI3
aI4
aI4
aI3
aI4
aI3
aI3
aI3
aI3
aI3
aI3
aI4
aI2
aI3
aI3
aI3
aI5
aI3
aI4
aI3
aI4
aI3
aI3
aI2
aI3
aI3
aI3
aI3
aI3
aI3
aI3
aI3
aI3
aI2
aI3
aI3
aI3
aI2
aI2
aI2
aI2
aI3
aI2
aI2
aI3
aI2
aI3
aI3
aI3
aI2
aI3
aI1
aI3
aI2
aI0
aI1
aI1
aI1
aI1
aI3
aI3
aI2
aI0
aI3
aI3
aI3
aI3
aI3
aI3
aI4
aI4
aI3
aI1
aI3
aI3
aa(lp234
I5
aI4
aI4
aI5
aI5
aI5
aI4
aI5
aI5
aI5
aI4
aI4
aI5
aI5
aI4
aI3
aI4
aI4
aI4
aI4
aI3
aI3
aI4
aI4
aI3
aI3
aI3
aI2
aI3
aI4
aI4
aI4
aI4
aI4
aI4
aI4
aI4
aI4
aI3
aI4
aI3
aI5
aI4
aI4
aI4
aI3
aI4
aI3
aI3
aI4
aI4
aI4
aI4
aI3
aI3
aI4
aI4
aI4
aI4
aI3
aI4
aI3
aI3
aI3
aI3
aI2
aI2
aI3
aI3
aI3
aI2
aI2
aI3
aI4
aI4
aI4
aI3
aI4
aI4
aI4
aI5
aI4
aI3
aI4
aI4
aI4
aI4
aI4
aI5
aI4
aI4
aI5
aI5
aI4
aI4
aI4
aI4
aI4
aI4
aI4
aI3
aI4
aI4
aI3
aI4
aI4
aI4
aI4
aI4
aI3
aI4
aI4
aI4
aI4
aI4
aI3
aI4
aI4
aI2
aI4
aI4
aI3
aI2
aI3
aI4
aI5
aI4
aI3
aI4
aI5
aI4
aI4
aI4
aI4
aI4
aI4
aI5
aI4
aI3
aI4
aI4
aI4
aI3
aI3
aI3
aI3
aI4
aI4
aI3
aI4
aI3
aI3
aI3
aI3
aI3
aI3
aI4
aI2
aI3
aI3
aI3
aI5
aI3
aI4
aI3
aI4
aI3
aI3
aI2
aI3
aI3
aI3
aI3
aI3
aI3
aI3
aI3
aI3
aI2
aI3
aI3
aI3
aI2
aI2
aI2
aI2
aI3
aI2
aI2
aI3
aI2
aI3
aI3
aI3
aI2
aI3
aI1
aI3
aI2
aI0
aI1
aI1
aI1
aI1
aI3
aI3
aI2
aI0
aI3
aI3
aI3
aI3
aI3
aI3
aI4
aI4
aI3
aI1
aI4
aI3
aa(lp235
g7
(g9
S'\xa6BX#~P\x10C'
tRp236
ag7
(g9
S'\xbc\xd9\x03k\x89\x8b\xca\xc2'
tRp237
ag7
(g9
S'<P\xb9(\r\x91\xc3\xc2'
tRp238
ag7
(g9
S'N&\x0f\x1f\x977\xdf\xc2'
tRp239
ag7
(g9
S'#\xed{v\xb7B\xfbB'
tRp240
ag7
(g9
S'\x9b]\xfe\xde\xe5y\xdc\xc2'
tRp241
ag7
(g9
S'\xd3\xec\xe9{\xd0N\xb9B'
tRp242
ag7
(g9
S'\x14\xc7q\x1c\xc7q\xdc\xc2'
tRp243
ag7
(g9
S'\xe6\x82\x15!\xefL\xd5\xc2'
tRp244
ag7
(g9
S'\x18`\x18\x97&\xd9\xc9\xc2'
tRp245
ag7
(g9
S'I\x85V\xe7\xd0\xa0\xcd\xc2'
tRp246
ag7
(g9
S'\x17**{\xe9}\xb5\xc2'
tRp247
ag7
(g9
S'\x1b\xb5\x86\xd5\xa6\x8f\xd0\xc2'
tRp248
ag7
(g9
S'{\xa0\xf8\x87\x84Q\xf7B'
tRp249
ag7
(g9
S'\xc7\xe2*\x91\xb4\x11\xc7\xc2'
tRp250
ag7
(g9
S'\xe4\x83\xe1.\xbc\xd6\xe8\xc2'
tRp251
ag7
(g9
S'\x1c`\xa5ipF\xc3\xc2'
tRp252
ag7
(g9
S'`\xbe\xdaO*\xb9\xbc\xc2'
tRp253
ag7
(g9
S'\xb7r2pmC\xec\xc2'
tRp254
ag7
(g9
S'\xd5\t!\x08\xfc;\xc0\xc2'
tRp255
ag7
(g9
S'\x7f\n\xa2\xc2\xbe\xd4\xc7\xc2'
tRp256
ag7
(g9
S'\xc3\x9f\x01\x03\x88%\xb7\xc2'
tRp257
ag7
(g9
S'>\x88>SQ\xc2\xbd\xc2'
tRp258
ag7
(g9
S'\xf3\xd3\xa6kG\x11\xcaB'
tRp259
ag7
(g9
S'\xc3\x9c"\xf0\xeb\x9f\xd5B'
tRp260
ag7
(g9
S'\x871L?aC\xdbB'
tRp261
ag7
(g9
S'\xdb"P&\x19\x86\xd5\xc2'
tRp262
ag7
(g9
S'\xb5x\x92x\x9e\xb3\xc7B'
tRp263
ag7
(g9
S'\xa8\x98\xbf\xf0\x98\xac\xb9\xc2'
tRp264
ag7
(g9
S'>\xbc\x17\xb5\xcb\x1a\xbe\xc2'
tRp265
ag7
(g9
S'x\xb1EZ\x9d^\xc8\xc2'
tRp266
ag7
(g9
S'\xf6=\xf2.\xb46\xb8\xc2'
tRp267
ag7
(g9
S'\x14\xf9]\xc7\xd4\xad\xbdB'
tRp268
ag7
(g9
S'.\x01\x81\x1fB\xc1\x00C'
tRp269
ag7
(g9
S'\x82H\xd33\xa9\x04\xcb\xc2'
tRp270
ag7
(g9
S'6\x19dD\xda(\xc8\xc2'
tRp271
ag7
(g9
S'\xec!\x0c\xbe)\x80t\xc3'
tRp272
ag7
(g9
S'\x0e\xa1\n\xe7\nf\xcf\xc2'
tRp273
ag7
(g9
S'D;\xb4\xd6\xda\x90\xe0B'
tRp274
ag7
(g9
S'\x7f\x84\xe0\xd6\x89\xc8\xe2B'
tRp275
ag7
(g9
S'\xc1\xf5\x03<3\x07\xe0\xc2'
tRp276
ag7
(g9
S'H0\xaf~\x16/\xc0B'
tRp277
ag7
(g9
S't~\xf8\xb4\x18%\x15\xc3'
tRp278
ag7
(g9
S'4%\x06\xfcMV\xbd\xc2'
tRp279
ag7
(g9
S'\xb4\x9f\nc\xdd\xeeEC'
tRp280
ag7
(g9
S'\xa8S\x87\xb1N>\xba\xc2'
tRp281
ag7
(g9
S'\x82&L\xad"s\xe4B'
tRp282
ag7
(g9
S'\x0b?\xb9\x00n\xe6\xd7B'
tRp283
ag7
(g9
S'\x0f~\x18\xba"_\xe0\xc2'
tRp284
ag7
(g9
S'\xe7\x9aX\xa2\nJ\xcf\xc2'
tRp285
ag7
(g9
S'\xf34|J\xe4\x9e\xe6B'
tRp286
ag7
(g9
S'n\x10D\xe0L\x02\x06\xc3'
tRp287
ag7
(g9
S'\x0c\xa2\xc9\x88\x14\x8b\xce\xc2'
tRp288
ag7
(g9
S'\r\xbb\xa3\x92r\x0f\xd5B'
tRp289
ag7
(g9
S'\x00_\xba\x0c\x1dy\xc1B'
tRp290
ag7
(g9
S'n\xae\xaf\x06.\xa2\xc5\xc2'
tRp291
ag7
(g9
S'N\x96\xc30\xa8t\xccB'
tRp292
ag7
(g9
S'\x0b\x9d\xc6\xf9#\xde\xcfB'
tRp293
ag7
(g9
S'\xaf\xe9*]\x0c9\xe5\xc2'
tRp294
ag7
(g9
S'{\x89\x9c\xc0\xd8v\xceB'
tRp295
ag7
(g9
S'\xfe\xdc\xc4@\xb4{\xdcB'
tRp296
ag7
(g9
S',\xd0\xe0\x97\xc9\xb1\xc0\xc2'
tRp297
ag7
(g9
S'V\x90\x19\x13\x8dr\xd1\xc2'
tRp298
ag7
(g9
S'@q\xf9\xdbFp\xd0B'
tRp299
ag7
(g9
S'ck\xc8+\xb3\xd6\xe8B'
tRp300
ag7
(g9
S'lK\x01 _\xb7\xd4\xc2'
tRp301
ag7
(g9
S'Lg<\xd3\xa5!\xdaB'
tRp302
ag7
(g9
S'\xca\xa0\xd1`#\x8d\xc1B'
tRp303
ag7
(g9
S"E\xe1'\x1b8\xc0\xe2B"
tRp304
ag7
(g9
S'p\xf4"\xc0\xda\x96\xec\xc2'
tRp305
ag7
(g9
S'$Q\xce\xa0\xc8E\xe8\xc2'
tRp306
ag7
(g9
S'%}\xaby\xac\x0b\xe5B'
tRp307
ag7
(g9
S'\xa5w\x19|\x9d\x8a\x0fC'
tRp308
ag7
(g9
S'\xe6\x0e)3sn\xb6\xc2'
tRp309
ag7
(g9
S'\x12\ro@\x07d\xc7B'
tRp310
ag7
(g9
S'U\x85\xe6\xd6\xe3\x92\xe0\xc2'
tRp311
ag7
(g9
S'\xc4\x88\xc7\xa3b*\xd1B'
tRp312
ag7
(g9
S'\xc1\x00\xd6\x0c\x99r\xb5\xc2'
tRp313
ag7
(g9
S'\xacg\x8be\xe1\xe8\x00\xc3'
tRp314
ag7
(g9
S'\xbcl\x97\x8f>\xa5\xcb\xc2'
tRp315
ag7
(g9
S'\x13\xc7q\x1c\xc7q\xdc\xc2'
tRp316
ag7
(g9
S'U\x00\xf6\xfc\xde;\xeb\xc2'
tRp317
ag7
(g9
S'\xdc;I1\xe9\xed\xb4B'
tRp318
ag7
(g9
S'd\x05\x0c}\xf4\x9a\xc0\xc2'
tRp319
ag7
(g9
S'\xa4\xa2+X\x82@\xe1\xc2'
tRp320
ag7
(g9
S'3\xb9\x00(\x8d0\xd7B'
tRp321
ag7
(g9
S'\xb2@\x13/\xa5\xe0\xbdB'
tRp322
ag7
(g9
S'\x96\xae\xc6\xb1\xf7\x18\xd2\xc2'
tRp323
ag7
(g9
S'\x92`\xa7I\xe0\xe0\xde\xc2'
tRp324
ag7
(g9
S'\x1c\xa4\x83\xf8\x9e\xae\xd8\xc2'
tRp325
ag7
(g9
S'\xfd\xc7\xe2\xe5!\xfd\xd5\xc2'
tRp326
ag7
(g9
S'\x8e\xbdPN\xfa\x00\xcd\xc2'
tRp327
ag7
(g9
S' \xd4D\xb6\xcc!\xc7B'
tRp328
ag7
(g9
S'\x8bJ\xbd\xe6\xd3\xde\xc0B'
tRp329
ag7
(g9
S'g\x95X\x9f\xa1*9\xc3'
tRp330
ag7
(g9
S'\xc70\x10n\x14\xac\xf4B'
tRp331
ag7
(g9
S'!\x060\xcc\x86;\xb2\xc2'
tRp332
ag7
(g9
S'\x91\xdfE\xdc\x04v\xbaB'
tRp333
ag7
(g9
S'Zy\xf5\x8f\xac\x8a\tC'
tRp334
ag7
(g9
S'T\x9e\\\x7f\xd1D\xd7B'
tRp335
ag7
(g9
S'\x0c\xaa\x85{\x91\xe8\xdd\xc2'
tRp336
ag7
(g9
S'\x83\xe1/\x94\xb68\xc7B'
tRp337
ag7
(g9
S'v3\xeb\xd6\x83\xd1\xd3\xc2'
tRp338
ag7
(g9
S'\x0e\xd5\x90\x96\xac\xfe\xd2\xc2'
tRp339
ag7
(g9
S'\x87\xf1\x88]\x00\xfd\xc9\xc2'
tRp340
ag7
(g9
S'z\xac\xc9\x7fi2\xe8\xc2'
tRp341
ag7
(g9
S'\xa7\x96\xad\xa9\x89\xff\xbcB'
tRp342
ag7
(g9
S'\xe2j\xd7\x9f\xa9v\xd4\xc2'
tRp343
ag7
(g9
S'\xe8\x03\x03l\x13\x15\xcb\xc2'
tRp344
ag7
(g9
S'\xf0\x1a\x8f\x1a\xc7{\x03\xc3'
tRp345
ag7
(g9
S'0q,2\xf2k\xcc\xc2'
tRp346
ag7
(g9
S'\xc4{0\x84\xd5\xab\xc8B'
tRp347
ag7
(g9
S'(\xfe\x06\xbe\x89\x10\t\xc3'
tRp348
ag7
(g9
S'\x02)\xf9\xa9\x9c\x89\xffB'
tRp349
ag7
(g9
S'Q\xa9\\!\x1a\xaf\x18C'
tRp350
ag7
(g9
S'lpY?5\x10\xb3\xc2'
tRp351
ag7
(g9
S'\x1c\x10\\\x81h\xc9\xd0B'
tRp352
ag7
(g9
S'\xd4`\xb1\xba\xa0\x9b\xc7B'
tRp353
ag7
(g9
S';\xb6\xef2,.\xcfB'
tRp354
ag7
(g9
S'i\xf6\xb3\x90\xd5\x01\xdeB'
tRp355
ag7
(g9
S'\x05\xcd\x11\xd7\x02\x97\xc8\xc2'
tRp356
ag7
(g9
S'2WU!\xab\xaa\xedB'
tRp357
ag7
(g9
S'\xa4\xfc&[GK\xd1B'
tRp358
ag7
(g9
S'\xea9\xb8\xd7\xc7\xed\xd0B'
tRp359
ag7
(g9
S'\xac\x8e\x8dk\xd7\xed\xc4\xc2'
tRp360
ag7
(g9
S'\x82SY\xfae\x7fn\xc3'
tRp361
ag7
(g9
S"\xbd\x94-\x14'\x0b\xe1\xc2"
tRp362
ag7
(g9
S'\xe6h!\xa1\xee|\x10\xc3'
tRp363
ag7
(g9
S'S/\xa1\xbd\x84\xf6\xc2\xc2'
tRp364
ag7
(g9
S'\x14{v\xcd/\x8e\xd1B'
tRp365
ag7
(g9
S'\xb1\xaf\xbbH\x10\xba\xc4B'
tRp366
ag7
(g9
S'\x04!\xc9&\xcf\xe2\x05\xc3'
tRp367
ag7
(g9
S'yi/\x86\xc5\xe0\xb6\xc2'
tRp368
ag7
(g9
S'\xc8\x11\xd2\x1b\xa7\n\nC'
tRp369
ag7
(g9
S'\xacm\xd3\xd7\x08\xd2\xedB'
tRp370
ag7
(g9
S'l\xdb\x14`-\xce\x05\xc3'
tRp371
ag7
(g9
S'/\xab/Ae\xc9\xd0B'
tRp372
ag7
(g9
S'\xb7\xdfH\xa0\x9f\xbc\xb6B'
tRp373
ag7
(g9
S'\xed7S_!s\xcaB'
tRp374
ag7
(g9
S'\x0c\x06D\xcd\xdfB\xbeB'
tRp375
ag7
(g9
S'\x8e\xf5\xd5\xdd\xebo\xf4\xc2'
tRp376
ag7
(g9
S'\xdc382r\xd9\xc8\xc2'
tRp377
ag7
(g9
S'\x0f\xa1\x8a\xeed"\xdbB'
tRp378
ag7
(g9
S'\x9f\x03`\xe7 )\x04\xc3'
tRp379
ag7
(g9
S'\x94\xe3\xad\xed\xc6|\xdd\xc2'
tRp380
ag7
(g9
S'\x1c\x01\xbd\xa2=\x84\xe7\xc2'
tRp381
ag7
(g9
S"O\xee\xab0':\xf4B"
tRp382
ag7
(g9
S'`\x93Lf\xbaq\xcc\xc2'
tRp383
ag7
(g9
S'c\xce\xeb(3\xf1\xc4B'
tRp384
ag7
(g9
S'%+K\x85\xb3\xc2\xcb\xc2'
tRp385
ag7
(g9
S'\x0c\xb5\xee\xf3\xe2\x19\xcc\xc2'
tRp386
ag7
(g9
S'\x04gX\xe3G\xc1\xf9\xc2'
tRp387
ag7
(g9
S'\xe8\x0f)v\xb4\xee\xd4\xc2'
tRp388
ag7
(g9
S'\xad+*0ih\xc4\xc2'
tRp389
ag7
(g9
S'l\x15\xd2)\x00\xb3\xdc\xc2'
tRp390
ag7
(g9
S'\xa2\x80\x96\x12\xc6\x9f\xceB'
tRp391
ag7
(g9
S';O \x19n\x08\xc4B'
tRp392
ag7
(g9
S'r\xbb\xc3T\xc2J\xf1\xc2'
tRp393
ag7
(g9
S'<\xbf\xd5\xca+\x90\xecB'
tRp394
ag7
(g9
S'\x12\x10\r1?\x1d\xc3\xc2'
tRp395
ag7
(g9
S'R\xb5h\xc9l\xd1\xc0B'
tRp396
ag7
(g9
S'?\xba\x80jb?\xd9\xc2'
tRp397
ag7
(g9
S'\xb2vvk\x84( C'
tRp398
ag7
(g9
S'\x85\x08\xd1\xdd\xcb\xca\x01\xc3'
tRp399
ag7
(g9
S'\xfcI~k\xb6\xb5\xc9\xc2'
tRp400
ag7
(g9
S'\xbc\xa6\x8b>G\x89\xd9\xc2'
tRp401
ag7
(g9
S'\xf3z\xf6\x06\xaf\xa4\xea\xc2'
tRp402
ag7
(g9
S'f\x85\x86\xb4_R\xd7\xc2'
tRp403
ag7
(g9
S'GGC+>\xcd\xc5\xc2'
tRp404
ag7
(g9
S'\x8c\x8a@\xfd\x03?\xc5B'
tRp405
ag7
(g9
S':\xc6\xd3\xcb\x9c\xc9\x11C'
tRp406
ag7
(g9
S'\x00V\x1e\x07Fj\xe0\xc2'
tRp407
ag7
(g9
S'\xe4\t\xa7\xbd\x8e&\xdc\xc2'
tRp408
ag7
(g9
S'\x9f#\xb8E\xfc@\xe1\xc2'
tRp409
ag7
(g9
S'\xdcHGC\x08\x82\x11C'
tRp410
ag7
(g9
S'\x05\xf7 \xaf\xd3\xa2 \xc3'
tRp411
ag7
(g9
S'\x17\xdc6\xf9\x91\x13\xe6B'
tRp412
ag7
(g9
S'\xc9\x05\x1b\x1dF\xee\xf4B'
tRp413
ag7
(g9
S'\xa4\xb0C\xd3\x9a\x89\xca\xc2'
tRp414
ag7
(g9
S'\x8f\xd8e\xe4\xean\xc1B'
tRp415
ag7
(g9
S'\x11\xe6\x88\xda\x8c\x17\xe4\xc2'
tRp416
ag7
(g9
S'\x106\x9e$^\xe5\xf5\xc2'
tRp417
ag7
(g9
S'3GU\xa2Ok\xb4\xc2'
tRp418
ag7
(g9
S'\x10\xdeQRG\xad\xe9\xc2'
tRp419
ag7
(g9
S'\x8e\xd3\xb3\xa9\xe0\xda\xce\xc2'
tRp420
ag7
(g9
S'|z\x1f\x1c\xd8\xd9\xd6\xc2'
tRp421
ag7
(g9
S'\xe6\xb8\x8b\xb7d\xc0\xc6\xc2'
tRp422
ag7
(g9
S'\xa6\x1aj\xe2\x89\xc5\xea\xc2'
tRp423
ag7
(g9
S'\xe5"\xea\xba\xb6\x97\xcdB'
tRp424
ag7
(g9
S'\xcb\xf6\xd8|\xac8\xd5B'
tRp425
ag7
(g9
S'\xebe\x84K1\xab\xbbB'
tRp426
ag7
(g9
S'\xb1\xf80)\xf10\xc5B'
tRp427
ag7
(g9
S'\xecf\xd5\xc6\xab\xc2\xb1\xc2'
tRp428
ag7
(g9
S'\xec\xa0+@4\t\xd2\xc2'
tRp429
ag7
(g9
S'\xe2\xef\x1d\x07D\x82\xbc\xc2'
tRp430
ag7
(g9
S'\xa7\xae\xcf\xd9,\xc6\xd9\xc2'
tRp431
ag7
(g9
S'\x9c\x0c{\xc9\xba\xd3\xd9B'
tRp432
ag7
(g9
S'\xb2\x9bR\xf5cj\xd0B'
tRp433
ag7
(g9
S'\x8d&\t\xa5\xe22\xc5B'
tRp434
ag7
(g9
S'kL\x85\x13\xf7/\xbe?'
tRp435
ag7
(g9
S'q/\xa1\xbd\x84\xf6\xe2B'
tRp436
ag7
(g9
S'\xc9\xcai$c\x12\xdc\xc2'
tRp437
ag7
(g9
S'\x0c\xd4\x85\x1a\x83\xf6\xe2\xc2'
tRp438
ag7
(g9
S'\x8c\x16\xd1\xc6\xa0/\xe7\xc2'
tRp439
ag7
(g9
S'\x89b8>/`\xe4\xc2'
tRp440
ag7
(g9
S'\xa1\xe1\xe9\xbf\x84\xf6\xd2B'
tRp441
ag7
(g9
S'%2\xd3\x05r\xdf\xbb\xc2'
tRp442
ag7
(g9
S'6\xaa>*\x1c\x8e\xf2B'
tRp443
ag7
(g9
S'2\x13\x98K\xe3\xe8\xd5B'
tRp444
ag7
(g9
S'\xd2cL\xd4\xfc[\xd0B'
tRp445
ag7
(g9
S'p\x82@ \xa0\x08\xebB'
tRp446
ag7
(g9
S'\re\xa4\x93\xf6\xb8\xc1B'
tRp447
ag7
(g9
S'\x8b\xb445^J\xbeB'
tRp448
ag7
(g9
S'\xaf\x14\xbe\xa9\xb3k\xd8B'
tRp449
ag7
(g9
S'lS\xd7\x85\x05\x86\xc5B'
tRp450
ag7
(g9
S'\x1d\xc8\x1b\xdf\xd1\xf9\xe3\xc2'
tRp451
ag7
(g9
S'\xcaV\xb0\x97\xf5k\xcaB'
tRp452
ag7
(g9
S'p\xce8b\xa3\x15\x13C'
tRp453
ag7
(g9
S'$r\xbe\xe5\xc1\x0c\xd4\xc3'
tRp454
ag7
(g9
S'\xb0\xf0\xa6-\xda\xb6\xc8\xc2'
tRp455
aa.