(lp1
ccopy_reg
_reconstructor
p2
(cnetworkx.classes.graph
Graph
p3
c__builtin__
object
p4
NtRp5
(dp6
S'adjlist_inner_dict_factory'
p7
c__builtin__
dict
p8
sS'node_dict_factory'
p9
g8
sS'root_graph'
p10
g5
sS'edge_attr_dict_factory'
p11
g8
sS'_node'
p12
(dp13
I0
(dp14
sI1
(dp15
sI2
(dp16
sI3
(dp17
sI4
(dp18
sI5
(dp19
sI6
(dp20
sI7
(dp21
sI8
(dp22
ssS'graph'
p23
(dp24
sS'_adj'
p25
(dp26
I0
(dp27
I8
(dp28
sI3
(dp29
sI6
(dp30
sI7
(dp31
ssI1
(dp32
I8
(dp33
sI4
(dp34
sI5
(dp35
sI6
(dp36
sI7
(dp37
ssI2
(dp38
I8
(dp39
sI4
(dp40
sI5
(dp41
sI6
(dp42
sI7
(dp43
ssI3
(dp44
I0
g29
sI8
(dp45
sI7
(dp46
ssI4
(dp47
I1
g34
sI2
g40
sI5
(dp48
sI6
(dp49
sI7
(dp50
sI8
(dp51
ssI5
(dp52
I1
g35
sI2
g41
sI4
g48
sI6
(dp53
sI7
(dp54
sI8
(dp55
ssI6
(dp56
I0
g30
sI1
g36
sI2
g42
sI4
g49
sI5
g53
sI8
(dp57
ssI7
(dp58
I0
g31
sI1
g37
sI2
g43
sI3
g46
sI4
g50
sI5
g54
sI8
(dp59
ssI8
(dp60
I0
g28
sI1
g33
sI2
g39
sI3
g45
sI4
g51
sI5
g55
sI6
g57
sI7
g59
sssS'adjlist_outer_dict_factory'
p61
g8
sbag2
(g3
g4
NtRp62
(dp63
g7
g8
sg9
g8
sg10
g62
sg11
g8
sg12
(dp64
I0
(dp65
sI1
(dp66
sI2
(dp67
sI3
(dp68
sI4
(dp69
sI5
(dp70
sI6
(dp71
sI7
(dp72
sI8
(dp73
ssg23
(dp74
sg25
(dp75
I0
(dp76
I8
(dp77
sI3
(dp78
sI6
(dp79
sI7
(dp80
ssI1
(dp81
I8
(dp82
sI4
(dp83
sI5
(dp84
sI6
(dp85
sI7
(dp86
ssI2
(dp87
I8
(dp88
sI4
(dp89
sI5
(dp90
sI6
(dp91
sI7
(dp92
ssI3
(dp93
I0
g78
sI8
(dp94
sI6
(dp95
sI7
(dp96
ssI4
(dp97
I1
g83
sI2
g89
sI5
(dp98
sI6
(dp99
sI7
(dp100
sI8
(dp101
ssI5
(dp102
I8
(dp103
sI1
g84
sI2
g90
sI4
g98
ssI6
(dp104
I0
g79
sI1
g85
sI2
g91
sI3
g95
sI4
g99
sI7
(dp105
sI8
(dp106
ssI7
(dp107
I0
g80
sI1
g86
sI2
g92
sI3
g96
sI4
g100
sI6
g105
sI8
(dp108
ssI8
(dp109
I0
g77
sI1
g82
sI2
g88
sI3
g94
sI4
g101
sI5
g103
sI6
g106
sI7
g108
sssg61
g8
sbag2
(g3
g4
NtRp110
(dp111
g7
g8
sg9
g8
sg10
g110
sg11
g8
sg12
(dp112
I0
(dp113
sI1
(dp114
sI2
(dp115
sI3
(dp116
sI4
(dp117
sI5
(dp118
sI6
(dp119
sI7
(dp120
sI8
(dp121
ssg23
(dp122
sg25
(dp123
I0
(dp124
I8
(dp125
sI3
(dp126
sI5
(dp127
sI6
(dp128
sI7
(dp129
ssI1
(dp130
I8
(dp131
sI4
(dp132
sI6
(dp133
sI7
(dp134
ssI2
(dp135
I4
(dp136
ssI3
(dp137
I0
g126
sI8
(dp138
sI5
(dp139
sI6
(dp140
sI7
(dp141
ssI4
(dp142
I1
g132
sI2
g136
sI5
(dp143
sI6
(dp144
sI7
(dp145
sI8
(dp146
ssI5
(dp147
I0
g127
sI3
g139
sI4
g143
sI6
(dp148
sI7
(dp149
sI8
(dp150
ssI6
(dp151
I0
g128
sI1
g133
sI3
g140
sI4
g144
sI5
g148
sI7
(dp152
sI8
(dp153
ssI7
(dp154
I0
g129
sI1
g134
sI3
g141
sI4
g145
sI5
g149
sI6
g152
sI8
(dp155
ssI8
(dp156
I0
g125
sI1
g131
sI3
g138
sI4
g146
sI5
g150
sI6
g153
sI7
g155
sssg61
g8
sbag2
(g3
g4
NtRp157
(dp158
g7
g8
sg9
g8
sg10
g157
sg11
g8
sg12
(dp159
I0
(dp160
sI1
(dp161
sI2
(dp162
sI3
(dp163
sI4
(dp164
sI5
(dp165
sI6
(dp166
sI7
(dp167
sI8
(dp168
ssg23
(dp169
sg25
(dp170
I0
(dp171
I8
(dp172
sI3
(dp173
sI5
(dp174
sI6
(dp175
sI7
(dp176
ssI1
(dp177
I8
(dp178
sI4
(dp179
sI5
(dp180
ssI2
(dp181
I8
(dp182
sI4
(dp183
sI6
(dp184
sI7
(dp185
ssI3
(dp186
I0
g173
sI8
(dp187
sI5
(dp188
sI6
(dp189
sI7
(dp190
ssI4
(dp191
I8
(dp192
sI1
g179
sI2
g183
sI6
(dp193
sI7
(dp194
ssI5
(dp195
I0
g174
sI1
g180
sI3
g188
sI6
(dp196
sI7
(dp197
sI8
(dp198
ssI6
(dp199
I0
g175
sI2
g184
sI3
g189
sI4
g193
sI5
g196
sI7
(dp200
sI8
(dp201
ssI7
(dp202
I0
g176
sI2
g185
sI3
g190
sI4
g194
sI5
g197
sI6
g200
sI8
(dp203
ssI8
(dp204
I0
g172
sI1
g178
sI2
g182
sI3
g187
sI4
g192
sI5
g198
sI6
g201
sI7
g203
sssg61
g8
sbag2
(g3
g4
NtRp205
(dp206
g7
g8
sg9
g8
sg10
g205
sg11
g8
sg12
(dp207
I0
(dp208
sI1
(dp209
sI2
(dp210
sI3
(dp211
sI4
(dp212
sI5
(dp213
sI6
(dp214
sI7
(dp215
sI8
(dp216
ssg23
(dp217
sg25
(dp218
I0
(dp219
I8
(dp220
sI3
(dp221
sI5
(dp222
sI6
(dp223
sI7
(dp224
ssI1
(dp225
I8
(dp226
sI4
(dp227
sI5
(dp228
sI7
(dp229
ssI2
(dp230
I8
(dp231
sI4
(dp232
sI6
(dp233
sI7
(dp234
ssI3
(dp235
I0
g221
sI8
(dp236
sI5
(dp237
sI6
(dp238
sI7
(dp239
ssI4
(dp240
I8
(dp241
sI1
g227
sI2
g232
sI6
(dp242
ssI5
(dp243
I0
g222
sI1
g228
sI3
g237
sI6
(dp244
sI7
(dp245
sI8
(dp246
ssI6
(dp247
I0
g223
sI2
g233
sI3
g238
sI4
g242
sI5
g244
sI7
(dp248
sI8
(dp249
ssI7
(dp250
I0
g224
sI1
g229
sI2
g234
sI3
g239
sI5
g245
sI6
g248
sI8
(dp251
ssI8
(dp252
I0
g220
sI1
g226
sI2
g231
sI3
g236
sI4
g241
sI5
g246
sI6
g249
sI7
g251
sssg61
g8
sbag2
(g3
g4
NtRp253
(dp254
g7
g8
sg9
g8
sg10
g253
sg11
g8
sg12
(dp255
I0
(dp256
sI1
(dp257
sI2
(dp258
sI3
(dp259
sI4
(dp260
sI5
(dp261
sI6
(dp262
sI7
(dp263
sI8
(dp264
ssg23
(dp265
sg25
(dp266
I0
(dp267
I8
(dp268
sI3
(dp269
sI5
(dp270
sI6
(dp271
sI7
(dp272
ssI1
(dp273
I8
(dp274
sI4
(dp275
sI5
(dp276
sI6
(dp277
sI7
(dp278
ssI2
(dp279
I8
(dp280
sI4
(dp281
sI6
(dp282
sI7
(dp283
ssI3
(dp284
I0
g269
sI8
(dp285
sI5
(dp286
sI7
(dp287
ssI4
(dp288
I8
(dp289
sI1
g275
sI2
g281
sI6
(dp290
ssI5
(dp291
I0
g270
sI1
g276
sI3
g286
sI6
(dp292
sI7
(dp293
sI8
(dp294
ssI6
(dp295
I0
g271
sI1
g277
sI2
g282
sI4
g290
sI5
g292
sI7
(dp296
sI8
(dp297
ssI7
(dp298
I0
g272
sI1
g278
sI2
g283
sI3
g287
sI5
g293
sI6
g296
sI8
(dp299
ssI8
(dp300
I0
g268
sI1
g274
sI2
g280
sI3
g285
sI4
g289
sI5
g294
sI6
g297
sI7
g299
sssg61
g8
sbag2
(g3
g4
NtRp301
(dp302
g7
g8
sg9
g8
sg10
g301
sg11
g8
sg12
(dp303
I0
(dp304
sI1
(dp305
sI2
(dp306
sI3
(dp307
sI4
(dp308
sI5
(dp309
sI6
(dp310
sI7
(dp311
sI8
(dp312
ssg23
(dp313
sg25
(dp314
I0
(dp315
I8
(dp316
sI3
(dp317
sI5
(dp318
sI6
(dp319
sI7
(dp320
ssI1
(dp321
I8
(dp322
sI4
(dp323
sI5
(dp324
sI6
(dp325
ssI2
(dp326
I8
(dp327
sI4
(dp328
sI7
(dp329
ssI3
(dp330
I0
g317
sI8
(dp331
sI5
(dp332
sI6
(dp333
sI7
(dp334
ssI4
(dp335
I1
g323
sI2
g328
sI5
(dp336
sI6
(dp337
sI7
(dp338
ssI5
(dp339
I0
g318
sI1
g324
sI3
g332
sI4
g336
sI6
(dp340
sI7
(dp341
sI8
(dp342
ssI6
(dp343
I0
g319
sI1
g325
sI3
g333
sI4
g337
sI5
g340
sI7
(dp344
sI8
(dp345
ssI7
(dp346
I0
g320
sI2
g329
sI3
g334
sI4
g338
sI5
g341
sI6
g344
sI8
(dp347
ssI8
(dp348
I0
g316
sI1
g322
sI2
g327
sI3
g331
sI5
g342
sI6
g345
sI7
g347
sssg61
g8
sbag2
(g3
g4
NtRp349
(dp350
g7
g8
sg9
g8
sg10
g349
sg11
g8
sg12
(dp351
I0
(dp352
sI1
(dp353
sI2
(dp354
sI3
(dp355
sI4
(dp356
sI5
(dp357
sI6
(dp358
sI7
(dp359
sI8
(dp360
ssg23
(dp361
sg25
(dp362
I0
(dp363
I8
(dp364
sI3
(dp365
sI5
(dp366
sI6
(dp367
sI7
(dp368
ssI1
(dp369
I8
(dp370
sI4
(dp371
sI5
(dp372
sI6
(dp373
sI7
(dp374
ssI2
(dp375
I8
(dp376
sI4
(dp377
sI5
(dp378
sI7
(dp379
ssI3
(dp380
I0
g365
sI8
(dp381
sI6
(dp382
ssI4
(dp383
I1
g371
sI2
g377
sI5
(dp384
sI6
(dp385
sI7
(dp386
sI8
(dp387
ssI5
(dp388
I0
g366
sI1
g372
sI2
g378
sI4
g384
sI7
(dp389
sI8
(dp390
ssI6
(dp391
I0
g367
sI1
g373
sI3
g382
sI4
g385
sI7
(dp392
sI8
(dp393
ssI7
(dp394
I0
g368
sI1
g374
sI2
g379
sI4
g386
sI5
g389
sI6
g392
sI8
(dp395
ssI8
(dp396
I0
g364
sI1
g370
sI2
g376
sI3
g381
sI4
g387
sI5
g390
sI6
g393
sI7
g395
sssg61
g8
sbag2
(g3
g4
NtRp397
(dp398
g7
g8
sg9
g8
sg10
g397
sg11
g8
sg12
(dp399
I0
(dp400
sI1
(dp401
sI2
(dp402
sI3
(dp403
sI4
(dp404
sI5
(dp405
sI6
(dp406
sI7
(dp407
sI8
(dp408
ssg23
(dp409
sg25
(dp410
I0
(dp411
I8
(dp412
sI3
(dp413
sI5
(dp414
sI6
(dp415
sI7
(dp416
ssI1
(dp417
I8
(dp418
sI4
(dp419
sI5
(dp420
sI6
(dp421
sI7
(dp422
ssI2
(dp423
I8
(dp424
sI4
(dp425
sI5
(dp426
ssI3
(dp427
I0
g413
sI8
(dp428
sI6
(dp429
sI7
(dp430
ssI4
(dp431
I1
g419
sI2
g425
sI5
(dp432
sI6
(dp433
sI7
(dp434
ssI5
(dp435
I0
g414
sI1
g420
sI2
g426
sI4
g432
sI6
(dp436
sI7
(dp437
sI8
(dp438
ssI6
(dp439
I0
g415
sI1
g421
sI3
g429
sI4
g433
sI5
g436
sI7
(dp440
sI8
(dp441
ssI7
(dp442
I0
g416
sI1
g422
sI3
g430
sI4
g434
sI5
g437
sI6
g440
sI8
(dp443
ssI8
(dp444
I0
g412
sI1
g418
sI2
g424
sI3
g428
sI5
g438
sI6
g441
sI7
g443
sssg61
g8
sbag2
(g3
g4
NtRp445
(dp446
g7
g8
sg9
g8
sg10
g445
sg11
g8
sg12
(dp447
I0
(dp448
sI1
(dp449
sI2
(dp450
sI3
(dp451
sI4
(dp452
sI5
(dp453
sI6
(dp454
sI7
(dp455
sI8
(dp456
ssg23
(dp457
sg25
(dp458
I0
(dp459
I8
(dp460
sI3
(dp461
sI5
(dp462
sI6
(dp463
ssI1
(dp464
I8
(dp465
sI4
(dp466
sI5
(dp467
sI6
(dp468
sI7
(dp469
ssI2
(dp470
I4
(dp471
sI5
(dp472
sI6
(dp473
sI7
(dp474
ssI3
(dp475
I0
g461
sI8
(dp476
sI7
(dp477
ssI4
(dp478
I1
g466
sI2
g471
sI5
(dp479
sI6
(dp480
sI7
(dp481
sI8
(dp482
ssI5
(dp483
I0
g462
sI1
g467
sI2
g472
sI4
g479
sI6
(dp484
sI7
(dp485
sI8
(dp486
ssI6
(dp487
I0
g463
sI1
g468
sI2
g473
sI4
g480
sI5
g484
sI7
(dp488
sI8
(dp489
ssI7
(dp490
I1
g469
sI2
g474
sI3
g477
sI4
g481
sI5
g485
sI6
g488
sI8
(dp491
ssI8
(dp492
I0
g460
sI1
g465
sI3
g476
sI4
g482
sI5
g486
sI6
g489
sI7
g491
sssg61
g8
sbag2
(g3
g4
NtRp493
(dp494
g7
g8
sg9
g8
sg10
g493
sg11
g8
sg12
(dp495
I0
(dp496
sI1
(dp497
sI2
(dp498
sI3
(dp499
sI4
(dp500
sI5
(dp501
sI6
(dp502
sI7
(dp503
sI8
(dp504
ssg23
(dp505
sg25
(dp506
I0
(dp507
I8
(dp508
sI3
(dp509
sI5
(dp510
sI6
(dp511
sI7
(dp512
ssI1
(dp513
I8
(dp514
sI4
(dp515
sI5
(dp516
sI6
(dp517
sI7
(dp518
ssI2
(dp519
I8
(dp520
sI4
(dp521
sI5
(dp522
sI6
(dp523
ssI3
(dp524
I0
g509
sI8
(dp525
sI7
(dp526
ssI4
(dp527
I1
g515
sI2
g521
sI5
(dp528
sI6
(dp529
sI7
(dp530
ssI5
(dp531
I0
g510
sI1
g516
sI2
g522
sI4
g528
sI6
(dp532
sI7
(dp533
sI8
(dp534
ssI6
(dp535
I0
g511
sI1
g517
sI2
g523
sI4
g529
sI5
g532
sI7
(dp536
sI8
(dp537
ssI7
(dp538
I0
g512
sI1
g518
sI3
g526
sI4
g530
sI5
g533
sI6
g536
sI8
(dp539
ssI8
(dp540
I0
g508
sI1
g514
sI2
g520
sI3
g525
sI5
g534
sI6
g537
sI7
g539
sssg61
g8
sbag2
(g3
g4
NtRp541
(dp542
g7
g8
sg9
g8
sg10
g541
sg11
g8
sg12
(dp543
I0
(dp544
sI1
(dp545
sI2
(dp546
sI3
(dp547
sI4
(dp548
sI5
(dp549
sI6
(dp550
sI7
(dp551
sI8
(dp552
ssg23
(dp553
sg25
(dp554
I0
(dp555
I8
(dp556
sI3
(dp557
sI5
(dp558
sI6
(dp559
sI7
(dp560
ssI1
(dp561
I8
(dp562
sI4
(dp563
sI5
(dp564
sI6
(dp565
sI7
(dp566
ssI2
(dp567
I8
(dp568
sI4
(dp569
sI5
(dp570
sI6
(dp571
sI7
(dp572
ssI3
(dp573
I0
g557
sI8
(dp574
sI7
(dp575
ssI4
(dp576
I1
g563
sI2
g569
sI5
(dp577
sI6
(dp578
ssI5
(dp579
I0
g558
sI1
g564
sI2
g570
sI4
g577
sI6
(dp580
sI7
(dp581
sI8
(dp582
ssI6
(dp583
I0
g559
sI1
g565
sI2
g571
sI4
g578
sI5
g580
sI7
(dp584
sI8
(dp585
ssI7
(dp586
I0
g560
sI1
g566
sI2
g572
sI3
g575
sI5
g581
sI6
g584
sI8
(dp587
ssI8
(dp588
I0
g556
sI1
g562
sI2
g568
sI3
g574
sI5
g582
sI6
g585
sI7
g587
sssg61
g8
sbag2
(g3
g4
NtRp589
(dp590
g7
g8
sg9
g8
sg10
g589
sg11
g8
sg12
(dp591
I0
(dp592
sI1
(dp593
sI2
(dp594
sI3
(dp595
sI4
(dp596
sI5
(dp597
sI6
(dp598
sI7
(dp599
sI8
(dp600
ssg23
(dp601
sg25
(dp602
I0
(dp603
I3
(dp604
sI4
(dp605
sI5
(dp606
sI6
(dp607
sI7
(dp608
sI8
(dp609
ssI1
(dp610
I8
(dp611
sI5
(dp612
sI6
(dp613
sI7
(dp614
ssI2
(dp615
sI3
(dp616
I0
g604
sI4
(dp617
sI5
(dp618
sI6
(dp619
sI7
(dp620
sI8
(dp621
ssI4
(dp622
I0
g605
sI3
g617
sI5
(dp623
sI6
(dp624
sI7
(dp625
sI8
(dp626
ssI5
(dp627
I0
g606
sI1
g612
sI3
g618
sI4
g623
sI7
(dp628
sI8
(dp629
ssI6
(dp630
I0
g607
sI1
g613
sI3
g619
sI4
g624
sI7
(dp631
sI8
(dp632
ssI7
(dp633
I0
g608
sI1
g614
sI3
g620
sI4
g625
sI5
g628
sI6
g631
sI8
(dp634
ssI8
(dp635
I0
g609
sI1
g611
sI3
g621
sI4
g626
sI5
g629
sI6
g632
sI7
g634
sssg61
g8
sbag2
(g3
g4
NtRp636
(dp637
g7
g8
sg9
g8
sg10
g636
sg11
g8
sg12
(dp638
I0
(dp639
sI1
(dp640
sI2
(dp641
sI3
(dp642
sI4
(dp643
sI5
(dp644
sI6
(dp645
sI7
(dp646
sI8
(dp647
ssg23
(dp648
sg25
(dp649
I0
(dp650
I3
(dp651
sI4
(dp652
sI5
(dp653
sI6
(dp654
sI7
(dp655
sI8
(dp656
ssI1
(dp657
I8
(dp658
sI5
(dp659
sI6
(dp660
sI7
(dp661
ssI2
(dp662
I8
(dp663
sI7
(dp664
ssI3
(dp665
I0
g651
sI4
(dp666
sI5
(dp667
sI6
(dp668
sI7
(dp669
sI8
(dp670
ssI4
(dp671
I0
g652
sI3
g666
sI5
(dp672
sI6
(dp673
sI7
(dp674
sI8
(dp675
ssI5
(dp676
I0
g653
sI1
g659
sI3
g667
sI4
g672
sI6
(dp677
sI7
(dp678
sI8
(dp679
ssI6
(dp680
I0
g654
sI1
g660
sI3
g668
sI4
g673
sI5
g677
ssI7
(dp681
I0
g655
sI1
g661
sI2
g664
sI3
g669
sI4
g674
sI5
g678
sI8
(dp682
ssI8
(dp683
I0
g656
sI1
g658
sI2
g663
sI3
g670
sI4
g675
sI5
g679
sI7
g682
sssg61
g8
sbag2
(g3
g4
NtRp684
(dp685
g7
g8
sg9
g8
sg10
g684
sg11
g8
sg12
(dp686
I0
(dp687
sI1
(dp688
sI2
(dp689
sI3
(dp690
sI4
(dp691
sI5
(dp692
sI6
(dp693
sI7
(dp694
sI8
(dp695
ssg23
(dp696
sg25
(dp697
I0
(dp698
I3
(dp699
sI4
(dp700
sI5
(dp701
sI6
(dp702
sI7
(dp703
sI8
(dp704
ssI1
(dp705
I8
(dp706
sI5
(dp707
sI6
(dp708
sI7
(dp709
ssI2
(dp710
I8
(dp711
sI5
(dp712
sI6
(dp713
sI7
(dp714
ssI3
(dp715
I0
g699
sI4
(dp716
sI5
(dp717
sI6
(dp718
sI7
(dp719
ssI4
(dp720
I0
g700
sI8
(dp721
sI3
g716
ssI5
(dp722
I0
g701
sI1
g707
sI2
g712
sI3
g717
sI6
(dp723
sI7
(dp724
sI8
(dp725
ssI6
(dp726
I0
g702
sI1
g708
sI2
g713
sI3
g718
sI5
g723
sI7
(dp727
sI8
(dp728
ssI7
(dp729
I0
g703
sI1
g709
sI2
g714
sI3
g719
sI5
g724
sI6
g727
sI8
(dp730
ssI8
(dp731
I0
g704
sI1
g706
sI2
g711
sI4
g721
sI5
g725
sI6
g728
sI7
g730
sssg61
g8
sbag2
(g3
g4
NtRp732
(dp733
g7
g8
sg9
g8
sg10
g732
sg11
g8
sg12
(dp734
I0
(dp735
sI1
(dp736
sI2
(dp737
sI3
(dp738
sI4
(dp739
sI5
(dp740
sI6
(dp741
sI7
(dp742
sI8
(dp743
ssg23
(dp744
sg25
(dp745
I0
(dp746
I8
(dp747
sI3
(dp748
sI4
(dp749
sI6
(dp750
sI7
(dp751
ssI1
(dp752
I8
(dp753
sI4
(dp754
sI5
(dp755
sI6
(dp756
sI7
(dp757
ssI2
(dp758
I8
(dp759
sI5
(dp760
sI6
(dp761
sI7
(dp762
ssI3
(dp763
I0
g748
sI8
(dp764
sI5
(dp765
sI6
(dp766
sI7
(dp767
ssI4
(dp768
I0
g749
sI1
g754
sI8
(dp769
ssI5
(dp770
I1
g755
sI2
g760
sI3
g765
sI6
(dp771
sI7
(dp772
sI8
(dp773
ssI6
(dp774
I0
g750
sI1
g756
sI2
g761
sI3
g766
sI5
g771
sI7
(dp775
sI8
(dp776
ssI7
(dp777
I0
g751
sI1
g757
sI2
g762
sI3
g767
sI5
g772
sI6
g775
sI8
(dp778
ssI8
(dp779
I0
g747
sI1
g753
sI2
g759
sI3
g764
sI4
g769
sI5
g773
sI6
g776
sI7
g778
sssg61
g8
sbag2
(g3
g4
NtRp780
(dp781
g7
g8
sg9
g8
sg10
g780
sg11
g8
sg12
(dp782
I0
(dp783
sI1
(dp784
sI2
(dp785
sI3
(dp786
sI4
(dp787
sI5
(dp788
sI6
(dp789
sI7
(dp790
sI8
(dp791
ssg23
(dp792
sg25
(dp793
I0
(dp794
I3
(dp795
sI4
(dp796
sI5
(dp797
sI6
(dp798
sI7
(dp799
sI8
(dp800
ssI1
(dp801
I8
(dp802
sI4
(dp803
sI5
(dp804
sI6
(dp805
sI7
(dp806
ssI2
(dp807
I8
(dp808
ssI3
(dp809
I0
g795
sI7
(dp810
ssI4
(dp811
I0
g796
sI1
g803
sI5
(dp812
sI6
(dp813
sI7
(dp814
sI8
(dp815
ssI5
(dp816
I0
g797
sI1
g804
sI4
g812
sI6
(dp817
sI7
(dp818
sI8
(dp819
ssI6
(dp820
I0
g798
sI1
g805
sI4
g813
sI5
g817
sI7
(dp821
sI8
(dp822
ssI7
(dp823
I0
g799
sI1
g806
sI3
g810
sI4
g814
sI5
g818
sI6
g821
sI8
(dp824
ssI8
(dp825
I0
g800
sI1
g802
sI2
g808
sI4
g815
sI5
g819
sI6
g822
sI7
g824
sssg61
g8
sbag2
(g3
g4
NtRp826
(dp827
g7
g8
sg9
g8
sg10
g826
sg11
g8
sg12
(dp828
I0
(dp829
sI1
(dp830
sI2
(dp831
sI3
(dp832
sI4
(dp833
sI5
(dp834
sI6
(dp835
sI7
(dp836
sI8
(dp837
ssg23
(dp838
sg25
(dp839
I0
(dp840
I3
(dp841
sI4
(dp842
sI5
(dp843
sI6
(dp844
sI7
(dp845
sI8
(dp846
ssI1
(dp847
I8
(dp848
sI4
(dp849
sI5
(dp850
sI6
(dp851
sI7
(dp852
ssI2
(dp853
I8
(dp854
sI7
(dp855
ssI3
(dp856
I0
g841
ssI4
(dp857
I0
g842
sI1
g849
sI5
(dp858
sI6
(dp859
sI7
(dp860
sI8
(dp861
ssI5
(dp862
I0
g843
sI1
g850
sI4
g858
sI6
(dp863
sI7
(dp864
sI8
(dp865
ssI6
(dp866
I0
g844
sI1
g851
sI4
g859
sI5
g863
sI7
(dp867
sI8
(dp868
ssI7
(dp869
I0
g845
sI1
g852
sI2
g855
sI4
g860
sI5
g864
sI6
g867
sI8
(dp870
ssI8
(dp871
I0
g846
sI1
g848
sI2
g854
sI4
g861
sI5
g865
sI6
g868
sI7
g870
sssg61
g8
sbag2
(g3
g4
NtRp872
(dp873
g7
g8
sg9
g8
sg10
g872
sg11
g8
sg12
(dp874
I0
(dp875
sI1
(dp876
sI2
(dp877
sI3
(dp878
sI4
(dp879
sI5
(dp880
sI6
(dp881
sI7
(dp882
sI8
(dp883
ssg23
(dp884
sg25
(dp885
I0
(dp886
I3
(dp887
sI4
(dp888
sI5
(dp889
sI6
(dp890
sI7
(dp891
sI8
(dp892
ssI1
(dp893
I8
(dp894
sI4
(dp895
sI5
(dp896
sI6
(dp897
sI7
(dp898
ssI2
(dp899
I8
(dp900
ssI3
(dp901
I0
g887
sI6
(dp902
sI7
(dp903
ssI4
(dp904
I0
g888
sI1
g895
sI5
(dp905
sI6
(dp906
sI7
(dp907
sI8
(dp908
ssI5
(dp909
I0
g889
sI1
g896
sI4
g905
sI6
(dp910
sI7
(dp911
sI8
(dp912
ssI6
(dp913
I0
g890
sI1
g897
sI3
g902
sI4
g906
sI5
g910
sI7
(dp914
sI8
(dp915
ssI7
(dp916
I0
g891
sI1
g898
sI3
g903
sI4
g907
sI5
g911
sI6
g914
sI8
(dp917
ssI8
(dp918
I0
g892
sI1
g894
sI2
g900
sI4
g908
sI5
g912
sI6
g915
sI7
g917
sssg61
g8
sbag2
(g3
g4
NtRp919
(dp920
g7
g8
sg9
g8
sg10
g919
sg11
g8
sg12
(dp921
I0
(dp922
sI1
(dp923
sI2
(dp924
sI3
(dp925
sI4
(dp926
sI5
(dp927
sI6
(dp928
sI7
(dp929
sI8
(dp930
ssg23
(dp931
sg25
(dp932
I0
(dp933
I3
(dp934
sI4
(dp935
sI5
(dp936
sI6
(dp937
sI7
(dp938
sI8
(dp939
ssI1
(dp940
I8
(dp941
sI4
(dp942
sI5
(dp943
sI6
(dp944
sI7
(dp945
ssI2
(dp946
I8
(dp947
sI6
(dp948
sI7
(dp949
ssI3
(dp950
I0
g934
ssI4
(dp951
I0
g935
sI1
g942
sI5
(dp952
sI6
(dp953
sI7
(dp954
sI8
(dp955
ssI5
(dp956
I0
g936
sI1
g943
sI4
g952
sI6
(dp957
sI7
(dp958
sI8
(dp959
ssI6
(dp960
I0
g937
sI1
g944
sI2
g948
sI4
g953
sI5
g957
sI7
(dp961
sI8
(dp962
ssI7
(dp963
I0
g938
sI1
g945
sI2
g949
sI4
g954
sI5
g958
sI6
g961
sI8
(dp964
ssI8
(dp965
I0
g939
sI1
g941
sI2
g947
sI4
g955
sI5
g959
sI6
g962
sI7
g964
sssg61
g8
sbag2
(g3
g4
NtRp966
(dp967
g7
g8
sg9
g8
sg10
g966
sg11
g8
sg12
(dp968
I0
(dp969
sI1
(dp970
sI2
(dp971
sI3
(dp972
sI4
(dp973
sI5
(dp974
sI6
(dp975
sI7
(dp976
sI8
(dp977
ssg23
(dp978
sg25
(dp979
I0
(dp980
I3
(dp981
sI4
(dp982
sI5
(dp983
sI6
(dp984
sI7
(dp985
sI8
(dp986
ssI1
(dp987
I8
(dp988
sI4
(dp989
sI5
(dp990
sI6
(dp991
sI7
(dp992
ssI2
(dp993
sI3
(dp994
I0
g981
sI8
(dp995
sI5
(dp996
sI6
(dp997
sI7
(dp998
ssI4
(dp999
I0
g982
sI1
g989
sI5
(dp1000
sI6
(dp1001
sI7
(dp1002
sI8
(dp1003
ssI5
(dp1004
I0
g983
sI1
g990
sI3
g996
sI4
g1000
sI7
(dp1005
sI8
(dp1006
ssI6
(dp1007
I0
g984
sI1
g991
sI3
g997
sI4
g1001
sI7
(dp1008
sI8
(dp1009
ssI7
(dp1010
I0
g985
sI1
g992
sI3
g998
sI4
g1002
sI5
g1005
sI6
g1008
sI8
(dp1011
ssI8
(dp1012
I0
g986
sI1
g988
sI3
g995
sI4
g1003
sI5
g1006
sI6
g1009
sI7
g1011
sssg61
g8
sbag2
(g3
g4
NtRp1013
(dp1014
g7
g8
sg9
g8
sg10
g1013
sg11
g8
sg12
(dp1015
I0
(dp1016
sI1
(dp1017
sI2
(dp1018
sI3
(dp1019
sI4
(dp1020
sI5
(dp1021
sI6
(dp1022
sI7
(dp1023
sI8
(dp1024
ssg23
(dp1025
sg25
(dp1026
I0
(dp1027
I3
(dp1028
sI4
(dp1029
sI5
(dp1030
sI6
(dp1031
sI7
(dp1032
sI8
(dp1033
ssI1
(dp1034
I8
(dp1035
sI4
(dp1036
sI5
(dp1037
sI6
(dp1038
sI7
(dp1039
ssI2
(dp1040
I8
(dp1041
sI7
(dp1042
ssI3
(dp1043
I0
g1028
sI8
(dp1044
sI5
(dp1045
sI6
(dp1046
sI7
(dp1047
ssI4
(dp1048
I0
g1029
sI1
g1036
sI5
(dp1049
sI6
(dp1050
sI7
(dp1051
sI8
(dp1052
ssI5
(dp1053
I0
g1030
sI1
g1037
sI3
g1045
sI4
g1049
sI6
(dp1054
sI7
(dp1055
sI8
(dp1056
ssI6
(dp1057
I0
g1031
sI1
g1038
sI3
g1046
sI4
g1050
sI5
g1054
ssI7
(dp1058
I0
g1032
sI1
g1039
sI2
g1042
sI3
g1047
sI4
g1051
sI5
g1055
sI8
(dp1059
ssI8
(dp1060
I0
g1033
sI1
g1035
sI2
g1041
sI3
g1044
sI4
g1052
sI5
g1056
sI7
g1059
sssg61
g8
sbag2
(g3
g4
NtRp1061
(dp1062
g7
g8
sg9
g8
sg10
g1061
sg11
g8
sg12
(dp1063
I0
(dp1064
sI1
(dp1065
sI2
(dp1066
sI3
(dp1067
sI4
(dp1068
sI5
(dp1069
sI6
(dp1070
sI7
(dp1071
sI8
(dp1072
ssg23
(dp1073
sg25
(dp1074
I0
(dp1075
I8
(dp1076
sI3
(dp1077
sI4
(dp1078
sI5
(dp1079
ssI1
(dp1080
I8
(dp1081
sI4
(dp1082
sI5
(dp1083
sI6
(dp1084
sI7
(dp1085
ssI2
(dp1086
I5
(dp1087
sI6
(dp1088
sI7
(dp1089
ssI3
(dp1090
I0
g1077
sI8
(dp1091
sI6
(dp1092
sI7
(dp1093
ssI4
(dp1094
I0
g1078
sI1
g1082
sI5
(dp1095
sI6
(dp1096
sI7
(dp1097
sI8
(dp1098
ssI5
(dp1099
I0
g1079
sI1
g1083
sI2
g1087
sI4
g1095
sI6
(dp1100
sI7
(dp1101
sI8
(dp1102
ssI6
(dp1103
I1
g1084
sI2
g1088
sI3
g1092
sI4
g1096
sI5
g1100
sI7
(dp1104
sI8
(dp1105
ssI7
(dp1106
I1
g1085
sI2
g1089
sI3
g1093
sI4
g1097
sI5
g1101
sI6
g1104
sI8
(dp1107
ssI8
(dp1108
I0
g1076
sI1
g1081
sI3
g1091
sI4
g1098
sI5
g1102
sI6
g1105
sI7
g1107
sssg61
g8
sbag2
(g3
g4
NtRp1109
(dp1110
g7
g8
sg9
g8
sg10
g1109
sg11
g8
sg12
(dp1111
I0
(dp1112
sI1
(dp1113
sI2
(dp1114
sI3
(dp1115
sI4
(dp1116
sI5
(dp1117
sI6
(dp1118
sI7
(dp1119
sI8
(dp1120
ssg23
(dp1121
sg25
(dp1122
I0
(dp1123
I3
(dp1124
sI4
(dp1125
sI5
(dp1126
sI6
(dp1127
sI7
(dp1128
sI8
(dp1129
ssI1
(dp1130
I8
(dp1131
sI4
(dp1132
sI5
(dp1133
sI6
(dp1134
sI7
(dp1135
ssI2
(dp1136
I5
(dp1137
ssI3
(dp1138
I0
g1124
sI8
(dp1139
sI6
(dp1140
sI7
(dp1141
ssI4
(dp1142
I0
g1125
sI1
g1132
sI5
(dp1143
sI6
(dp1144
sI7
(dp1145
sI8
(dp1146
ssI5
(dp1147
I0
g1126
sI1
g1133
sI2
g1137
sI4
g1143
sI6
(dp1148
sI7
(dp1149
sI8
(dp1150
ssI6
(dp1151
I0
g1127
sI1
g1134
sI3
g1140
sI4
g1144
sI5
g1148
sI7
(dp1152
sI8
(dp1153
ssI7
(dp1154
I0
g1128
sI1
g1135
sI3
g1141
sI4
g1145
sI5
g1149
sI6
g1152
sI8
(dp1155
ssI8
(dp1156
I0
g1129
sI1
g1131
sI3
g1139
sI4
g1146
sI5
g1150
sI6
g1153
sI7
g1155
sssg61
g8
sbag2
(g3
g4
NtRp1157
(dp1158
g7
g8
sg9
g8
sg10
g1157
sg11
g8
sg12
(dp1159
I0
(dp1160
sI1
(dp1161
sI2
(dp1162
sI3
(dp1163
sI4
(dp1164
sI5
(dp1165
sI6
(dp1166
sI7
(dp1167
sI8
(dp1168
ssg23
(dp1169
sg25
(dp1170
I0
(dp1171
I8
(dp1172
sI3
(dp1173
sI4
(dp1174
sI5
(dp1175
sI6
(dp1176
ssI1
(dp1177
I8
(dp1178
sI4
(dp1179
sI5
(dp1180
sI6
(dp1181
sI7
(dp1182
ssI2
(dp1183
I5
(dp1184
sI6
(dp1185
sI7
(dp1186
ssI3
(dp1187
I0
g1173
sI8
(dp1188
sI7
(dp1189
ssI4
(dp1190
I0
g1174
sI1
g1179
sI5
(dp1191
sI6
(dp1192
sI7
(dp1193
sI8
(dp1194
ssI5
(dp1195
I0
g1175
sI1
g1180
sI2
g1184
sI4
g1191
sI6
(dp1196
sI7
(dp1197
sI8
(dp1198
ssI6
(dp1199
I0
g1176
sI1
g1181
sI2
g1185
sI4
g1192
sI5
g1196
sI7
(dp1200
sI8
(dp1201
ssI7
(dp1202
I1
g1182
sI2
g1186
sI3
g1189
sI4
g1193
sI5
g1197
sI6
g1200
sI8
(dp1203
ssI8
(dp1204
I0
g1172
sI1
g1178
sI3
g1188
sI4
g1194
sI5
g1198
sI6
g1201
sI7
g1203
sssg61
g8
sbag2
(g3
g4
NtRp1205
(dp1206
g7
g8
sg9
g8
sg10
g1205
sg11
g8
sg12
(dp1207
I0
(dp1208
sI1
(dp1209
sI2
(dp1210
sI3
(dp1211
sI4
(dp1212
sI5
(dp1213
sI6
(dp1214
sI7
(dp1215
sI8
(dp1216
ssg23
(dp1217
sg25
(dp1218
I0
(dp1219
I3
(dp1220
sI4
(dp1221
sI5
(dp1222
sI6
(dp1223
sI7
(dp1224
sI8
(dp1225
ssI1
(dp1226
I8
(dp1227
sI4
(dp1228
sI5
(dp1229
sI6
(dp1230
sI7
(dp1231
ssI2
(dp1232
I8
(dp1233
sI5
(dp1234
sI6
(dp1235
sI7
(dp1236
ssI3
(dp1237
I0
g1220
sI8
(dp1238
ssI4
(dp1239
I0
g1221
sI1
g1228
sI5
(dp1240
sI6
(dp1241
sI7
(dp1242
sI8
(dp1243
ssI5
(dp1244
I0
g1222
sI1
g1229
sI2
g1234
sI4
g1240
sI6
(dp1245
sI7
(dp1246
sI8
(dp1247
ssI6
(dp1248
I0
g1223
sI1
g1230
sI2
g1235
sI4
g1241
sI5
g1245
sI7
(dp1249
sI8
(dp1250
ssI7
(dp1251
I0
g1224
sI1
g1231
sI2
g1236
sI4
g1242
sI5
g1246
sI6
g1249
ssI8
(dp1252
I0
g1225
sI1
g1227
sI2
g1233
sI3
g1238
sI4
g1243
sI5
g1247
sI6
g1250
sssg61
g8
sbag2
(g3
g4
NtRp1253
(dp1254
g7
g8
sg9
g8
sg10
g1253
sg11
g8
sg12
(dp1255
I0
(dp1256
sI1
(dp1257
sI2
(dp1258
sI3
(dp1259
sI4
(dp1260
sI5
(dp1261
sI6
(dp1262
sI7
(dp1263
sI8
(dp1264
ssg23
(dp1265
sg25
(dp1266
I0
(dp1267
I3
(dp1268
sI4
(dp1269
sI5
(dp1270
sI6
(dp1271
sI7
(dp1272
sI8
(dp1273
ssI1
(dp1274
I8
(dp1275
sI4
(dp1276
sI5
(dp1277
sI6
(dp1278
sI7
(dp1279
ssI2
(dp1280
I8
(dp1281
sI5
(dp1282
sI6
(dp1283
sI7
(dp1284
ssI3
(dp1285
I0
g1268
sI8
(dp1286
sI6
(dp1287
sI7
(dp1288
ssI4
(dp1289
I0
g1269
sI1
g1276
sI5
(dp1290
ssI5
(dp1291
I0
g1270
sI1
g1277
sI2
g1282
sI4
g1290
sI6
(dp1292
sI7
(dp1293
sI8
(dp1294
ssI6
(dp1295
I0
g1271
sI1
g1278
sI2
g1283
sI3
g1287
sI5
g1292
sI7
(dp1296
sI8
(dp1297
ssI7
(dp1298
I0
g1272
sI1
g1279
sI2
g1284
sI3
g1288
sI5
g1293
sI6
g1296
sI8
(dp1299
ssI8
(dp1300
I0
g1273
sI1
g1275
sI2
g1281
sI3
g1286
sI5
g1294
sI6
g1297
sI7
g1299
sssg61
g8
sbag2
(g3
g4
NtRp1301
(dp1302
g7
g8
sg9
g8
sg10
g1301
sg11
g8
sg12
(dp1303
I0
(dp1304
sI1
(dp1305
sI2
(dp1306
sI3
(dp1307
sI4
(dp1308
sI5
(dp1309
sI6
(dp1310
sI7
(dp1311
sI8
(dp1312
ssg23
(dp1313
sg25
(dp1314
I0
(dp1315
I3
(dp1316
sI4
(dp1317
sI5
(dp1318
sI6
(dp1319
sI7
(dp1320
sI8
(dp1321
ssI1
(dp1322
I4
(dp1323
sI6
(dp1324
sI7
(dp1325
ssI2
(dp1326
I8
(dp1327
sI5
(dp1328
sI6
(dp1329
ssI3
(dp1330
I0
g1316
sI4
(dp1331
sI5
(dp1332
sI6
(dp1333
sI7
(dp1334
sI8
(dp1335
ssI4
(dp1336
I0
g1317
sI1
g1323
sI3
g1331
sI6
(dp1337
sI7
(dp1338
sI8
(dp1339
ssI5
(dp1340
I0
g1318
sI8
(dp1341
sI2
g1328
sI3
g1332
sI7
(dp1342
ssI6
(dp1343
I0
g1319
sI1
g1324
sI2
g1329
sI3
g1333
sI4
g1337
sI7
(dp1344
sI8
(dp1345
ssI7
(dp1346
I0
g1320
sI1
g1325
sI3
g1334
sI4
g1338
sI5
g1342
sI6
g1344
sI8
(dp1347
ssI8
(dp1348
I0
g1321
sI2
g1327
sI3
g1335
sI4
g1339
sI5
g1341
sI6
g1345
sI7
g1347
sssg61
g8
sbag2
(g3
g4
NtRp1349
(dp1350
g7
g8
sg9
g8
sg10
g1349
sg11
g8
sg12
(dp1351
I0
(dp1352
sI1
(dp1353
sI2
(dp1354
sI3
(dp1355
sI4
(dp1356
sI5
(dp1357
sI6
(dp1358
sI7
(dp1359
sI8
(dp1360
ssg23
(dp1361
sg25
(dp1362
I0
(dp1363
I3
(dp1364
sI4
(dp1365
sI5
(dp1366
sI6
(dp1367
sI7
(dp1368
sI8
(dp1369
ssI1
(dp1370
I8
(dp1371
sI4
(dp1372
sI6
(dp1373
sI7
(dp1374
ssI2
(dp1375
I8
(dp1376
sI5
(dp1377
sI6
(dp1378
ssI3
(dp1379
I0
g1364
sI4
(dp1380
sI5
(dp1381
sI6
(dp1382
sI7
(dp1383
sI8
(dp1384
ssI4
(dp1385
I0
g1365
sI1
g1372
sI3
g1380
sI5
(dp1386
sI7
(dp1387
sI8
(dp1388
ssI5
(dp1389
I0
g1366
sI2
g1377
sI3
g1381
sI4
g1386
sI7
(dp1390
sI8
(dp1391
ssI6
(dp1392
I0
g1367
sI1
g1373
sI2
g1378
sI3
g1382
sI7
(dp1393
sI8
(dp1394
ssI7
(dp1395
I0
g1368
sI1
g1374
sI3
g1383
sI4
g1387
sI5
g1390
sI6
g1393
sI8
(dp1396
ssI8
(dp1397
I0
g1369
sI1
g1371
sI2
g1376
sI3
g1384
sI4
g1388
sI5
g1391
sI6
g1394
sI7
g1396
sssg61
g8
sbag2
(g3
g4
NtRp1398
(dp1399
g7
g8
sg9
g8
sg10
g1398
sg11
g8
sg12
(dp1400
I0
(dp1401
sI1
(dp1402
sI2
(dp1403
sI3
(dp1404
sI4
(dp1405
sI5
(dp1406
sI6
(dp1407
sI7
(dp1408
sI8
(dp1409
ssg23
(dp1410
sg25
(dp1411
I0
(dp1412
I3
(dp1413
sI4
(dp1414
sI5
(dp1415
sI6
(dp1416
sI7
(dp1417
sI8
(dp1418
ssI1
(dp1419
I4
(dp1420
sI5
(dp1421
sI6
(dp1422
sI7
(dp1423
ssI2
(dp1424
I8
(dp1425
sI7
(dp1426
ssI3
(dp1427
I0
g1413
sI4
(dp1428
sI5
(dp1429
sI6
(dp1430
sI7
(dp1431
sI8
(dp1432
ssI4
(dp1433
I0
g1414
sI1
g1420
sI3
g1428
sI6
(dp1434
sI7
(dp1435
sI8
(dp1436
ssI5
(dp1437
I0
g1415
sI1
g1421
sI3
g1429
sI6
(dp1438
sI7
(dp1439
sI8
(dp1440
ssI6
(dp1441
I0
g1416
sI1
g1422
sI3
g1430
sI4
g1434
sI5
g1438
sI8
(dp1442
ssI7
(dp1443
I0
g1417
sI1
g1423
sI2
g1426
sI3
g1431
sI4
g1435
sI5
g1439
sI8
(dp1444
ssI8
(dp1445
I0
g1418
sI2
g1425
sI3
g1432
sI4
g1436
sI5
g1440
sI6
g1442
sI7
g1444
sssg61
g8
sbag2
(g3
g4
NtRp1446
(dp1447
g7
g8
sg9
g8
sg10
g1446
sg11
g8
sg12
(dp1448
I0
(dp1449
sI1
(dp1450
sI2
(dp1451
sI3
(dp1452
sI4
(dp1453
sI5
(dp1454
sI6
(dp1455
sI7
(dp1456
sI8
(dp1457
ssg23
(dp1458
sg25
(dp1459
I0
(dp1460
I3
(dp1461
sI4
(dp1462
sI5
(dp1463
sI6
(dp1464
sI7
(dp1465
sI8
(dp1466
ssI1
(dp1467
I4
(dp1468
sI5
(dp1469
sI6
(dp1470
ssI2
(dp1471
I8
(dp1472
sI6
(dp1473
sI7
(dp1474
ssI3
(dp1475
I0
g1461
sI8
(dp1476
sI4
(dp1477
sI5
(dp1478
sI7
(dp1479
ssI4
(dp1480
I0
g1462
sI1
g1468
sI3
g1477
sI6
(dp1481
sI7
(dp1482
sI8
(dp1483
ssI5
(dp1484
I0
g1463
sI1
g1469
sI3
g1478
sI6
(dp1485
sI7
(dp1486
sI8
(dp1487
ssI6
(dp1488
I0
g1464
sI1
g1470
sI2
g1473
sI4
g1481
sI5
g1485
sI7
(dp1489
sI8
(dp1490
ssI7
(dp1491
I0
g1465
sI2
g1474
sI3
g1479
sI4
g1482
sI5
g1486
sI6
g1489
sI8
(dp1492
ssI8
(dp1493
I0
g1466
sI2
g1472
sI3
g1476
sI4
g1483
sI5
g1487
sI6
g1490
sI7
g1492
sssg61
g8
sbag2
(g3
g4
NtRp1494
(dp1495
g7
g8
sg9
g8
sg10
g1494
sg11
g8
sg12
(dp1496
I0
(dp1497
sI1
(dp1498
sI2
(dp1499
sI3
(dp1500
sI4
(dp1501
sI5
(dp1502
sI6
(dp1503
sI7
(dp1504
sI8
(dp1505
ssg23
(dp1506
sg25
(dp1507
I0
(dp1508
I3
(dp1509
sI4
(dp1510
sI5
(dp1511
sI6
(dp1512
sI7
(dp1513
sI8
(dp1514
ssI1
(dp1515
I4
(dp1516
sI5
(dp1517
sI6
(dp1518
sI7
(dp1519
ssI2
(dp1520
I8
(dp1521
sI6
(dp1522
ssI3
(dp1523
I0
g1509
sI8
(dp1524
sI4
(dp1525
sI5
(dp1526
sI7
(dp1527
ssI4
(dp1528
I0
g1510
sI1
g1516
sI3
g1525
sI6
(dp1529
sI7
(dp1530
sI8
(dp1531
ssI5
(dp1532
I0
g1511
sI1
g1517
sI3
g1526
sI6
(dp1533
sI7
(dp1534
sI8
(dp1535
ssI6
(dp1536
I0
g1512
sI1
g1518
sI2
g1522
sI4
g1529
sI5
g1533
sI7
(dp1537
sI8
(dp1538
ssI7
(dp1539
I0
g1513
sI1
g1519
sI3
g1527
sI4
g1530
sI5
g1534
sI6
g1537
sI8
(dp1540
ssI8
(dp1541
I0
g1514
sI2
g1521
sI3
g1524
sI4
g1531
sI5
g1535
sI6
g1538
sI7
g1540
sssg61
g8
sbag2
(g3
g4
NtRp1542
(dp1543
g7
g8
sg9
g8
sg10
g1542
sg11
g8
sg12
(dp1544
I0
(dp1545
sI1
(dp1546
sI2
(dp1547
sI3
(dp1548
sI4
(dp1549
sI5
(dp1550
sI6
(dp1551
sI7
(dp1552
sI8
(dp1553
ssg23
(dp1554
sg25
(dp1555
I0
(dp1556
I3
(dp1557
sI4
(dp1558
sI5
(dp1559
sI6
(dp1560
sI7
(dp1561
sI8
(dp1562
ssI1
(dp1563
I8
(dp1564
sI4
(dp1565
sI5
(dp1566
sI6
(dp1567
sI7
(dp1568
ssI2
(dp1569
I6
(dp1570
sI7
(dp1571
ssI3
(dp1572
I0
g1557
sI8
(dp1573
sI4
(dp1574
sI5
(dp1575
ssI4
(dp1576
I0
g1558
sI1
g1565
sI3
g1574
sI6
(dp1577
sI7
(dp1578
sI8
(dp1579
ssI5
(dp1580
I0
g1559
sI1
g1566
sI3
g1575
sI6
(dp1581
sI7
(dp1582
sI8
(dp1583
ssI6
(dp1584
I0
g1560
sI1
g1567
sI2
g1570
sI4
g1577
sI5
g1581
sI7
(dp1585
sI8
(dp1586
ssI7
(dp1587
I0
g1561
sI1
g1568
sI2
g1571
sI4
g1578
sI5
g1582
sI6
g1585
sI8
(dp1588
ssI8
(dp1589
I0
g1562
sI1
g1564
sI3
g1573
sI4
g1579
sI5
g1583
sI6
g1586
sI7
g1588
sssg61
g8
sbag2
(g3
g4
NtRp1590
(dp1591
g7
g8
sg9
g8
sg10
g1590
sg11
g8
sg12
(dp1592
I0
(dp1593
sI1
(dp1594
sI2
(dp1595
sI3
(dp1596
sI4
(dp1597
sI5
(dp1598
sI6
(dp1599
sI7
(dp1600
sI8
(dp1601
ssg23
(dp1602
sg25
(dp1603
I0
(dp1604
I3
(dp1605
sI4
(dp1606
sI5
(dp1607
sI6
(dp1608
sI7
(dp1609
sI8
(dp1610
ssI1
(dp1611
I8
(dp1612
sI4
(dp1613
sI5
(dp1614
sI6
(dp1615
sI7
(dp1616
ssI2
(dp1617
I8
(dp1618
sI6
(dp1619
sI7
(dp1620
ssI3
(dp1621
I0
g1605
sI4
(dp1622
sI5
(dp1623
ssI4
(dp1624
I0
g1606
sI1
g1613
sI3
g1622
sI6
(dp1625
sI7
(dp1626
sI8
(dp1627
ssI5
(dp1628
I0
g1607
sI1
g1614
sI3
g1623
sI6
(dp1629
sI7
(dp1630
sI8
(dp1631
ssI6
(dp1632
I0
g1608
sI1
g1615
sI2
g1619
sI4
g1625
sI5
g1629
sI7
(dp1633
sI8
(dp1634
ssI7
(dp1635
I0
g1609
sI1
g1616
sI2
g1620
sI4
g1626
sI5
g1630
sI6
g1633
sI8
(dp1636
ssI8
(dp1637
I0
g1610
sI1
g1612
sI2
g1618
sI4
g1627
sI5
g1631
sI6
g1634
sI7
g1636
sssg61
g8
sbag2
(g3
g4
NtRp1638
(dp1639
g7
g8
sg9
g8
sg10
g1638
sg11
g8
sg12
(dp1640
I0
(dp1641
sI1
(dp1642
sI2
(dp1643
sI3
(dp1644
sI4
(dp1645
sI5
(dp1646
sI6
(dp1647
sI7
(dp1648
sI8
(dp1649
ssg23
(dp1650
sg25
(dp1651
I0
(dp1652
I3
(dp1653
sI4
(dp1654
sI5
(dp1655
sI6
(dp1656
sI7
(dp1657
sI8
(dp1658
ssI1
(dp1659
I8
(dp1660
sI4
(dp1661
sI5
(dp1662
sI6
(dp1663
sI7
(dp1664
ssI2
(dp1665
I8
(dp1666
sI6
(dp1667
ssI3
(dp1668
I0
g1653
sI4
(dp1669
sI5
(dp1670
sI6
(dp1671
sI7
(dp1672
sI8
(dp1673
ssI4
(dp1674
I0
g1654
sI1
g1661
sI3
g1669
sI6
(dp1675
sI7
(dp1676
sI8
(dp1677
ssI5
(dp1678
I0
g1655
sI1
g1662
sI3
g1670
sI8
(dp1679
sI7
(dp1680
ssI6
(dp1681
I0
g1656
sI1
g1663
sI2
g1667
sI3
g1671
sI4
g1675
sI8
(dp1682
ssI7
(dp1683
I0
g1657
sI1
g1664
sI3
g1672
sI4
g1676
sI5
g1680
sI8
(dp1684
ssI8
(dp1685
I0
g1658
sI1
g1660
sI2
g1666
sI3
g1673
sI4
g1677
sI5
g1679
sI6
g1682
sI7
g1684
sssg61
g8
sbag2
(g3
g4
NtRp1686
(dp1687
g7
g8
sg9
g8
sg10
g1686
sg11
g8
sg12
(dp1688
I0
(dp1689
sI1
(dp1690
sI2
(dp1691
sI3
(dp1692
sI4
(dp1693
sI5
(dp1694
sI6
(dp1695
sI7
(dp1696
sI8
(dp1697
ssg23
(dp1698
sg25
(dp1699
I0
(dp1700
I3
(dp1701
sI4
(dp1702
sI5
(dp1703
sI6
(dp1704
sI7
(dp1705
sI8
(dp1706
ssI1
(dp1707
I4
(dp1708
sI5
(dp1709
sI6
(dp1710
sI7
(dp1711
ssI2
(dp1712
I8
(dp1713
sI6
(dp1714
ssI3
(dp1715
I0
g1701
sI4
(dp1716
sI5
(dp1717
sI6
(dp1718
sI7
(dp1719
sI8
(dp1720
ssI4
(dp1721
I0
g1702
sI1
g1708
sI3
g1716
sI6
(dp1722
sI7
(dp1723
sI8
(dp1724
ssI5
(dp1725
I0
g1703
sI1
g1709
sI3
g1717
sI8
(dp1726
sI7
(dp1727
ssI6
(dp1728
I0
g1704
sI1
g1710
sI2
g1714
sI3
g1718
sI4
g1722
sI7
(dp1729
sI8
(dp1730
ssI7
(dp1731
I0
g1705
sI1
g1711
sI3
g1719
sI4
g1723
sI5
g1727
sI6
g1729
sI8
(dp1732
ssI8
(dp1733
I0
g1706
sI2
g1713
sI3
g1720
sI4
g1724
sI5
g1726
sI6
g1730
sI7
g1732
sssg61
g8
sbag2
(g3
g4
NtRp1734
(dp1735
g7
g8
sg9
g8
sg10
g1734
sg11
g8
sg12
(dp1736
I0
(dp1737
sI1
(dp1738
sI2
(dp1739
sI3
(dp1740
sI4
(dp1741
sI5
(dp1742
sI6
(dp1743
sI7
(dp1744
sI8
(dp1745
ssg23
(dp1746
sg25
(dp1747
I0
(dp1748
I3
(dp1749
sI4
(dp1750
sI5
(dp1751
sI6
(dp1752
sI7
(dp1753
sI8
(dp1754
ssI1
(dp1755
I8
(dp1756
sI4
(dp1757
sI5
(dp1758
sI6
(dp1759
sI7
(dp1760
ssI2
(dp1761
I6
(dp1762
sI7
(dp1763
ssI3
(dp1764
I0
g1749
sI8
(dp1765
sI4
(dp1766
sI5
(dp1767
sI6
(dp1768
ssI4
(dp1769
I0
g1750
sI1
g1757
sI3
g1766
sI6
(dp1770
sI7
(dp1771
sI8
(dp1772
ssI5
(dp1773
I0
g1751
sI1
g1758
sI3
g1767
sI8
(dp1774
sI7
(dp1775
ssI6
(dp1776
I0
g1752
sI1
g1759
sI2
g1762
sI3
g1768
sI4
g1770
sI7
(dp1777
sI8
(dp1778
ssI7
(dp1779
I0
g1753
sI1
g1760
sI2
g1763
sI4
g1771
sI5
g1775
sI6
g1777
sI8
(dp1780
ssI8
(dp1781
I0
g1754
sI1
g1756
sI3
g1765
sI4
g1772
sI5
g1774
sI6
g1778
sI7
g1780
sssg61
g8
sbag2
(g3
g4
NtRp1782
(dp1783
g7
g8
sg9
g8
sg10
g1782
sg11
g8
sg12
(dp1784
I0
(dp1785
sI1
(dp1786
sI2
(dp1787
sI3
(dp1788
sI4
(dp1789
sI5
(dp1790
sI6
(dp1791
sI7
(dp1792
sI8
(dp1793
ssg23
(dp1794
sg25
(dp1795
I0
(dp1796
I3
(dp1797
sI4
(dp1798
sI5
(dp1799
sI6
(dp1800
sI7
(dp1801
sI8
(dp1802
ssI1
(dp1803
I8
(dp1804
sI4
(dp1805
sI5
(dp1806
sI6
(dp1807
sI7
(dp1808
ssI2
(dp1809
I6
(dp1810
sI7
(dp1811
ssI3
(dp1812
I0
g1797
sI4
(dp1813
sI5
(dp1814
sI6
(dp1815
sI7
(dp1816
sI8
(dp1817
ssI4
(dp1818
I0
g1798
sI1
g1805
sI3
g1813
sI6
(dp1819
sI8
(dp1820
ssI5
(dp1821
I0
g1799
sI1
g1806
sI3
g1814
sI8
(dp1822
sI7
(dp1823
ssI6
(dp1824
I0
g1800
sI1
g1807
sI2
g1810
sI3
g1815
sI4
g1819
sI7
(dp1825
sI8
(dp1826
ssI7
(dp1827
I0
g1801
sI1
g1808
sI2
g1811
sI3
g1816
sI5
g1823
sI6
g1825
sI8
(dp1828
ssI8
(dp1829
I0
g1802
sI1
g1804
sI3
g1817
sI4
g1820
sI5
g1822
sI6
g1826
sI7
g1828
sssg61
g8
sbag2
(g3
g4
NtRp1830
(dp1831
g7
g8
sg9
g8
sg10
g1830
sg11
g8
sg12
(dp1832
I0
(dp1833
sI1
(dp1834
sI2
(dp1835
sI3
(dp1836
sI4
(dp1837
sI5
(dp1838
sI6
(dp1839
sI7
(dp1840
sI8
(dp1841
ssg23
(dp1842
sg25
(dp1843
I0
(dp1844
I3
(dp1845
sI4
(dp1846
sI5
(dp1847
sI6
(dp1848
sI7
(dp1849
sI8
(dp1850
ssI1
(dp1851
I8
(dp1852
sI4
(dp1853
sI5
(dp1854
sI6
(dp1855
ssI2
(dp1856
I8
(dp1857
sI6
(dp1858
sI7
(dp1859
ssI3
(dp1860
I0
g1845
sI4
(dp1861
sI5
(dp1862
sI6
(dp1863
sI7
(dp1864
sI8
(dp1865
ssI4
(dp1866
I0
g1846
sI1
g1853
sI3
g1861
sI5
(dp1867
sI7
(dp1868
sI8
(dp1869
ssI5
(dp1870
I0
g1847
sI1
g1854
sI3
g1862
sI4
g1867
sI7
(dp1871
sI8
(dp1872
ssI6
(dp1873
I0
g1848
sI1
g1855
sI2
g1858
sI3
g1863
sI7
(dp1874
sI8
(dp1875
ssI7
(dp1876
I0
g1849
sI2
g1859
sI3
g1864
sI4
g1868
sI5
g1871
sI6
g1874
sI8
(dp1877
ssI8
(dp1878
I0
g1850
sI1
g1852
sI2
g1857
sI3
g1865
sI4
g1869
sI5
g1872
sI6
g1875
sI7
g1877
sssg61
g8
sbag2
(g3
g4
NtRp1879
(dp1880
g7
g8
sg9
g8
sg10
g1879
sg11
g8
sg12
(dp1881
I0
(dp1882
sI1
(dp1883
sI2
(dp1884
sI3
(dp1885
sI4
(dp1886
sI5
(dp1887
sI6
(dp1888
sI7
(dp1889
sI8
(dp1890
ssg23
(dp1891
sg25
(dp1892
I0
(dp1893
I3
(dp1894
sI4
(dp1895
sI5
(dp1896
sI6
(dp1897
sI7
(dp1898
sI8
(dp1899
ssI1
(dp1900
I8
(dp1901
sI4
(dp1902
sI5
(dp1903
sI6
(dp1904
sI7
(dp1905
ssI2
(dp1906
I8
(dp1907
sI6
(dp1908
sI7
(dp1909
ssI3
(dp1910
I0
g1894
sI4
(dp1911
sI5
(dp1912
sI6
(dp1913
sI7
(dp1914
sI8
(dp1915
ssI4
(dp1916
I0
g1895
sI1
g1902
sI3
g1911
sI5
(dp1917
sI7
(dp1918
sI8
(dp1919
ssI5
(dp1920
I0
g1896
sI1
g1903
sI3
g1912
sI4
g1917
sI8
(dp1921
ssI6
(dp1922
I0
g1897
sI1
g1904
sI2
g1908
sI3
g1913
sI7
(dp1923
sI8
(dp1924
ssI7
(dp1925
I0
g1898
sI1
g1905
sI2
g1909
sI3
g1914
sI4
g1918
sI6
g1923
sI8
(dp1926
ssI8
(dp1927
I0
g1899
sI1
g1901
sI2
g1907
sI3
g1915
sI4
g1919
sI5
g1921
sI6
g1924
sI7
g1926
sssg61
g8
sbag2
(g3
g4
NtRp1928
(dp1929
g7
g8
sg9
g8
sg10
g1928
sg11
g8
sg12
(dp1930
I0
(dp1931
sI1
(dp1932
sI2
(dp1933
sI3
(dp1934
sI4
(dp1935
sI5
(dp1936
sI6
(dp1937
sI7
(dp1938
sI8
(dp1939
ssg23
(dp1940
sg25
(dp1941
I0
(dp1942
I3
(dp1943
sI4
(dp1944
sI5
(dp1945
sI6
(dp1946
sI7
(dp1947
sI8
(dp1948
ssI1
(dp1949
I4
(dp1950
sI5
(dp1951
sI6
(dp1952
sI7
(dp1953
ssI2
(dp1954
I8
(dp1955
sI6
(dp1956
sI7
(dp1957
ssI3
(dp1958
I0
g1943
sI4
(dp1959
sI5
(dp1960
sI6
(dp1961
sI7
(dp1962
sI8
(dp1963
ssI4
(dp1964
I0
g1944
sI1
g1950
sI3
g1959
sI5
(dp1965
sI6
(dp1966
sI7
(dp1967
sI8
(dp1968
ssI5
(dp1969
I0
g1945
sI1
g1951
sI3
g1960
sI4
g1965
sI8
(dp1970
ssI6
(dp1971
I0
g1946
sI1
g1952
sI2
g1956
sI3
g1961
sI4
g1966
sI7
(dp1972
sI8
(dp1973
ssI7
(dp1974
I0
g1947
sI1
g1953
sI2
g1957
sI3
g1962
sI4
g1967
sI6
g1972
sI8
(dp1975
ssI8
(dp1976
I0
g1948
sI2
g1955
sI3
g1963
sI4
g1968
sI5
g1970
sI6
g1973
sI7
g1975
sssg61
g8
sbag2
(g3
g4
NtRp1977
(dp1978
g7
g8
sg9
g8
sg10
g1977
sg11
g8
sg12
(dp1979
I0
(dp1980
sI1
(dp1981
sI2
(dp1982
sI3
(dp1983
sI4
(dp1984
sI5
(dp1985
sI6
(dp1986
sI7
(dp1987
sI8
(dp1988
ssg23
(dp1989
sg25
(dp1990
I0
(dp1991
I8
(dp1992
sI3
(dp1993
sI4
(dp1994
sI5
(dp1995
sI7
(dp1996
ssI1
(dp1997
I8
(dp1998
sI4
(dp1999
sI5
(dp2000
sI6
(dp2001
sI7
(dp2002
ssI2
(dp2003
I5
(dp2004
sI6
(dp2005
ssI3
(dp2006
I0
g1993
sI8
(dp2007
sI4
(dp2008
sI6
(dp2009
sI7
(dp2010
ssI4
(dp2011
I0
g1994
sI1
g1999
sI3
g2008
sI6
(dp2012
sI7
(dp2013
sI8
(dp2014
ssI5
(dp2015
I0
g1995
sI1
g2000
sI2
g2004
sI6
(dp2016
sI7
(dp2017
sI8
(dp2018
ssI6
(dp2019
I1
g2001
sI2
g2005
sI3
g2009
sI4
g2012
sI5
g2016
sI7
(dp2020
sI8
(dp2021
ssI7
(dp2022
I0
g1996
sI1
g2002
sI3
g2010
sI4
g2013
sI5
g2017
sI6
g2020
sI8
(dp2023
ssI8
(dp2024
I0
g1992
sI1
g1998
sI3
g2007
sI4
g2014
sI5
g2018
sI6
g2021
sI7
g2023
sssg61
g8
sbag2
(g3
g4
NtRp2025
(dp2026
g7
g8
sg9
g8
sg10
g2025
sg11
g8
sg12
(dp2027
I0
(dp2028
sI1
(dp2029
sI2
(dp2030
sI3
(dp2031
sI4
(dp2032
sI5
(dp2033
sI6
(dp2034
sI7
(dp2035
sI8
(dp2036
ssg23
(dp2037
sg25
(dp2038
I0
(dp2039
I3
(dp2040
sI4
(dp2041
sI5
(dp2042
sI6
(dp2043
sI7
(dp2044
sI8
(dp2045
ssI1
(dp2046
I8
(dp2047
sI4
(dp2048
sI5
(dp2049
ssI2
(dp2050
I8
(dp2051
sI5
(dp2052
sI6
(dp2053
sI7
(dp2054
ssI3
(dp2055
I0
g2040
sI8
(dp2056
sI4
(dp2057
sI6
(dp2058
sI7
(dp2059
ssI4
(dp2060
I0
g2041
sI1
g2048
sI3
g2057
sI8
(dp2061
sI7
(dp2062
ssI5
(dp2063
I0
g2042
sI1
g2049
sI2
g2052
sI6
(dp2064
sI7
(dp2065
sI8
(dp2066
ssI6
(dp2067
I0
g2043
sI2
g2053
sI3
g2058
sI5
g2064
sI7
(dp2068
sI8
(dp2069
ssI7
(dp2070
I0
g2044
sI2
g2054
sI3
g2059
sI4
g2062
sI5
g2065
sI6
g2068
sI8
(dp2071
ssI8
(dp2072
I0
g2045
sI1
g2047
sI2
g2051
sI3
g2056
sI4
g2061
sI5
g2066
sI6
g2069
sI7
g2071
sssg61
g8
sbag2
(g3
g4
NtRp2073
(dp2074
g7
g8
sg9
g8
sg10
g2073
sg11
g8
sg12
(dp2075
I0
(dp2076
sI1
(dp2077
sI2
(dp2078
sI3
(dp2079
sI4
(dp2080
sI5
(dp2081
sI6
(dp2082
sI7
(dp2083
sI8
(dp2084
ssg23
(dp2085
sg25
(dp2086
I0
(dp2087
I3
(dp2088
sI4
(dp2089
sI5
(dp2090
sI6
(dp2091
sI7
(dp2092
sI8
(dp2093
ssI1
(dp2094
I8
(dp2095
sI4
(dp2096
sI5
(dp2097
sI7
(dp2098
ssI2
(dp2099
I8
(dp2100
sI5
(dp2101
sI6
(dp2102
ssI3
(dp2103
I0
g2088
sI8
(dp2104
sI4
(dp2105
sI6
(dp2106
sI7
(dp2107
ssI4
(dp2108
I0
g2089
sI1
g2096
sI3
g2105
sI8
(dp2109
sI7
(dp2110
ssI5
(dp2111
I0
g2090
sI1
g2097
sI2
g2101
sI6
(dp2112
sI7
(dp2113
sI8
(dp2114
ssI6
(dp2115
I0
g2091
sI2
g2102
sI3
g2106
sI5
g2112
sI7
(dp2116
sI8
(dp2117
ssI7
(dp2118
I0
g2092
sI1
g2098
sI3
g2107
sI4
g2110
sI5
g2113
sI6
g2116
sI8
(dp2119
ssI8
(dp2120
I0
g2093
sI1
g2095
sI2
g2100
sI3
g2104
sI4
g2109
sI5
g2114
sI6
g2117
sI7
g2119
sssg61
g8
sbag2
(g3
g4
NtRp2121
(dp2122
g7
g8
sg9
g8
sg10
g2121
sg11
g8
sg12
(dp2123
I0
(dp2124
sI1
(dp2125
sI2
(dp2126
sI3
(dp2127
sI4
(dp2128
sI5
(dp2129
sI6
(dp2130
sI7
(dp2131
sI8
(dp2132
ssg23
(dp2133
sg25
(dp2134
I0
(dp2135
I3
(dp2136
sI4
(dp2137
sI5
(dp2138
sI6
(dp2139
sI7
(dp2140
sI8
(dp2141
ssI1
(dp2142
I8
(dp2143
sI4
(dp2144
sI5
(dp2145
sI7
(dp2146
ssI2
(dp2147
I8
(dp2148
sI5
(dp2149
sI6
(dp2150
ssI3
(dp2151
I0
g2136
sI8
(dp2152
sI4
(dp2153
sI6
(dp2154
sI7
(dp2155
ssI4
(dp2156
I0
g2137
sI1
g2144
sI3
g2153
sI6
(dp2157
sI7
(dp2158
sI8
(dp2159
ssI5
(dp2160
I0
g2138
sI1
g2145
sI2
g2149
sI8
(dp2161
sI7
(dp2162
ssI6
(dp2163
I0
g2139
sI2
g2150
sI3
g2154
sI4
g2157
sI7
(dp2164
sI8
(dp2165
ssI7
(dp2166
I0
g2140
sI1
g2146
sI3
g2155
sI4
g2158
sI5
g2162
sI6
g2164
sI8
(dp2167
ssI8
(dp2168
I0
g2141
sI1
g2143
sI2
g2148
sI3
g2152
sI4
g2159
sI5
g2161
sI6
g2165
sI7
g2167
sssg61
g8
sbag2
(g3
g4
NtRp2169
(dp2170
g7
g8
sg9
g8
sg10
g2169
sg11
g8
sg12
(dp2171
I0
(dp2172
sI1
(dp2173
sI2
(dp2174
sI3
(dp2175
sI4
(dp2176
sI5
(dp2177
sI6
(dp2178
sI7
(dp2179
sI8
(dp2180
ssg23
(dp2181
sg25
(dp2182
I0
(dp2183
I3
(dp2184
sI4
(dp2185
sI5
(dp2186
sI6
(dp2187
sI7
(dp2188
sI8
(dp2189
ssI1
(dp2190
I8
(dp2191
sI4
(dp2192
sI5
(dp2193
ssI2
(dp2194
I5
(dp2195
sI6
(dp2196
sI7
(dp2197
ssI3
(dp2198
I0
g2184
sI8
(dp2199
sI4
(dp2200
sI6
(dp2201
sI7
(dp2202
ssI4
(dp2203
I0
g2185
sI1
g2192
sI3
g2200
sI6
(dp2204
sI7
(dp2205
sI8
(dp2206
ssI5
(dp2207
I0
g2186
sI1
g2193
sI2
g2195
sI6
(dp2208
sI7
(dp2209
sI8
(dp2210
ssI6
(dp2211
I0
g2187
sI2
g2196
sI3
g2201
sI4
g2204
sI5
g2208
sI7
(dp2212
sI8
(dp2213
ssI7
(dp2214
I0
g2188
sI2
g2197
sI3
g2202
sI4
g2205
sI5
g2209
sI6
g2212
sI8
(dp2215
ssI8
(dp2216
I0
g2189
sI1
g2191
sI3
g2199
sI4
g2206
sI5
g2210
sI6
g2213
sI7
g2215
sssg61
g8
sbag2
(g3
g4
NtRp2217
(dp2218
g7
g8
sg9
g8
sg10
g2217
sg11
g8
sg12
(dp2219
I0
(dp2220
sI1
(dp2221
sI2
(dp2222
sI3
(dp2223
sI4
(dp2224
sI5
(dp2225
sI6
(dp2226
sI7
(dp2227
sI8
(dp2228
ssg23
(dp2229
sg25
(dp2230
I0
(dp2231
I3
(dp2232
sI4
(dp2233
sI5
(dp2234
sI6
(dp2235
sI7
(dp2236
sI8
(dp2237
ssI1
(dp2238
I8
(dp2239
sI4
(dp2240
sI5
(dp2241
ssI2
(dp2242
I8
(dp2243
sI5
(dp2244
sI6
(dp2245
sI7
(dp2246
ssI3
(dp2247
I0
g2232
sI4
(dp2248
sI6
(dp2249
sI7
(dp2250
ssI4
(dp2251
I0
g2233
sI1
g2240
sI3
g2248
sI6
(dp2252
sI7
(dp2253
sI8
(dp2254
ssI5
(dp2255
I0
g2234
sI1
g2241
sI2
g2244
sI6
(dp2256
sI7
(dp2257
sI8
(dp2258
ssI6
(dp2259
I0
g2235
sI2
g2245
sI3
g2249
sI4
g2252
sI5
g2256
sI7
(dp2260
sI8
(dp2261
ssI7
(dp2262
I0
g2236
sI2
g2246
sI3
g2250
sI4
g2253
sI5
g2257
sI6
g2260
sI8
(dp2263
ssI8
(dp2264
I0
g2237
sI1
g2239
sI2
g2243
sI4
g2254
sI5
g2258
sI6
g2261
sI7
g2263
sssg61
g8
sbag2
(g3
g4
NtRp2265
(dp2266
g7
g8
sg9
g8
sg10
g2265
sg11
g8
sg12
(dp2267
I0
(dp2268
sI1
(dp2269
sI2
(dp2270
sI3
(dp2271
sI4
(dp2272
sI5
(dp2273
sI6
(dp2274
sI7
(dp2275
sI8
(dp2276
ssg23
(dp2277
sg25
(dp2278
I0
(dp2279
I3
(dp2280
sI4
(dp2281
sI5
(dp2282
sI6
(dp2283
sI7
(dp2284
sI8
(dp2285
ssI1
(dp2286
I8
(dp2287
sI4
(dp2288
sI5
(dp2289
sI7
(dp2290
ssI2
(dp2291
I5
(dp2292
sI6
(dp2293
sI7
(dp2294
ssI3
(dp2295
I0
g2280
sI8
(dp2296
sI4
(dp2297
sI6
(dp2298
ssI4
(dp2299
I0
g2281
sI1
g2288
sI3
g2297
sI6
(dp2300
sI7
(dp2301
sI8
(dp2302
ssI5
(dp2303
I0
g2282
sI1
g2289
sI2
g2292
sI6
(dp2304
sI7
(dp2305
sI8
(dp2306
ssI6
(dp2307
I0
g2283
sI2
g2293
sI3
g2298
sI4
g2300
sI5
g2304
sI7
(dp2308
sI8
(dp2309
ssI7
(dp2310
I0
g2284
sI1
g2290
sI2
g2294
sI4
g2301
sI5
g2305
sI6
g2308
sI8
(dp2311
ssI8
(dp2312
I0
g2285
sI1
g2287
sI3
g2296
sI4
g2302
sI5
g2306
sI6
g2309
sI7
g2311
sssg61
g8
sbag2
(g3
g4
NtRp2313
(dp2314
g7
g8
sg9
g8
sg10
g2313
sg11
g8
sg12
(dp2315
I0
(dp2316
sI1
(dp2317
sI2
(dp2318
sI3
(dp2319
sI4
(dp2320
sI5
(dp2321
sI6
(dp2322
sI7
(dp2323
sI8
(dp2324
ssg23
(dp2325
sg25
(dp2326
I0
(dp2327
I3
(dp2328
sI4
(dp2329
sI5
(dp2330
sI6
(dp2331
sI7
(dp2332
sI8
(dp2333
ssI1
(dp2334
I8
(dp2335
sI4
(dp2336
sI5
(dp2337
sI7
(dp2338
ssI2
(dp2339
I8
(dp2340
sI5
(dp2341
sI6
(dp2342
sI7
(dp2343
ssI3
(dp2344
I0
g2328
sI4
(dp2345
sI6
(dp2346
ssI4
(dp2347
I0
g2329
sI1
g2336
sI3
g2345
sI6
(dp2348
sI7
(dp2349
sI8
(dp2350
ssI5
(dp2351
I0
g2330
sI1
g2337
sI2
g2341
sI6
(dp2352
sI7
(dp2353
sI8
(dp2354
ssI6
(dp2355
I0
g2331
sI2
g2342
sI3
g2346
sI4
g2348
sI5
g2352
sI7
(dp2356
sI8
(dp2357
ssI7
(dp2358
I0
g2332
sI1
g2338
sI2
g2343
sI4
g2349
sI5
g2353
sI6
g2356
sI8
(dp2359
ssI8
(dp2360
I0
g2333
sI1
g2335
sI2
g2340
sI4
g2350
sI5
g2354
sI6
g2357
sI7
g2359
sssg61
g8
sbag2
(g3
g4
NtRp2361
(dp2362
g7
g8
sg9
g8
sg10
g2361
sg11
g8
sg12
(dp2363
I0
(dp2364
sI1
(dp2365
sI2
(dp2366
sI3
(dp2367
sI4
(dp2368
sI5
(dp2369
sI6
(dp2370
sI7
(dp2371
sI8
(dp2372
ssg23
(dp2373
sg25
(dp2374
I0
(dp2375
I3
(dp2376
sI4
(dp2377
sI5
(dp2378
sI6
(dp2379
sI7
(dp2380
sI8
(dp2381
ssI1
(dp2382
I8
(dp2383
sI4
(dp2384
sI5
(dp2385
sI6
(dp2386
ssI2
(dp2387
I8
(dp2388
sI5
(dp2389
sI7
(dp2390
ssI3
(dp2391
I0
g2376
sI8
(dp2392
sI4
(dp2393
sI6
(dp2394
sI7
(dp2395
ssI4
(dp2396
I0
g2377
sI1
g2384
sI3
g2393
sI6
(dp2397
sI7
(dp2398
sI8
(dp2399
ssI5
(dp2400
I0
g2378
sI1
g2385
sI2
g2389
sI8
(dp2401
sI7
(dp2402
ssI6
(dp2403
I0
g2379
sI1
g2386
sI3
g2394
sI4
g2397
sI7
(dp2404
sI8
(dp2405
ssI7
(dp2406
I0
g2380
sI2
g2390
sI3
g2395
sI4
g2398
sI5
g2402
sI6
g2404
sI8
(dp2407
ssI8
(dp2408
I0
g2381
sI1
g2383
sI2
g2388
sI3
g2392
sI4
g2399
sI5
g2401
sI6
g2405
sI7
g2407
sssg61
g8
sbag2
(g3
g4
NtRp2409
(dp2410
g7
g8
sg9
g8
sg10
g2409
sg11
g8
sg12
(dp2411
I0
(dp2412
sI1
(dp2413
sI2
(dp2414
sI3
(dp2415
sI4
(dp2416
sI5
(dp2417
sI6
(dp2418
sI7
(dp2419
sI8
(dp2420
ssg23
(dp2421
sg25
(dp2422
I0
(dp2423
I3
(dp2424
sI4
(dp2425
sI5
(dp2426
sI6
(dp2427
sI7
(dp2428
sI8
(dp2429
ssI1
(dp2430
I8
(dp2431
sI4
(dp2432
sI5
(dp2433
sI6
(dp2434
sI7
(dp2435
ssI2
(dp2436
I8
(dp2437
sI5
(dp2438
sI7
(dp2439
ssI3
(dp2440
I0
g2424
sI8
(dp2441
sI4
(dp2442
sI6
(dp2443
ssI4
(dp2444
I0
g2425
sI1
g2432
sI3
g2442
sI6
(dp2445
sI7
(dp2446
sI8
(dp2447
ssI5
(dp2448
I0
g2426
sI1
g2433
sI2
g2438
sI8
(dp2449
sI7
(dp2450
ssI6
(dp2451
I0
g2427
sI1
g2434
sI3
g2443
sI4
g2445
sI7
(dp2452
sI8
(dp2453
ssI7
(dp2454
I0
g2428
sI1
g2435
sI2
g2439
sI4
g2446
sI5
g2450
sI6
g2452
sI8
(dp2455
ssI8
(dp2456
I0
g2429
sI1
g2431
sI2
g2437
sI3
g2441
sI4
g2447
sI5
g2449
sI6
g2453
sI7
g2455
sssg61
g8
sbag2
(g3
g4
NtRp2457
(dp2458
g7
g8
sg9
g8
sg10
g2457
sg11
g8
sg12
(dp2459
I0
(dp2460
sI1
(dp2461
sI2
(dp2462
sI3
(dp2463
sI4
(dp2464
sI5
(dp2465
sI6
(dp2466
sI7
(dp2467
sI8
(dp2468
ssg23
(dp2469
sg25
(dp2470
I0
(dp2471
I3
(dp2472
sI4
(dp2473
sI5
(dp2474
sI6
(dp2475
sI7
(dp2476
sI8
(dp2477
ssI1
(dp2478
I8
(dp2479
sI4
(dp2480
sI5
(dp2481
sI6
(dp2482
sI7
(dp2483
ssI2
(dp2484
I8
(dp2485
sI5
(dp2486
ssI3
(dp2487
I0
g2472
sI8
(dp2488
sI4
(dp2489
sI6
(dp2490
sI7
(dp2491
ssI4
(dp2492
I0
g2473
sI1
g2480
sI3
g2489
sI6
(dp2493
sI7
(dp2494
ssI5
(dp2495
I0
g2474
sI1
g2481
sI2
g2486
sI6
(dp2496
sI7
(dp2497
sI8
(dp2498
ssI6
(dp2499
I0
g2475
sI1
g2482
sI3
g2490
sI4
g2493
sI5
g2496
sI7
(dp2500
sI8
(dp2501
ssI7
(dp2502
I0
g2476
sI1
g2483
sI3
g2491
sI4
g2494
sI5
g2497
sI6
g2500
sI8
(dp2503
ssI8
(dp2504
I0
g2477
sI1
g2479
sI2
g2485
sI3
g2488
sI5
g2498
sI6
g2501
sI7
g2503
sssg61
g8
sbag2
(g3
g4
NtRp2505
(dp2506
g7
g8
sg9
g8
sg10
g2505
sg11
g8
sg12
(dp2507
I0
(dp2508
sI1
(dp2509
sI2
(dp2510
sI3
(dp2511
sI4
(dp2512
sI5
(dp2513
sI6
(dp2514
sI7
(dp2515
sI8
(dp2516
ssg23
(dp2517
sg25
(dp2518
I0
(dp2519
I3
(dp2520
sI4
(dp2521
sI5
(dp2522
sI6
(dp2523
sI7
(dp2524
sI8
(dp2525
ssI1
(dp2526
I8
(dp2527
sI4
(dp2528
sI5
(dp2529
sI6
(dp2530
sI7
(dp2531
ssI2
(dp2532
I8
(dp2533
sI5
(dp2534
sI6
(dp2535
ssI3
(dp2536
I0
g2520
sI8
(dp2537
sI4
(dp2538
sI7
(dp2539
ssI4
(dp2540
I0
g2521
sI1
g2528
sI3
g2538
sI8
(dp2541
sI7
(dp2542
ssI5
(dp2543
I0
g2522
sI1
g2529
sI2
g2534
sI6
(dp2544
sI7
(dp2545
sI8
(dp2546
ssI6
(dp2547
I0
g2523
sI1
g2530
sI2
g2535
sI5
g2544
sI7
(dp2548
sI8
(dp2549
ssI7
(dp2550
I0
g2524
sI1
g2531
sI3
g2539
sI4
g2542
sI5
g2545
sI6
g2548
sI8
(dp2551
ssI8
(dp2552
I0
g2525
sI1
g2527
sI2
g2533
sI3
g2537
sI4
g2541
sI5
g2546
sI6
g2549
sI7
g2551
sssg61
g8
sbag2
(g3
g4
NtRp2553
(dp2554
g7
g8
sg9
g8
sg10
g2553
sg11
g8
sg12
(dp2555
I0
(dp2556
sI1
(dp2557
sI2
(dp2558
sI3
(dp2559
sI4
(dp2560
sI5
(dp2561
sI6
(dp2562
sI7
(dp2563
sI8
(dp2564
ssg23
(dp2565
sg25
(dp2566
I0
(dp2567
I3
(dp2568
sI4
(dp2569
sI5
(dp2570
sI6
(dp2571
sI7
(dp2572
sI8
(dp2573
ssI1
(dp2574
I8
(dp2575
sI4
(dp2576
sI5
(dp2577
sI6
(dp2578
sI7
(dp2579
ssI2
(dp2580
I8
(dp2581
sI5
(dp2582
sI6
(dp2583
sI7
(dp2584
ssI3
(dp2585
I0
g2568
sI8
(dp2586
sI4
(dp2587
ssI4
(dp2588
I0
g2569
sI1
g2576
sI3
g2587
sI8
(dp2589
sI7
(dp2590
ssI5
(dp2591
I0
g2570
sI1
g2577
sI2
g2582
sI6
(dp2592
sI7
(dp2593
sI8
(dp2594
ssI6
(dp2595
I0
g2571
sI1
g2578
sI2
g2583
sI5
g2592
sI7
(dp2596
sI8
(dp2597
ssI7
(dp2598
I0
g2572
sI1
g2579
sI2
g2584
sI4
g2590
sI5
g2593
sI6
g2596
sI8
(dp2599
ssI8
(dp2600
I0
g2573
sI1
g2575
sI2
g2581
sI3
g2586
sI4
g2589
sI5
g2594
sI6
g2597
sI7
g2599
sssg61
g8
sbag2
(g3
g4
NtRp2601
(dp2602
g7
g8
sg9
g8
sg10
g2601
sg11
g8
sg12
(dp2603
I0
(dp2604
sI1
(dp2605
sI2
(dp2606
sI3
(dp2607
sI4
(dp2608
sI5
(dp2609
sI6
(dp2610
sI7
(dp2611
sI8
(dp2612
ssg23
(dp2613
sg25
(dp2614
I0
(dp2615
I3
(dp2616
sI4
(dp2617
sI5
(dp2618
sI6
(dp2619
sI7
(dp2620
sI8
(dp2621
ssI1
(dp2622
I8
(dp2623
sI4
(dp2624
sI5
(dp2625
sI6
(dp2626
sI7
(dp2627
ssI2
(dp2628
I8
(dp2629
sI5
(dp2630
sI6
(dp2631
sI7
(dp2632
ssI3
(dp2633
I0
g2616
sI8
(dp2634
sI4
(dp2635
sI6
(dp2636
sI7
(dp2637
ssI4
(dp2638
I0
g2617
sI1
g2624
sI3
g2635
sI8
(dp2639
ssI5
(dp2640
I0
g2618
sI1
g2625
sI2
g2630
sI6
(dp2641
sI7
(dp2642
sI8
(dp2643
ssI6
(dp2644
I0
g2619
sI1
g2626
sI2
g2631
sI3
g2636
sI5
g2641
sI7
(dp2645
sI8
(dp2646
ssI7
(dp2647
I0
g2620
sI1
g2627
sI2
g2632
sI3
g2637
sI5
g2642
sI6
g2645
sI8
(dp2648
ssI8
(dp2649
I0
g2621
sI1
g2623
sI2
g2629
sI3
g2634
sI4
g2639
sI5
g2643
sI6
g2646
sI7
g2648
sssg61
g8
sbag2
(g3
g4
NtRp2650
(dp2651
g7
g8
sg9
g8
sg10
g2650
sg11
g8
sg12
(dp2652
I0
(dp2653
sI1
(dp2654
sI2
(dp2655
sI3
(dp2656
sI4
(dp2657
sI5
(dp2658
sI6
(dp2659
sI7
(dp2660
sI8
(dp2661
ssg23
(dp2662
sg25
(dp2663
I0
(dp2664
I8
(dp2665
sI3
(dp2666
sI4
(dp2667
sI6
(dp2668
sI7
(dp2669
ssI1
(dp2670
I8
(dp2671
sI4
(dp2672
sI5
(dp2673
sI6
(dp2674
sI7
(dp2675
ssI2
(dp2676
I8
(dp2677
sI4
(dp2678
sI5
(dp2679
ssI3
(dp2680
I0
g2666
sI8
(dp2681
sI5
(dp2682
sI6
(dp2683
sI7
(dp2684
ssI4
(dp2685
I0
g2667
sI1
g2672
sI2
g2678
sI6
(dp2686
sI7
(dp2687
sI8
(dp2688
ssI5
(dp2689
I1
g2673
sI2
g2679
sI3
g2682
sI6
(dp2690
sI7
(dp2691
sI8
(dp2692
ssI6
(dp2693
I0
g2668
sI1
g2674
sI3
g2683
sI4
g2686
sI5
g2690
sI7
(dp2694
sI8
(dp2695
ssI7
(dp2696
I0
g2669
sI1
g2675
sI3
g2684
sI4
g2687
sI5
g2691
sI6
g2694
sI8
(dp2697
ssI8
(dp2698
I0
g2665
sI1
g2671
sI2
g2677
sI3
g2681
sI4
g2688
sI5
g2692
sI6
g2695
sI7
g2697
sssg61
g8
sbag2
(g3
g4
NtRp2699
(dp2700
g7
g8
sg9
g8
sg10
g2699
sg11
g8
sg12
(dp2701
I0
(dp2702
sI1
(dp2703
sI2
(dp2704
sI3
(dp2705
sI4
(dp2706
sI5
(dp2707
sI6
(dp2708
sI7
(dp2709
sI8
(dp2710
ssg23
(dp2711
sg25
(dp2712
I0
(dp2713
I8
(dp2714
sI3
(dp2715
sI4
(dp2716
sI6
(dp2717
sI7
(dp2718
ssI1
(dp2719
I8
(dp2720
sI4
(dp2721
sI5
(dp2722
sI6
(dp2723
sI7
(dp2724
ssI2
(dp2725
I8
(dp2726
sI4
(dp2727
sI5
(dp2728
sI6
(dp2729
sI7
(dp2730
ssI3
(dp2731
I0
g2715
sI8
(dp2732
sI5
(dp2733
sI7
(dp2734
ssI4
(dp2735
I0
g2716
sI1
g2721
sI2
g2727
sI6
(dp2736
sI7
(dp2737
sI8
(dp2738
ssI5
(dp2739
I8
(dp2740
sI1
g2722
sI2
g2728
sI3
g2733
sI7
(dp2741
ssI6
(dp2742
I0
g2717
sI1
g2723
sI2
g2729
sI4
g2736
sI7
(dp2743
sI8
(dp2744
ssI7
(dp2745
I0
g2718
sI1
g2724
sI2
g2730
sI3
g2734
sI4
g2737
sI5
g2741
sI6
g2743
sI8
(dp2746
ssI8
(dp2747
I0
g2714
sI1
g2720
sI2
g2726
sI3
g2732
sI4
g2738
sI5
g2740
sI6
g2744
sI7
g2746
sssg61
g8
sbag2
(g3
g4
NtRp2748
(dp2749
g7
g8
sg9
g8
sg10
g2748
sg11
g8
sg12
(dp2750
I0
(dp2751
sI1
(dp2752
sI2
(dp2753
sI3
(dp2754
sI4
(dp2755
sI5
(dp2756
sI6
(dp2757
sI7
(dp2758
sI8
(dp2759
ssg23
(dp2760
sg25
(dp2761
I0
(dp2762
I8
(dp2763
sI3
(dp2764
sI4
(dp2765
sI6
(dp2766
sI7
(dp2767
ssI1
(dp2768
I8
(dp2769
sI4
(dp2770
sI5
(dp2771
sI6
(dp2772
sI7
(dp2773
ssI2
(dp2774
I8
(dp2775
sI4
(dp2776
sI5
(dp2777
sI6
(dp2778
sI7
(dp2779
ssI3
(dp2780
I0
g2764
sI8
(dp2781
sI5
(dp2782
ssI4
(dp2783
I0
g2765
sI1
g2770
sI2
g2776
sI6
(dp2784
sI7
(dp2785
sI8
(dp2786
ssI5
(dp2787
I1
g2771
sI2
g2777
sI3
g2782
sI6
(dp2788
sI7
(dp2789
sI8
(dp2790
ssI6
(dp2791
I0
g2766
sI1
g2772
sI2
g2778
sI4
g2784
sI5
g2788
sI7
(dp2792
sI8
(dp2793
ssI7
(dp2794
I0
g2767
sI1
g2773
sI2
g2779
sI4
g2785
sI5
g2789
sI6
g2792
sI8
(dp2795
ssI8
(dp2796
I0
g2763
sI1
g2769
sI2
g2775
sI3
g2781
sI4
g2786
sI5
g2790
sI6
g2793
sI7
g2795
sssg61
g8
sbag2
(g3
g4
NtRp2797
(dp2798
g7
g8
sg9
g8
sg10
g2797
sg11
g8
sg12
(dp2799
I0
(dp2800
sI1
(dp2801
sI2
(dp2802
sI3
(dp2803
sI4
(dp2804
sI5
(dp2805
sI6
(dp2806
sI7
(dp2807
sI8
(dp2808
ssg23
(dp2809
sg25
(dp2810
I0
(dp2811
I8
(dp2812
sI3
(dp2813
sI4
(dp2814
sI6
(dp2815
sI7
(dp2816
ssI1
(dp2817
I8
(dp2818
sI4
(dp2819
sI5
(dp2820
sI6
(dp2821
sI7
(dp2822
ssI2
(dp2823
I8
(dp2824
sI4
(dp2825
sI5
(dp2826
sI6
(dp2827
sI7
(dp2828
ssI3
(dp2829
I0
g2813
sI8
(dp2830
sI5
(dp2831
sI6
(dp2832
sI7
(dp2833
ssI4
(dp2834
I0
g2814
sI1
g2819
sI2
g2825
sI6
(dp2835
sI7
(dp2836
sI8
(dp2837
ssI5
(dp2838
I8
(dp2839
sI1
g2820
sI2
g2826
sI3
g2831
sI7
(dp2840
ssI6
(dp2841
I0
g2815
sI1
g2821
sI2
g2827
sI3
g2832
sI4
g2835
sI7
(dp2842
sI8
(dp2843
ssI7
(dp2844
I0
g2816
sI1
g2822
sI2
g2828
sI3
g2833
sI4
g2836
sI5
g2840
sI6
g2842
sI8
(dp2845
ssI8
(dp2846
I0
g2812
sI1
g2818
sI2
g2824
sI3
g2830
sI4
g2837
sI5
g2839
sI6
g2843
sI7
g2845
sssg61
g8
sbag2
(g3
g4
NtRp2847
(dp2848
g7
g8
sg9
g8
sg10
g2847
sg11
g8
sg12
(dp2849
I0
(dp2850
sI1
(dp2851
sI2
(dp2852
sI3
(dp2853
sI4
(dp2854
sI5
(dp2855
sI6
(dp2856
sI7
(dp2857
sI8
(dp2858
ssg23
(dp2859
sg25
(dp2860
I0
(dp2861
I3
(dp2862
sI4
(dp2863
sI5
(dp2864
sI6
(dp2865
sI7
(dp2866
sI8
(dp2867
ssI1
(dp2868
I8
(dp2869
sI4
(dp2870
sI5
(dp2871
sI6
(dp2872
ssI2
(dp2873
I8
(dp2874
sI4
(dp2875
sI7
(dp2876
ssI3
(dp2877
I0
g2862
sI8
(dp2878
sI5
(dp2879
sI6
(dp2880
sI7
(dp2881
ssI4
(dp2882
I0
g2863
sI1
g2870
sI2
g2875
sI5
(dp2883
sI6
(dp2884
sI7
(dp2885
ssI5
(dp2886
I0
g2864
sI1
g2871
sI3
g2879
sI4
g2883
sI6
(dp2887
sI7
(dp2888
sI8
(dp2889
ssI6
(dp2890
I0
g2865
sI1
g2872
sI3
g2880
sI4
g2884
sI5
g2887
sI7
(dp2891
sI8
(dp2892
ssI7
(dp2893
I0
g2866
sI2
g2876
sI3
g2881
sI4
g2885
sI5
g2888
sI6
g2891
sI8
(dp2894
ssI8
(dp2895
I0
g2867
sI1
g2869
sI2
g2874
sI3
g2878
sI5
g2889
sI6
g2892
sI7
g2894
sssg61
g8
sbag2
(g3
g4
NtRp2896
(dp2897
g7
g8
sg9
g8
sg10
g2896
sg11
g8
sg12
(dp2898
I0
(dp2899
sI1
(dp2900
sI2
(dp2901
sI3
(dp2902
sI4
(dp2903
sI5
(dp2904
sI6
(dp2905
sI7
(dp2906
sI8
(dp2907
ssg23
(dp2908
sg25
(dp2909
I0
(dp2910
I3
(dp2911
sI4
(dp2912
sI5
(dp2913
sI6
(dp2914
sI7
(dp2915
sI8
(dp2916
ssI1
(dp2917
I8
(dp2918
sI4
(dp2919
sI5
(dp2920
sI6
(dp2921
sI7
(dp2922
ssI2
(dp2923
I8
(dp2924
sI4
(dp2925
sI7
(dp2926
ssI3
(dp2927
I0
g2911
sI8
(dp2928
sI5
(dp2929
sI6
(dp2930
sI7
(dp2931
ssI4
(dp2932
I0
g2912
sI1
g2919
sI2
g2925
sI5
(dp2933
sI6
(dp2934
sI7
(dp2935
sI8
(dp2936
ssI5
(dp2937
I0
g2913
sI1
g2920
sI3
g2929
sI4
g2933
sI6
(dp2938
sI7
(dp2939
sI8
(dp2940
ssI6
(dp2941
I0
g2914
sI1
g2921
sI3
g2930
sI4
g2934
sI5
g2938
ssI7
(dp2942
I0
g2915
sI1
g2922
sI2
g2926
sI3
g2931
sI4
g2935
sI5
g2939
sI8
(dp2943
ssI8
(dp2944
I0
g2916
sI1
g2918
sI2
g2924
sI3
g2928
sI4
g2936
sI5
g2940
sI7
g2943
sssg61
g8
sbag2
(g3
g4
NtRp2945
(dp2946
g7
g8
sg9
g8
sg10
g2945
sg11
g8
sg12
(dp2947
I0
(dp2948
sI1
(dp2949
sI2
(dp2950
sI3
(dp2951
sI4
(dp2952
sI5
(dp2953
sI6
(dp2954
sI7
(dp2955
sI8
(dp2956
ssg23
(dp2957
sg25
(dp2958
I0
(dp2959
I3
(dp2960
sI4
(dp2961
sI5
(dp2962
sI6
(dp2963
sI7
(dp2964
sI8
(dp2965
ssI1
(dp2966
I8
(dp2967
sI4
(dp2968
sI5
(dp2969
sI6
(dp2970
sI7
(dp2971
ssI2
(dp2972
I8
(dp2973
sI4
(dp2974
sI5
(dp2975
ssI3
(dp2976
I0
g2960
sI6
(dp2977
sI7
(dp2978
ssI4
(dp2979
I0
g2961
sI1
g2968
sI2
g2974
sI6
(dp2980
sI7
(dp2981
sI8
(dp2982
ssI5
(dp2983
I0
g2962
sI1
g2969
sI2
g2975
sI6
(dp2984
sI7
(dp2985
sI8
(dp2986
ssI6
(dp2987
I0
g2963
sI1
g2970
sI3
g2977
sI4
g2980
sI5
g2984
sI7
(dp2988
sI8
(dp2989
ssI7
(dp2990
I0
g2964
sI1
g2971
sI3
g2978
sI4
g2981
sI5
g2985
sI6
g2988
sI8
(dp2991
ssI8
(dp2992
I0
g2965
sI1
g2967
sI2
g2973
sI4
g2982
sI5
g2986
sI6
g2989
sI7
g2991
sssg61
g8
sbag2
(g3
g4
NtRp2993
(dp2994
g7
g8
sg9
g8
sg10
g2993
sg11
g8
sg12
(dp2995
I0
(dp2996
sI1
(dp2997
sI2
(dp2998
sI3
(dp2999
sI4
(dp3000
sI5
(dp3001
sI6
(dp3002
sI7
(dp3003
sI8
(dp3004
ssg23
(dp3005
sg25
(dp3006
I0
(dp3007
I3
(dp3008
sI4
(dp3009
sI5
(dp3010
sI6
(dp3011
sI7
(dp3012
sI8
(dp3013
ssI1
(dp3014
I8
(dp3015
sI4
(dp3016
sI5
(dp3017
sI6
(dp3018
sI7
(dp3019
ssI2
(dp3020
I8
(dp3021
sI4
(dp3022
sI5
(dp3023
sI6
(dp3024
sI7
(dp3025
ssI3
(dp3026
I0
g3008
sI6
(dp3027
ssI4
(dp3028
I0
g3009
sI1
g3016
sI2
g3022
sI6
(dp3029
sI7
(dp3030
sI8
(dp3031
ssI5
(dp3032
I0
g3010
sI1
g3017
sI2
g3023
sI8
(dp3033
sI7
(dp3034
ssI6
(dp3035
I0
g3011
sI1
g3018
sI2
g3024
sI3
g3027
sI4
g3029
sI7
(dp3036
sI8
(dp3037
ssI7
(dp3038
I0
g3012
sI1
g3019
sI2
g3025
sI4
g3030
sI5
g3034
sI6
g3036
sI8
(dp3039
ssI8
(dp3040
I0
g3013
sI1
g3015
sI2
g3021
sI4
g3031
sI5
g3033
sI6
g3037
sI7
g3039
sssg61
g8
sbag2
(g3
g4
NtRp3041
(dp3042
g7
g8
sg9
g8
sg10
g3041
sg11
g8
sg12
(dp3043
I0
(dp3044
sI1
(dp3045
sI2
(dp3046
sI3
(dp3047
sI4
(dp3048
sI5
(dp3049
sI6
(dp3050
sI7
(dp3051
sI8
(dp3052
ssg23
(dp3053
sg25
(dp3054
I0
(dp3055
I8
(dp3056
sI3
(dp3057
sI4
(dp3058
sI5
(dp3059
ssI1
(dp3060
I8
(dp3061
sI4
(dp3062
sI5
(dp3063
sI6
(dp3064
sI7
(dp3065
ssI2
(dp3066
I4
(dp3067
sI5
(dp3068
sI6
(dp3069
sI7
(dp3070
ssI3
(dp3071
I0
g3057
sI8
(dp3072
sI6
(dp3073
sI7
(dp3074
ssI4
(dp3075
I0
g3058
sI1
g3062
sI2
g3067
sI5
(dp3076
sI6
(dp3077
sI7
(dp3078
sI8
(dp3079
ssI5
(dp3080
I0
g3059
sI1
g3063
sI2
g3068
sI4
g3076
sI6
(dp3081
sI7
(dp3082
sI8
(dp3083
ssI6
(dp3084
I1
g3064
sI2
g3069
sI3
g3073
sI4
g3077
sI5
g3081
sI7
(dp3085
sI8
(dp3086
ssI7
(dp3087
I1
g3065
sI2
g3070
sI3
g3074
sI4
g3078
sI5
g3082
sI6
g3085
sI8
(dp3088
ssI8
(dp3089
I0
g3056
sI1
g3061
sI3
g3072
sI4
g3079
sI5
g3083
sI6
g3086
sI7
g3088
sssg61
g8
sbag2
(g3
g4
NtRp3090
(dp3091
g7
g8
sg9
g8
sg10
g3090
sg11
g8
sg12
(dp3092
I0
(dp3093
sI1
(dp3094
sI2
(dp3095
sI3
(dp3096
sI4
(dp3097
sI5
(dp3098
sI6
(dp3099
sI7
(dp3100
sI8
(dp3101
ssg23
(dp3102
sg25
(dp3103
I0
(dp3104
I3
(dp3105
sI4
(dp3106
sI5
(dp3107
sI6
(dp3108
sI7
(dp3109
sI8
(dp3110
ssI1
(dp3111
I8
(dp3112
sI4
(dp3113
sI5
(dp3114
sI6
(dp3115
sI7
(dp3116
ssI2
(dp3117
I8
(dp3118
sI4
(dp3119
sI5
(dp3120
ssI3
(dp3121
I0
g3105
sI8
(dp3122
sI6
(dp3123
sI7
(dp3124
ssI4
(dp3125
I0
g3106
sI1
g3113
sI2
g3119
sI5
(dp3126
sI6
(dp3127
sI7
(dp3128
sI8
(dp3129
ssI5
(dp3130
I0
g3107
sI1
g3114
sI2
g3120
sI4
g3126
sI6
(dp3131
sI7
(dp3132
ssI6
(dp3133
I0
g3108
sI1
g3115
sI3
g3123
sI4
g3127
sI5
g3131
sI7
(dp3134
sI8
(dp3135
ssI7
(dp3136
I0
g3109
sI1
g3116
sI3
g3124
sI4
g3128
sI5
g3132
sI6
g3134
sI8
(dp3137
ssI8
(dp3138
I0
g3110
sI1
g3112
sI2
g3118
sI3
g3122
sI4
g3129
sI6
g3135
sI7
g3137
sssg61
g8
sbag2
(g3
g4
NtRp3139
(dp3140
g7
g8
sg9
g8
sg10
g3139
sg11
g8
sg12
(dp3141
I0
(dp3142
sI1
(dp3143
sI2
(dp3144
sI3
(dp3145
sI4
(dp3146
sI5
(dp3147
sI6
(dp3148
sI7
(dp3149
sI8
(dp3150
ssg23
(dp3151
sg25
(dp3152
I0
(dp3153
I8
(dp3154
sI3
(dp3155
sI4
(dp3156
sI5
(dp3157
sI6
(dp3158
ssI1
(dp3159
I8
(dp3160
sI4
(dp3161
sI5
(dp3162
sI6
(dp3163
sI7
(dp3164
ssI2
(dp3165
I4
(dp3166
sI5
(dp3167
sI6
(dp3168
sI7
(dp3169
ssI3
(dp3170
I0
g3155
sI8
(dp3171
sI7
(dp3172
ssI4
(dp3173
I0
g3156
sI1
g3161
sI2
g3166
sI5
(dp3174
sI6
(dp3175
sI7
(dp3176
sI8
(dp3177
ssI5
(dp3178
I0
g3157
sI1
g3162
sI2
g3167
sI4
g3174
sI6
(dp3179
sI7
(dp3180
sI8
(dp3181
ssI6
(dp3182
I0
g3158
sI1
g3163
sI2
g3168
sI4
g3175
sI5
g3179
sI7
(dp3183
sI8
(dp3184
ssI7
(dp3185
I1
g3164
sI2
g3169
sI3
g3172
sI4
g3176
sI5
g3180
sI6
g3183
sI8
(dp3186
ssI8
(dp3187
I0
g3154
sI1
g3160
sI3
g3171
sI4
g3177
sI5
g3181
sI6
g3184
sI7
g3186
sssg61
g8
sbag2
(g3
g4
NtRp3188
(dp3189
g7
g8
sg9
g8
sg10
g3188
sg11
g8
sg12
(dp3190
I0
(dp3191
sI1
(dp3192
sI2
(dp3193
sI3
(dp3194
sI4
(dp3195
sI5
(dp3196
sI6
(dp3197
sI7
(dp3198
sI8
(dp3199
ssg23
(dp3200
sg25
(dp3201
I0
(dp3202
I3
(dp3203
sI4
(dp3204
sI5
(dp3205
sI6
(dp3206
sI7
(dp3207
sI8
(dp3208
ssI1
(dp3209
I8
(dp3210
sI4
(dp3211
sI5
(dp3212
sI6
(dp3213
sI7
(dp3214
ssI2
(dp3215
I8
(dp3216
sI4
(dp3217
sI5
(dp3218
sI6
(dp3219
ssI3
(dp3220
I0
g3203
sI8
(dp3221
sI7
(dp3222
ssI4
(dp3223
I0
g3204
sI1
g3211
sI2
g3217
sI5
(dp3224
sI6
(dp3225
sI7
(dp3226
sI8
(dp3227
ssI5
(dp3228
I0
g3205
sI1
g3212
sI2
g3218
sI4
g3224
sI6
(dp3229
sI7
(dp3230
sI8
(dp3231
ssI6
(dp3232
I0
g3206
sI1
g3213
sI2
g3219
sI4
g3225
sI5
g3229
sI7
(dp3233
ssI7
(dp3234
I0
g3207
sI1
g3214
sI3
g3222
sI4
g3226
sI5
g3230
sI6
g3233
sI8
(dp3235
ssI8
(dp3236
I0
g3208
sI1
g3210
sI2
g3216
sI3
g3221
sI4
g3227
sI5
g3231
sI7
g3235
sssg61
g8
sbag2
(g3
g4
NtRp3237
(dp3238
g7
g8
sg9
g8
sg10
g3237
sg11
g8
sg12
(dp3239
I0
(dp3240
sI1
(dp3241
sI2
(dp3242
sI3
(dp3243
sI4
(dp3244
sI5
(dp3245
sI6
(dp3246
sI7
(dp3247
sI8
(dp3248
ssg23
(dp3249
sg25
(dp3250
I0
(dp3251
I3
(dp3252
sI4
(dp3253
sI5
(dp3254
sI6
(dp3255
sI7
(dp3256
sI8
(dp3257
ssI1
(dp3258
I8
(dp3259
sI4
(dp3260
sI5
(dp3261
sI6
(dp3262
sI7
(dp3263
ssI2
(dp3264
I8
(dp3265
sI4
(dp3266
sI5
(dp3267
sI6
(dp3268
ssI3
(dp3269
I0
g3252
sI8
(dp3270
sI7
(dp3271
ssI4
(dp3272
I0
g3253
sI1
g3260
sI2
g3266
sI5
(dp3273
sI6
(dp3274
sI7
(dp3275
sI8
(dp3276
ssI5
(dp3277
I0
g3254
sI1
g3261
sI2
g3267
sI4
g3273
sI6
(dp3278
sI7
(dp3279
sI8
(dp3280
ssI6
(dp3281
I0
g3255
sI1
g3262
sI2
g3268
sI4
g3274
sI5
g3278
sI7
(dp3282
sI8
(dp3283
ssI7
(dp3284
I0
g3256
sI1
g3263
sI3
g3271
sI4
g3275
sI5
g3279
sI6
g3282
ssI8
(dp3285
I0
g3257
sI1
g3259
sI2
g3265
sI3
g3270
sI4
g3276
sI5
g3280
sI6
g3283
sssg61
g8
sbag2
(g3
g4
NtRp3286
(dp3287
g7
g8
sg9
g8
sg10
g3286
sg11
g8
sg12
(dp3288
I0
(dp3289
sI1
(dp3290
sI2
(dp3291
sI3
(dp3292
sI4
(dp3293
sI5
(dp3294
sI6
(dp3295
sI7
(dp3296
sI8
(dp3297
ssg23
(dp3298
sg25
(dp3299
I0
(dp3300
I3
(dp3301
sI4
(dp3302
sI5
(dp3303
sI6
(dp3304
sI7
(dp3305
sI8
(dp3306
ssI1
(dp3307
I8
(dp3308
sI4
(dp3309
sI5
(dp3310
sI6
(dp3311
sI7
(dp3312
ssI2
(dp3313
I8
(dp3314
sI4
(dp3315
sI5
(dp3316
sI6
(dp3317
sI7
(dp3318
ssI3
(dp3319
I0
g3301
sI8
(dp3320
sI7
(dp3321
ssI4
(dp3322
I0
g3302
sI1
g3309
sI2
g3315
sI5
(dp3323
sI6
(dp3324
sI7
(dp3325
sI8
(dp3326
ssI5
(dp3327
I0
g3303
sI1
g3310
sI2
g3316
sI4
g3323
sI6
(dp3328
sI7
(dp3329
sI8
(dp3330
ssI6
(dp3331
I0
g3304
sI1
g3311
sI2
g3317
sI4
g3324
sI5
g3328
ssI7
(dp3332
I0
g3305
sI1
g3312
sI2
g3318
sI3
g3321
sI4
g3325
sI5
g3329
sI8
(dp3333
ssI8
(dp3334
I0
g3306
sI1
g3308
sI2
g3314
sI3
g3320
sI4
g3326
sI5
g3330
sI7
g3333
sssg61
g8
sbag2
(g3
g4
NtRp3335
(dp3336
g7
g8
sg9
g8
sg10
g3335
sg11
g8
sg12
(dp3337
I0
(dp3338
sI1
(dp3339
sI2
(dp3340
sI3
(dp3341
sI4
(dp3342
sI5
(dp3343
sI6
(dp3344
sI7
(dp3345
sI8
(dp3346
ssg23
(dp3347
sg25
(dp3348
I0
(dp3349
I3
(dp3350
sI4
(dp3351
sI5
(dp3352
sI6
(dp3353
sI7
(dp3354
sI8
(dp3355
ssI1
(dp3356
I8
(dp3357
sI4
(dp3358
sI5
(dp3359
sI6
(dp3360
sI7
(dp3361
ssI2
(dp3362
I8
(dp3363
sI4
(dp3364
sI5
(dp3365
sI6
(dp3366
sI7
(dp3367
ssI3
(dp3368
I0
g3350
sI8
(dp3369
sI6
(dp3370
ssI4
(dp3371
I0
g3351
sI1
g3358
sI2
g3364
sI5
(dp3372
sI7
(dp3373
sI8
(dp3374
ssI5
(dp3375
I0
g3352
sI1
g3359
sI2
g3365
sI4
g3372
sI7
(dp3376
sI8
(dp3377
ssI6
(dp3378
I0
g3353
sI1
g3360
sI2
g3366
sI3
g3370
sI7
(dp3379
sI8
(dp3380
ssI7
(dp3381
I0
g3354
sI1
g3361
sI2
g3367
sI4
g3373
sI5
g3376
sI6
g3379
sI8
(dp3382
ssI8
(dp3383
I0
g3355
sI1
g3357
sI2
g3363
sI3
g3369
sI4
g3374
sI5
g3377
sI6
g3380
sI7
g3382
sssg61
g8
sbag2
(g3
g4
NtRp3384
(dp3385
g7
g8
sg9
g8
sg10
g3384
sg11
g8
sg12
(dp3386
I0
(dp3387
sI1
(dp3388
sI2
(dp3389
sI3
(dp3390
sI4
(dp3391
sI5
(dp3392
sI6
(dp3393
sI7
(dp3394
sI8
(dp3395
ssg23
(dp3396
sg25
(dp3397
I0
(dp3398
I3
(dp3399
sI4
(dp3400
sI5
(dp3401
sI6
(dp3402
sI7
(dp3403
sI8
(dp3404
ssI1
(dp3405
I8
(dp3406
sI4
(dp3407
sI5
(dp3408
sI6
(dp3409
sI7
(dp3410
ssI2
(dp3411
I8
(dp3412
sI4
(dp3413
sI5
(dp3414
sI6
(dp3415
sI7
(dp3416
ssI3
(dp3417
I0
g3399
sI8
(dp3418
sI6
(dp3419
sI7
(dp3420
ssI4
(dp3421
I0
g3400
sI1
g3407
sI2
g3413
sI5
(dp3422
sI6
(dp3423
sI7
(dp3424
sI8
(dp3425
ssI5
(dp3426
I0
g3401
sI1
g3408
sI2
g3414
sI4
g3422
sI8
(dp3427
ssI6
(dp3428
I0
g3402
sI1
g3409
sI2
g3415
sI3
g3419
sI4
g3423
sI7
(dp3429
sI8
(dp3430
ssI7
(dp3431
I0
g3403
sI1
g3410
sI2
g3416
sI3
g3420
sI4
g3424
sI6
g3429
sI8
(dp3432
ssI8
(dp3433
I0
g3404
sI1
g3406
sI2
g3412
sI3
g3418
sI4
g3425
sI5
g3427
sI6
g3430
sI7
g3432
sssg61
g8
sbag2
(g3
g4
NtRp3434
(dp3435
g7
g8
sg9
g8
sg10
g3434
sg11
g8
sg12
(dp3436
I0
(dp3437
sI1
(dp3438
sI2
(dp3439
sI3
(dp3440
sI4
(dp3441
sI5
(dp3442
sI6
(dp3443
sI7
(dp3444
sI8
(dp3445
ssg23
(dp3446
sg25
(dp3447
I0
(dp3448
I3
(dp3449
sI4
(dp3450
sI5
(dp3451
sI6
(dp3452
sI7
(dp3453
sI8
(dp3454
ssI1
(dp3455
I8
(dp3456
sI4
(dp3457
sI5
(dp3458
sI6
(dp3459
sI7
(dp3460
ssI2
(dp3461
I8
(dp3462
sI4
(dp3463
sI5
(dp3464
sI6
(dp3465
sI7
(dp3466
ssI3
(dp3467
I0
g3449
sI6
(dp3468
sI7
(dp3469
ssI4
(dp3470
I0
g3450
sI1
g3457
sI2
g3463
sI5
(dp3471
sI6
(dp3472
sI7
(dp3473
sI8
(dp3474
ssI5
(dp3475
I0
g3451
sI1
g3458
sI2
g3464
sI4
g3471
sI6
(dp3476
sI7
(dp3477
sI8
(dp3478
ssI6
(dp3479
I0
g3452
sI1
g3459
sI2
g3465
sI3
g3468
sI4
g3472
sI5
g3476
sI8
(dp3480
ssI7
(dp3481
I0
g3453
sI1
g3460
sI2
g3466
sI3
g3469
sI4
g3473
sI5
g3477
sI8
(dp3482
ssI8
(dp3483
I0
g3454
sI1
g3456
sI2
g3462
sI4
g3474
sI5
g3478
sI6
g3480
sI7
g3482
sssg61
g8
sbag2
(g3
g4
NtRp3484
(dp3485
g7
g8
sg9
g8
sg10
g3484
sg11
g8
sg12
(dp3486
I0
(dp3487
sI1
(dp3488
sI2
(dp3489
sI3
(dp3490
sI4
(dp3491
sI5
(dp3492
sI6
(dp3493
sI7
(dp3494
sI8
(dp3495
ssg23
(dp3496
sg25
(dp3497
I0
(dp3498
I8
(dp3499
sI3
(dp3500
sI4
(dp3501
sI5
(dp3502
ssI1
(dp3503
I8
(dp3504
sI4
(dp3505
sI5
(dp3506
sI6
(dp3507
sI7
(dp3508
ssI2
(dp3509
I8
(dp3510
sI4
(dp3511
sI5
(dp3512
sI6
(dp3513
sI7
(dp3514
ssI3
(dp3515
I0
g3500
sI8
(dp3516
sI5
(dp3517
sI6
(dp3518
sI7
(dp3519
ssI4
(dp3520
I0
g3501
sI1
g3505
sI2
g3511
sI6
(dp3521
sI7
(dp3522
sI8
(dp3523
ssI5
(dp3524
I0
g3502
sI1
g3506
sI2
g3512
sI3
g3517
sI6
(dp3525
sI7
(dp3526
sI8
(dp3527
ssI6
(dp3528
I1
g3507
sI2
g3513
sI3
g3518
sI4
g3521
sI5
g3525
sI7
(dp3529
sI8
(dp3530
ssI7
(dp3531
I1
g3508
sI2
g3514
sI3
g3519
sI4
g3522
sI5
g3526
sI6
g3529
sI8
(dp3532
ssI8
(dp3533
I0
g3499
sI1
g3504
sI2
g3510
sI3
g3516
sI4
g3523
sI5
g3527
sI6
g3530
sI7
g3532
sssg61
g8
sbag2
(g3
g4
NtRp3534
(dp3535
g7
g8
sg9
g8
sg10
g3534
sg11
g8
sg12
(dp3536
I0
(dp3537
sI1
(dp3538
sI2
(dp3539
sI3
(dp3540
sI4
(dp3541
sI5
(dp3542
sI6
(dp3543
sI7
(dp3544
sI8
(dp3545
ssg23
(dp3546
sg25
(dp3547
I0
(dp3548
I8
(dp3549
sI3
(dp3550
sI4
(dp3551
sI6
(dp3552
sI7
(dp3553
ssI1
(dp3554
I8
(dp3555
sI3
(dp3556
sI5
(dp3557
sI6
(dp3558
sI7
(dp3559
ssI2
(dp3560
I8
(dp3561
sI4
(dp3562
sI5
(dp3563
sI7
(dp3564
ssI3
(dp3565
I0
g3550
sI1
g3556
sI6
(dp3566
sI8
(dp3567
sI7
(dp3568
ssI4
(dp3569
I0
g3551
sI8
(dp3570
sI2
g3562
sI6
(dp3571
sI7
(dp3572
ssI5
(dp3573
I8
(dp3574
sI1
g3557
sI2
g3563
sI7
(dp3575
ssI6
(dp3576
I0
g3552
sI1
g3558
sI3
g3566
sI4
g3571
sI7
(dp3577
sI8
(dp3578
ssI7
(dp3579
I0
g3553
sI1
g3559
sI2
g3564
sI3
g3568
sI4
g3572
sI5
g3575
sI6
g3577
sI8
(dp3580
ssI8
(dp3581
I0
g3549
sI1
g3555
sI2
g3561
sI3
g3567
sI4
g3570
sI5
g3574
sI6
g3578
sI7
g3580
sssg61
g8
sbag2
(g3
g4
NtRp3582
(dp3583
g7
g8
sg9
g8
sg10
g3582
sg11
g8
sg12
(dp3584
I0
(dp3585
sI1
(dp3586
sI2
(dp3587
sI3
(dp3588
sI4
(dp3589
sI5
(dp3590
sI6
(dp3591
sI7
(dp3592
sI8
(dp3593
ssg23
(dp3594
sg25
(dp3595
I0
(dp3596
I8
(dp3597
sI3
(dp3598
sI4
(dp3599
sI6
(dp3600
sI7
(dp3601
ssI1
(dp3602
I8
(dp3603
sI3
(dp3604
sI5
(dp3605
sI6
(dp3606
sI7
(dp3607
ssI2
(dp3608
I8
(dp3609
sI4
(dp3610
sI5
(dp3611
sI6
(dp3612
sI7
(dp3613
ssI3
(dp3614
I0
g3598
sI1
g3604
sI6
(dp3615
sI8
(dp3616
sI7
(dp3617
ssI4
(dp3618
I0
g3599
sI8
(dp3619
sI2
g3610
sI6
(dp3620
sI7
(dp3621
ssI5
(dp3622
I8
(dp3623
sI1
g3605
sI2
g3611
ssI6
(dp3624
I0
g3600
sI1
g3606
sI2
g3612
sI3
g3615
sI4
g3620
sI7
(dp3625
sI8
(dp3626
ssI7
(dp3627
I0
g3601
sI1
g3607
sI2
g3613
sI3
g3617
sI4
g3621
sI6
g3625
sI8
(dp3628
ssI8
(dp3629
I0
g3597
sI1
g3603
sI2
g3609
sI3
g3616
sI4
g3619
sI5
g3623
sI6
g3626
sI7
g3628
sssg61
g8
sbag2
(g3
g4
NtRp3630
(dp3631
g7
g8
sg9
g8
sg10
g3630
sg11
g8
sg12
(dp3632
I0
(dp3633
sI1
(dp3634
sI2
(dp3635
sI3
(dp3636
sI4
(dp3637
sI5
(dp3638
sI6
(dp3639
sI7
(dp3640
sI8
(dp3641
ssg23
(dp3642
sg25
(dp3643
I0
(dp3644
I8
(dp3645
sI3
(dp3646
sI4
(dp3647
sI6
(dp3648
sI7
(dp3649
ssI1
(dp3650
I8
(dp3651
sI3
(dp3652
sI5
(dp3653
ssI2
(dp3654
I8
(dp3655
sI4
(dp3656
sI5
(dp3657
sI6
(dp3658
sI7
(dp3659
ssI3
(dp3660
I0
g3646
sI1
g3652
sI5
(dp3661
sI6
(dp3662
sI7
(dp3663
sI8
(dp3664
ssI4
(dp3665
I0
g3647
sI8
(dp3666
sI2
g3656
sI7
(dp3667
ssI5
(dp3668
I1
g3653
sI2
g3657
sI3
g3661
sI6
(dp3669
sI7
(dp3670
sI8
(dp3671
ssI6
(dp3672
I0
g3648
sI2
g3658
sI3
g3662
sI5
g3669
sI7
(dp3673
sI8
(dp3674
ssI7
(dp3675
I0
g3649
sI2
g3659
sI3
g3663
sI4
g3667
sI5
g3670
sI6
g3673
sI8
(dp3676
ssI8
(dp3677
I0
g3645
sI1
g3651
sI2
g3655
sI3
g3664
sI4
g3666
sI5
g3671
sI6
g3674
sI7
g3676
sssg61
g8
sbag2
(g3
g4
NtRp3678
(dp3679
g7
g8
sg9
g8
sg10
g3678
sg11
g8
sg12
(dp3680
I0
(dp3681
sI1
(dp3682
sI2
(dp3683
sI3
(dp3684
sI4
(dp3685
sI5
(dp3686
sI6
(dp3687
sI7
(dp3688
sI8
(dp3689
ssg23
(dp3690
sg25
(dp3691
I0
(dp3692
I8
(dp3693
sI3
(dp3694
sI4
(dp3695
sI6
(dp3696
sI7
(dp3697
ssI1
(dp3698
I8
(dp3699
sI3
(dp3700
sI5
(dp3701
sI7
(dp3702
ssI2
(dp3703
I8
(dp3704
sI4
(dp3705
sI5
(dp3706
sI6
(dp3707
sI7
(dp3708
ssI3
(dp3709
I0
g3694
sI1
g3700
sI5
(dp3710
sI6
(dp3711
sI7
(dp3712
sI8
(dp3713
ssI4
(dp3714
I0
g3695
sI8
(dp3715
sI2
g3705
ssI5
(dp3716
I1
g3701
sI2
g3706
sI3
g3710
sI6
(dp3717
sI7
(dp3718
sI8
(dp3719
ssI6
(dp3720
I0
g3696
sI2
g3707
sI3
g3711
sI5
g3717
sI7
(dp3721
sI8
(dp3722
ssI7
(dp3723
I0
g3697
sI1
g3702
sI2
g3708
sI3
g3712
sI5
g3718
sI6
g3721
sI8
(dp3724
ssI8
(dp3725
I0
g3693
sI1
g3699
sI2
g3704
sI3
g3713
sI4
g3715
sI5
g3719
sI6
g3722
sI7
g3724
sssg61
g8
sbag2
(g3
g4
NtRp3726
(dp3727
g7
g8
sg9
g8
sg10
g3726
sg11
g8
sg12
(dp3728
I0
(dp3729
sI1
(dp3730
sI2
(dp3731
sI3
(dp3732
sI4
(dp3733
sI5
(dp3734
sI6
(dp3735
sI7
(dp3736
sI8
(dp3737
ssg23
(dp3738
sg25
(dp3739
I0
(dp3740
I8
(dp3741
sI3
(dp3742
sI4
(dp3743
sI6
(dp3744
sI7
(dp3745
ssI1
(dp3746
I8
(dp3747
sI3
(dp3748
sI5
(dp3749
ssI2
(dp3750
I8
(dp3751
sI4
(dp3752
sI5
(dp3753
sI6
(dp3754
sI7
(dp3755
ssI3
(dp3756
I0
g3742
sI1
g3748
sI5
(dp3757
sI6
(dp3758
sI7
(dp3759
sI8
(dp3760
ssI4
(dp3761
I0
g3743
sI8
(dp3762
sI2
g3752
sI6
(dp3763
sI7
(dp3764
ssI5
(dp3765
I8
(dp3766
sI1
g3749
sI2
g3753
sI3
g3757
sI7
(dp3767
ssI6
(dp3768
I0
g3744
sI2
g3754
sI3
g3758
sI4
g3763
sI7
(dp3769
sI8
(dp3770
ssI7
(dp3771
I0
g3745
sI2
g3755
sI3
g3759
sI4
g3764
sI5
g3767
sI6
g3769
sI8
(dp3772
ssI8
(dp3773
I0
g3741
sI1
g3747
sI2
g3751
sI3
g3760
sI4
g3762
sI5
g3766
sI6
g3770
sI7
g3772
sssg61
g8
sbag2
(g3
g4
NtRp3774
(dp3775
g7
g8
sg9
g8
sg10
g3774
sg11
g8
sg12
(dp3776
I0
(dp3777
sI1
(dp3778
sI2
(dp3779
sI3
(dp3780
sI4
(dp3781
sI5
(dp3782
sI6
(dp3783
sI7
(dp3784
sI8
(dp3785
ssg23
(dp3786
sg25
(dp3787
I0
(dp3788
I8
(dp3789
sI3
(dp3790
sI4
(dp3791
sI6
(dp3792
sI7
(dp3793
ssI1
(dp3794
I8
(dp3795
sI3
(dp3796
sI5
(dp3797
sI6
(dp3798
sI7
(dp3799
ssI2
(dp3800
I8
(dp3801
sI4
(dp3802
sI5
(dp3803
sI7
(dp3804
ssI3
(dp3805
I0
g3790
sI1
g3796
sI5
(dp3806
sI6
(dp3807
sI7
(dp3808
sI8
(dp3809
ssI4
(dp3810
I0
g3791
sI8
(dp3811
sI2
g3802
sI6
(dp3812
sI7
(dp3813
ssI5
(dp3814
I8
(dp3815
sI1
g3797
sI2
g3803
sI3
g3806
sI7
(dp3816
ssI6
(dp3817
I0
g3792
sI1
g3798
sI3
g3807
sI4
g3812
sI7
(dp3818
sI8
(dp3819
ssI7
(dp3820
I0
g3793
sI1
g3799
sI2
g3804
sI3
g3808
sI4
g3813
sI5
g3816
sI6
g3818
sI8
(dp3821
ssI8
(dp3822
I0
g3789
sI1
g3795
sI2
g3801
sI3
g3809
sI4
g3811
sI5
g3815
sI6
g3819
sI7
g3821
sssg61
g8
sbag2
(g3
g4
NtRp3823
(dp3824
g7
g8
sg9
g8
sg10
g3823
sg11
g8
sg12
(dp3825
I0
(dp3826
sI1
(dp3827
sI2
(dp3828
sI3
(dp3829
sI4
(dp3830
sI5
(dp3831
sI6
(dp3832
sI7
(dp3833
sI8
(dp3834
ssg23
(dp3835
sg25
(dp3836
I0
(dp3837
I8
(dp3838
sI3
(dp3839
sI4
(dp3840
sI6
(dp3841
ssI1
(dp3842
I8
(dp3843
sI3
(dp3844
sI5
(dp3845
sI6
(dp3846
sI7
(dp3847
ssI2
(dp3848
I8
(dp3849
sI4
(dp3850
sI5
(dp3851
sI7
(dp3852
ssI3
(dp3853
I0
g3839
sI1
g3844
sI5
(dp3854
sI6
(dp3855
sI7
(dp3856
sI8
(dp3857
ssI4
(dp3858
I0
g3840
sI8
(dp3859
sI2
g3850
sI6
(dp3860
sI7
(dp3861
ssI5
(dp3862
I1
g3845
sI2
g3851
sI3
g3854
sI6
(dp3863
sI7
(dp3864
sI8
(dp3865
ssI6
(dp3866
I0
g3841
sI1
g3846
sI3
g3855
sI4
g3860
sI5
g3863
sI7
(dp3867
sI8
(dp3868
ssI7
(dp3869
I1
g3847
sI2
g3852
sI3
g3856
sI4
g3861
sI5
g3864
sI6
g3867
sI8
(dp3870
ssI8
(dp3871
I0
g3838
sI1
g3843
sI2
g3849
sI3
g3857
sI4
g3859
sI5
g3865
sI6
g3868
sI7
g3870
sssg61
g8
sbag2
(g3
g4
NtRp3872
(dp3873
g7
g8
sg9
g8
sg10
g3872
sg11
g8
sg12
(dp3874
I0
(dp3875
sI1
(dp3876
sI2
(dp3877
sI3
(dp3878
sI4
(dp3879
sI5
(dp3880
sI6
(dp3881
sI7
(dp3882
sI8
(dp3883
ssg23
(dp3884
sg25
(dp3885
I0
(dp3886
I8
(dp3887
sI3
(dp3888
sI4
(dp3889
sI6
(dp3890
sI7
(dp3891
ssI1
(dp3892
I8
(dp3893
sI3
(dp3894
sI5
(dp3895
sI6
(dp3896
ssI2
(dp3897
I8
(dp3898
sI4
(dp3899
sI5
(dp3900
sI7
(dp3901
ssI3
(dp3902
I0
g3888
sI1
g3894
sI5
(dp3903
sI6
(dp3904
sI7
(dp3905
sI8
(dp3906
ssI4
(dp3907
I0
g3889
sI8
(dp3908
sI2
g3899
sI6
(dp3909
sI7
(dp3910
ssI5
(dp3911
I1
g3895
sI2
g3900
sI3
g3903
sI6
(dp3912
sI7
(dp3913
sI8
(dp3914
ssI6
(dp3915
I0
g3890
sI1
g3896
sI3
g3904
sI4
g3909
sI5
g3912
sI7
(dp3916
sI8
(dp3917
ssI7
(dp3918
I0
g3891
sI2
g3901
sI3
g3905
sI4
g3910
sI5
g3913
sI6
g3916
sI8
(dp3919
ssI8
(dp3920
I0
g3887
sI1
g3893
sI2
g3898
sI3
g3906
sI4
g3908
sI5
g3914
sI6
g3917
sI7
g3919
sssg61
g8
sbag2
(g3
g4
NtRp3921
(dp3922
g7
g8
sg9
g8
sg10
g3921
sg11
g8
sg12
(dp3923
I0
(dp3924
sI1
(dp3925
sI2
(dp3926
sI3
(dp3927
sI4
(dp3928
sI5
(dp3929
sI6
(dp3930
sI7
(dp3931
sI8
(dp3932
ssg23
(dp3933
sg25
(dp3934
I0
(dp3935
I8
(dp3936
sI3
(dp3937
sI4
(dp3938
sI6
(dp3939
sI7
(dp3940
ssI1
(dp3941
I8
(dp3942
sI3
(dp3943
sI5
(dp3944
sI6
(dp3945
sI7
(dp3946
ssI2
(dp3947
I8
(dp3948
sI4
(dp3949
sI5
(dp3950
ssI3
(dp3951
I0
g3937
sI1
g3943
sI5
(dp3952
sI6
(dp3953
sI7
(dp3954
sI8
(dp3955
ssI4
(dp3956
I0
g3938
sI8
(dp3957
sI2
g3949
sI6
(dp3958
sI7
(dp3959
ssI5
(dp3960
I1
g3944
sI2
g3950
sI3
g3952
sI6
(dp3961
sI7
(dp3962
sI8
(dp3963
ssI6
(dp3964
I0
g3939
sI1
g3945
sI3
g3953
sI4
g3958
sI5
g3961
sI7
(dp3965
sI8
(dp3966
ssI7
(dp3967
I0
g3940
sI1
g3946
sI3
g3954
sI4
g3959
sI5
g3962
sI6
g3965
sI8
(dp3968
ssI8
(dp3969
I0
g3936
sI1
g3942
sI2
g3948
sI3
g3955
sI4
g3957
sI5
g3963
sI6
g3966
sI7
g3968
sssg61
g8
sbag2
(g3
g4
NtRp3970
(dp3971
g7
g8
sg9
g8
sg10
g3970
sg11
g8
sg12
(dp3972
I0
(dp3973
sI1
(dp3974
sI2
(dp3975
sI3
(dp3976
sI4
(dp3977
sI5
(dp3978
sI6
(dp3979
sI7
(dp3980
sI8
(dp3981
ssg23
(dp3982
sg25
(dp3983
I0
(dp3984
I8
(dp3985
sI3
(dp3986
sI4
(dp3987
sI6
(dp3988
sI7
(dp3989
ssI1
(dp3990
I8
(dp3991
sI3
(dp3992
sI5
(dp3993
sI6
(dp3994
sI7
(dp3995
ssI2
(dp3996
I8
(dp3997
sI4
(dp3998
sI5
(dp3999
sI7
(dp4000
ssI3
(dp4001
I0
g3986
sI1
g3992
sI5
(dp4002
sI6
(dp4003
sI7
(dp4004
sI8
(dp4005
ssI4
(dp4006
I0
g3987
sI8
(dp4007
sI2
g3998
sI6
(dp4008
ssI5
(dp4009
I1
g3993
sI2
g3999
sI3
g4002
sI6
(dp4010
sI7
(dp4011
sI8
(dp4012
ssI6
(dp4013
I0
g3988
sI1
g3994
sI3
g4003
sI4
g4008
sI5
g4010
sI7
(dp4014
sI8
(dp4015
ssI7
(dp4016
I0
g3989
sI1
g3995
sI2
g4000
sI3
g4004
sI5
g4011
sI6
g4014
sI8
(dp4017
ssI8
(dp4018
I0
g3985
sI1
g3991
sI2
g3997
sI3
g4005
sI4
g4007
sI5
g4012
sI6
g4015
sI7
g4017
sssg61
g8
sbag2
(g3
g4
NtRp4019
(dp4020
g7
g8
sg9
g8
sg10
g4019
sg11
g8
sg12
(dp4021
I0
(dp4022
sI1
(dp4023
sI2
(dp4024
sI3
(dp4025
sI4
(dp4026
sI5
(dp4027
sI6
(dp4028
sI7
(dp4029
sI8
(dp4030
ssg23
(dp4031
sg25
(dp4032
I0
(dp4033
I8
(dp4034
sI3
(dp4035
sI4
(dp4036
sI6
(dp4037
sI7
(dp4038
ssI1
(dp4039
I8
(dp4040
sI3
(dp4041
sI5
(dp4042
sI6
(dp4043
sI7
(dp4044
ssI2
(dp4045
I8
(dp4046
sI4
(dp4047
sI5
(dp4048
sI6
(dp4049
sI7
(dp4050
ssI3
(dp4051
I0
g4035
sI1
g4041
sI5
(dp4052
sI8
(dp4053
sI7
(dp4054
ssI4
(dp4055
I0
g4036
sI8
(dp4056
sI2
g4047
sI6
(dp4057
sI7
(dp4058
ssI5
(dp4059
I8
(dp4060
sI1
g4042
sI2
g4048
sI3
g4052
sI7
(dp4061
ssI6
(dp4062
I0
g4037
sI1
g4043
sI2
g4049
sI4
g4057
sI7
(dp4063
sI8
(dp4064
ssI7
(dp4065
I0
g4038
sI1
g4044
sI2
g4050
sI3
g4054
sI4
g4058
sI5
g4061
sI6
g4063
sI8
(dp4066
ssI8
(dp4067
I0
g4034
sI1
g4040
sI2
g4046
sI3
g4053
sI4
g4056
sI5
g4060
sI6
g4064
sI7
g4066
sssg61
g8
sbag2
(g3
g4
NtRp4068
(dp4069
g7
g8
sg9
g8
sg10
g4068
sg11
g8
sg12
(dp4070
I0
(dp4071
sI1
(dp4072
sI2
(dp4073
sI3
(dp4074
sI4
(dp4075
sI5
(dp4076
sI6
(dp4077
sI7
(dp4078
sI8
(dp4079
ssg23
(dp4080
sg25
(dp4081
I0
(dp4082
I8
(dp4083
sI3
(dp4084
sI4
(dp4085
sI6
(dp4086
sI7
(dp4087
ssI1
(dp4088
I8
(dp4089
sI3
(dp4090
sI5
(dp4091
sI6
(dp4092
ssI2
(dp4093
I8
(dp4094
sI4
(dp4095
sI5
(dp4096
sI6
(dp4097
sI7
(dp4098
ssI3
(dp4099
I0
g4084
sI1
g4090
sI5
(dp4100
sI6
(dp4101
sI7
(dp4102
sI8
(dp4103
ssI4
(dp4104
I0
g4085
sI8
(dp4105
sI2
g4095
sI7
(dp4106
ssI5
(dp4107
I1
g4091
sI2
g4096
sI3
g4100
sI6
(dp4108
sI7
(dp4109
sI8
(dp4110
ssI6
(dp4111
I0
g4086
sI1
g4092
sI2
g4097
sI3
g4101
sI5
g4108
sI7
(dp4112
sI8
(dp4113
ssI7
(dp4114
I0
g4087
sI2
g4098
sI3
g4102
sI4
g4106
sI5
g4109
sI6
g4112
sI8
(dp4115
ssI8
(dp4116
I0
g4083
sI1
g4089
sI2
g4094
sI3
g4103
sI4
g4105
sI5
g4110
sI6
g4113
sI7
g4115
sssg61
g8
sbag2
(g3
g4
NtRp4117
(dp4118
g7
g8
sg9
g8
sg10
g4117
sg11
g8
sg12
(dp4119
I0
(dp4120
sI1
(dp4121
sI2
(dp4122
sI3
(dp4123
sI4
(dp4124
sI5
(dp4125
sI6
(dp4126
sI7
(dp4127
sI8
(dp4128
ssg23
(dp4129
sg25
(dp4130
I0
(dp4131
I8
(dp4132
sI3
(dp4133
sI4
(dp4134
sI6
(dp4135
ssI1
(dp4136
I8
(dp4137
sI3
(dp4138
sI5
(dp4139
sI6
(dp4140
sI7
(dp4141
ssI2
(dp4142
I8
(dp4143
sI4
(dp4144
sI5
(dp4145
sI6
(dp4146
sI7
(dp4147
ssI3
(dp4148
I0
g4133
sI1
g4138
sI5
(dp4149
sI6
(dp4150
sI7
(dp4151
sI8
(dp4152
ssI4
(dp4153
I0
g4134
sI8
(dp4154
sI2
g4144
sI6
(dp4155
sI7
(dp4156
ssI5
(dp4157
I8
(dp4158
sI1
g4139
sI2
g4145
sI3
g4149
sI7
(dp4159
ssI6
(dp4160
I0
g4135
sI1
g4140
sI2
g4146
sI3
g4150
sI4
g4155
sI7
(dp4161
sI8
(dp4162
ssI7
(dp4163
I1
g4141
sI2
g4147
sI3
g4151
sI4
g4156
sI5
g4159
sI6
g4161
sI8
(dp4164
ssI8
(dp4165
I0
g4132
sI1
g4137
sI2
g4143
sI3
g4152
sI4
g4154
sI5
g4158
sI6
g4162
sI7
g4164
sssg61
g8
sbag2
(g3
g4
NtRp4166
(dp4167
g7
g8
sg9
g8
sg10
g4166
sg11
g8
sg12
(dp4168
I0
(dp4169
sI1
(dp4170
sI2
(dp4171
sI3
(dp4172
sI4
(dp4173
sI5
(dp4174
sI6
(dp4175
sI7
(dp4176
sI8
(dp4177
ssg23
(dp4178
sg25
(dp4179
I0
(dp4180
I8
(dp4181
sI3
(dp4182
sI4
(dp4183
sI6
(dp4184
sI7
(dp4185
ssI1
(dp4186
I8
(dp4187
sI3
(dp4188
sI5
(dp4189
sI6
(dp4190
ssI2
(dp4191
I8
(dp4192
sI4
(dp4193
sI5
(dp4194
sI6
(dp4195
sI7
(dp4196
ssI3
(dp4197
I0
g4182
sI1
g4188
sI5
(dp4198
sI6
(dp4199
sI7
(dp4200
sI8
(dp4201
ssI4
(dp4202
I0
g4183
sI8
(dp4203
sI2
g4193
sI6
(dp4204
sI7
(dp4205
ssI5
(dp4206
I8
(dp4207
sI1
g4189
sI2
g4194
sI3
g4198
sI7
(dp4208
ssI6
(dp4209
I0
g4184
sI1
g4190
sI2
g4195
sI3
g4199
sI4
g4204
sI7
(dp4210
sI8
(dp4211
ssI7
(dp4212
I0
g4185
sI2
g4196
sI3
g4200
sI4
g4205
sI5
g4208
sI6
g4210
sI8
(dp4213
ssI8
(dp4214
I0
g4181
sI1
g4187
sI2
g4192
sI3
g4201
sI4
g4203
sI5
g4207
sI6
g4211
sI7
g4213
sssg61
g8
sbag2
(g3
g4
NtRp4215
(dp4216
g7
g8
sg9
g8
sg10
g4215
sg11
g8
sg12
(dp4217
I0
(dp4218
sI1
(dp4219
sI2
(dp4220
sI3
(dp4221
sI4
(dp4222
sI5
(dp4223
sI6
(dp4224
sI7
(dp4225
sI8
(dp4226
ssg23
(dp4227
sg25
(dp4228
I0
(dp4229
I8
(dp4230
sI3
(dp4231
sI4
(dp4232
sI6
(dp4233
sI7
(dp4234
ssI1
(dp4235
I8
(dp4236
sI3
(dp4237
sI5
(dp4238
sI6
(dp4239
sI7
(dp4240
ssI2
(dp4241
I8
(dp4242
sI4
(dp4243
sI5
(dp4244
sI6
(dp4245
ssI3
(dp4246
I0
g4231
sI1
g4237
sI5
(dp4247
sI6
(dp4248
sI7
(dp4249
sI8
(dp4250
ssI4
(dp4251
I0
g4232
sI8
(dp4252
sI2
g4243
sI6
(dp4253
sI7
(dp4254
ssI5
(dp4255
I8
(dp4256
sI1
g4238
sI2
g4244
sI3
g4247
sI7
(dp4257
ssI6
(dp4258
I0
g4233
sI1
g4239
sI2
g4245
sI3
g4248
sI4
g4253
sI7
(dp4259
sI8
(dp4260
ssI7
(dp4261
I0
g4234
sI1
g4240
sI3
g4249
sI4
g4254
sI5
g4257
sI6
g4259
sI8
(dp4262
ssI8
(dp4263
I0
g4230
sI1
g4236
sI2
g4242
sI3
g4250
sI4
g4252
sI5
g4256
sI6
g4260
sI7
g4262
sssg61
g8
sbag2
(g3
g4
NtRp4264
(dp4265
g7
g8
sg9
g8
sg10
g4264
sg11
g8
sg12
(dp4266
I0
(dp4267
sI1
(dp4268
sI2
(dp4269
sI3
(dp4270
sI4
(dp4271
sI5
(dp4272
sI6
(dp4273
sI7
(dp4274
sI8
(dp4275
ssg23
(dp4276
sg25
(dp4277
I0
(dp4278
I8
(dp4279
sI3
(dp4280
sI4
(dp4281
sI6
(dp4282
sI7
(dp4283
ssI1
(dp4284
I8
(dp4285
sI3
(dp4286
sI5
(dp4287
sI6
(dp4288
sI7
(dp4289
ssI2
(dp4290
I8
(dp4291
sI4
(dp4292
sI5
(dp4293
sI6
(dp4294
sI7
(dp4295
ssI3
(dp4296
I0
g4280
sI1
g4286
sI5
(dp4297
sI6
(dp4298
sI7
(dp4299
sI8
(dp4300
ssI4
(dp4301
I0
g4281
sI8
(dp4302
sI2
g4292
sI6
(dp4303
ssI5
(dp4304
I8
(dp4305
sI1
g4287
sI2
g4293
sI3
g4297
sI7
(dp4306
ssI6
(dp4307
I0
g4282
sI1
g4288
sI2
g4294
sI3
g4298
sI4
g4303
sI7
(dp4308
sI8
(dp4309
ssI7
(dp4310
I0
g4283
sI1
g4289
sI2
g4295
sI3
g4299
sI5
g4306
sI6
g4308
sI8
(dp4311
ssI8
(dp4312
I0
g4279
sI1
g4285
sI2
g4291
sI3
g4300
sI4
g4302
sI5
g4305
sI6
g4309
sI7
g4311
sssg61
g8
sbag2
(g3
g4
NtRp4313
(dp4314
g7
g8
sg9
g8
sg10
g4313
sg11
g8
sg12
(dp4315
I0
(dp4316
sI1
(dp4317
sI2
(dp4318
sI3
(dp4319
sI4
(dp4320
sI5
(dp4321
sI6
(dp4322
sI7
(dp4323
sI8
(dp4324
ssg23
(dp4325
sg25
(dp4326
I0
(dp4327
I8
(dp4328
sI3
(dp4329
sI4
(dp4330
sI6
(dp4331
sI7
(dp4332
ssI1
(dp4333
I8
(dp4334
sI3
(dp4335
sI5
(dp4336
sI6
(dp4337
sI7
(dp4338
ssI2
(dp4339
I8
(dp4340
sI4
(dp4341
sI5
(dp4342
sI6
(dp4343
sI7
(dp4344
ssI3
(dp4345
I0
g4329
sI1
g4335
sI5
(dp4346
sI6
(dp4347
sI7
(dp4348
sI8
(dp4349
ssI4
(dp4350
I0
g4330
sI8
(dp4351
sI2
g4341
sI6
(dp4352
sI7
(dp4353
ssI5
(dp4354
I8
(dp4355
sI1
g4336
sI2
g4342
sI3
g4346
ssI6
(dp4356
I0
g4331
sI1
g4337
sI2
g4343
sI3
g4347
sI4
g4352
sI7
(dp4357
sI8
(dp4358
ssI7
(dp4359
I0
g4332
sI1
g4338
sI2
g4344
sI3
g4348
sI4
g4353
sI6
g4357
sI8
(dp4360
ssI8
(dp4361
I0
g4328
sI1
g4334
sI2
g4340
sI3
g4349
sI4
g4351
sI5
g4355
sI6
g4358
sI7
g4360
sssg61
g8
sbag2
(g3
g4
NtRp4362
(dp4363
g7
g8
sg9
g8
sg10
g4362
sg11
g8
sg12
(dp4364
I0
(dp4365
sI1
(dp4366
sI2
(dp4367
sI3
(dp4368
sI4
(dp4369
sI5
(dp4370
sI6
(dp4371
sI7
(dp4372
sI8
(dp4373
ssg23
(dp4374
sg25
(dp4375
I0
(dp4376
I8
(dp4377
sI3
(dp4378
sI4
(dp4379
sI6
(dp4380
sI7
(dp4381
ssI1
(dp4382
I8
(dp4383
sI3
(dp4384
sI5
(dp4385
sI6
(dp4386
sI7
(dp4387
ssI2
(dp4388
I8
(dp4389
sI4
(dp4390
sI5
(dp4391
sI6
(dp4392
sI7
(dp4393
ssI3
(dp4394
I0
g4378
sI1
g4384
sI5
(dp4395
sI6
(dp4396
sI7
(dp4397
sI8
(dp4398
ssI4
(dp4399
I0
g4379
sI8
(dp4400
sI2
g4390
sI6
(dp4401
sI7
(dp4402
ssI5
(dp4403
I8
(dp4404
sI1
g4385
sI2
g4391
sI3
g4395
sI7
(dp4405
ssI6
(dp4406
I0
g4380
sI1
g4386
sI2
g4392
sI3
g4396
sI4
g4401
sI7
(dp4407
sI8
(dp4408
ssI7
(dp4409
I0
g4381
sI1
g4387
sI2
g4393
sI3
g4397
sI4
g4402
sI5
g4405
sI6
g4407
sI8
(dp4410
ssI8
(dp4411
I0
g4377
sI1
g4383
sI2
g4389
sI3
g4398
sI4
g4400
sI5
g4404
sI6
g4408
sI7
g4410
sssg61
g8
sbag2
(g3
g4
NtRp4412
(dp4413
g7
g8
sg9
g8
sg10
g4412
sg11
g8
sg12
(dp4414
I0
(dp4415
sI1
(dp4416
sI2
(dp4417
sI3
(dp4418
sI4
(dp4419
sI5
(dp4420
sI6
(dp4421
sI7
(dp4422
sI8
(dp4423
ssg23
(dp4424
sg25
(dp4425
I0
(dp4426
I8
(dp4427
sI3
(dp4428
sI4
(dp4429
sI7
(dp4430
ssI1
(dp4431
I3
(dp4432
sI5
(dp4433
sI6
(dp4434
sI7
(dp4435
ssI2
(dp4436
I8
(dp4437
sI4
(dp4438
sI5
(dp4439
sI6
(dp4440
ssI3
(dp4441
I0
g4428
sI1
g4432
sI5
(dp4442
sI6
(dp4443
sI7
(dp4444
sI8
(dp4445
ssI4
(dp4446
I0
g4429
sI2
g4438
sI5
(dp4447
sI6
(dp4448
sI7
(dp4449
sI8
(dp4450
ssI5
(dp4451
I1
g4433
sI2
g4439
sI3
g4442
sI4
g4447
sI6
(dp4452
sI7
(dp4453
sI8
(dp4454
ssI6
(dp4455
I1
g4434
sI2
g4440
sI3
g4443
sI4
g4448
sI5
g4452
sI7
(dp4456
sI8
(dp4457
ssI7
(dp4458
I0
g4430
sI1
g4435
sI3
g4444
sI4
g4449
sI5
g4453
sI6
g4456
sI8
(dp4459
ssI8
(dp4460
I0
g4427
sI2
g4437
sI3
g4445
sI4
g4450
sI5
g4454
sI6
g4457
sI7
g4459
sssg61
g8
sbag2
(g3
g4
NtRp4461
(dp4462
g7
g8
sg9
g8
sg10
g4461
sg11
g8
sg12
(dp4463
I0
(dp4464
sI1
(dp4465
sI2
(dp4466
sI3
(dp4467
sI4
(dp4468
sI5
(dp4469
sI6
(dp4470
sI7
(dp4471
sI8
(dp4472
ssg23
(dp4473
sg25
(dp4474
I0
(dp4475
I8
(dp4476
sI3
(dp4477
sI4
(dp4478
sI6
(dp4479
sI7
(dp4480
ssI1
(dp4481
I8
(dp4482
sI3
(dp4483
sI5
(dp4484
sI6
(dp4485
sI7
(dp4486
ssI2
(dp4487
I8
(dp4488
sI4
(dp4489
sI5
(dp4490
ssI3
(dp4491
I0
g4477
sI1
g4483
sI5
(dp4492
sI6
(dp4493
sI7
(dp4494
sI8
(dp4495
ssI4
(dp4496
I0
g4478
sI2
g4489
sI5
(dp4497
sI6
(dp4498
sI7
(dp4499
sI8
(dp4500
ssI5
(dp4501
I1
g4484
sI2
g4490
sI3
g4492
sI4
g4497
sI7
(dp4502
sI8
(dp4503
ssI6
(dp4504
I0
g4479
sI1
g4485
sI3
g4493
sI4
g4498
sI7
(dp4505
sI8
(dp4506
ssI7
(dp4507
I0
g4480
sI1
g4486
sI3
g4494
sI4
g4499
sI5
g4502
sI6
g4505
sI8
(dp4508
ssI8
(dp4509
I0
g4476
sI1
g4482
sI2
g4488
sI3
g4495
sI4
g4500
sI5
g4503
sI6
g4506
sI7
g4508
sssg61
g8
sbag2
(g3
g4
NtRp4510
(dp4511
g7
g8
sg9
g8
sg10
g4510
sg11
g8
sg12
(dp4512
I0
(dp4513
sI1
(dp4514
sI2
(dp4515
sI3
(dp4516
sI4
(dp4517
sI5
(dp4518
sI6
(dp4519
sI7
(dp4520
sI8
(dp4521
ssg23
(dp4522
sg25
(dp4523
I0
(dp4524
I8
(dp4525
sI3
(dp4526
sI4
(dp4527
sI6
(dp4528
sI7
(dp4529
ssI1
(dp4530
I8
(dp4531
sI3
(dp4532
sI5
(dp4533
sI6
(dp4534
sI7
(dp4535
ssI2
(dp4536
I8
(dp4537
sI4
(dp4538
sI5
(dp4539
sI7
(dp4540
ssI3
(dp4541
I0
g4526
sI1
g4532
sI5
(dp4542
sI6
(dp4543
sI7
(dp4544
sI8
(dp4545
ssI4
(dp4546
I0
g4527
sI2
g4538
sI5
(dp4547
sI6
(dp4548
sI7
(dp4549
sI8
(dp4550
ssI5
(dp4551
I1
g4533
sI2
g4539
sI3
g4542
sI4
g4547
sI6
(dp4552
sI8
(dp4553
ssI6
(dp4554
I0
g4528
sI1
g4534
sI3
g4543
sI4
g4548
sI5
g4552
sI7
(dp4555
sI8
(dp4556
ssI7
(dp4557
I0
g4529
sI1
g4535
sI2
g4540
sI3
g4544
sI4
g4549
sI6
g4555
sI8
(dp4558
ssI8
(dp4559
I0
g4525
sI1
g4531
sI2
g4537
sI3
g4545
sI4
g4550
sI5
g4553
sI6
g4556
sI7
g4558
sssg61
g8
sbag2
(g3
g4
NtRp4560
(dp4561
g7
g8
sg9
g8
sg10
g4560
sg11
g8
sg12
(dp4562
I0
(dp4563
sI1
(dp4564
sI2
(dp4565
sI3
(dp4566
sI4
(dp4567
sI5
(dp4568
sI6
(dp4569
sI7
(dp4570
sI8
(dp4571
ssg23
(dp4572
sg25
(dp4573
I0
(dp4574
I8
(dp4575
sI3
(dp4576
sI4
(dp4577
sI6
(dp4578
sI7
(dp4579
ssI1
(dp4580
I8
(dp4581
sI3
(dp4582
sI5
(dp4583
sI6
(dp4584
sI7
(dp4585
ssI2
(dp4586
I8
(dp4587
sI4
(dp4588
sI5
(dp4589
sI6
(dp4590
sI7
(dp4591
ssI3
(dp4592
I0
g4576
sI1
g4582
sI5
(dp4593
sI6
(dp4594
sI7
(dp4595
sI8
(dp4596
ssI4
(dp4597
I0
g4577
sI8
(dp4598
sI2
g4588
sI5
(dp4599
sI7
(dp4600
ssI5
(dp4601
I1
g4583
sI2
g4589
sI3
g4593
sI4
g4599
sI7
(dp4602
sI8
(dp4603
ssI6
(dp4604
I0
g4578
sI1
g4584
sI2
g4590
sI3
g4594
sI7
(dp4605
sI8
(dp4606
ssI7
(dp4607
I0
g4579
sI1
g4585
sI2
g4591
sI3
g4595
sI4
g4600
sI5
g4602
sI6
g4605
sI8
(dp4608
ssI8
(dp4609
I0
g4575
sI1
g4581
sI2
g4587
sI3
g4596
sI4
g4598
sI5
g4603
sI6
g4606
sI7
g4608
sssg61
g8
sbag2
(g3
g4
NtRp4610
(dp4611
g7
g8
sg9
g8
sg10
g4610
sg11
g8
sg12
(dp4612
I0
(dp4613
sI1
(dp4614
sI2
(dp4615
sI3
(dp4616
sI4
(dp4617
sI5
(dp4618
sI6
(dp4619
sI7
(dp4620
sI8
(dp4621
ssg23
(dp4622
sg25
(dp4623
I0
(dp4624
I8
(dp4625
sI3
(dp4626
sI4
(dp4627
sI6
(dp4628
ssI1
(dp4629
I8
(dp4630
sI3
(dp4631
sI5
(dp4632
sI6
(dp4633
sI7
(dp4634
ssI2
(dp4635
I8
(dp4636
sI4
(dp4637
sI5
(dp4638
sI6
(dp4639
sI7
(dp4640
ssI3
(dp4641
I0
g4626
sI1
g4631
sI5
(dp4642
sI6
(dp4643
sI7
(dp4644
sI8
(dp4645
ssI4
(dp4646
I0
g4627
sI2
g4637
sI5
(dp4647
sI6
(dp4648
sI7
(dp4649
sI8
(dp4650
ssI5
(dp4651
I1
g4632
sI2
g4638
sI3
g4642
sI4
g4647
sI7
(dp4652
sI8
(dp4653
ssI6
(dp4654
I0
g4628
sI1
g4633
sI2
g4639
sI3
g4643
sI4
g4648
sI7
(dp4655
sI8
(dp4656
ssI7
(dp4657
I1
g4634
sI2
g4640
sI3
g4644
sI4
g4649
sI5
g4652
sI6
g4655
sI8
(dp4658
ssI8
(dp4659
I0
g4625
sI1
g4630
sI2
g4636
sI3
g4645
sI4
g4650
sI5
g4653
sI6
g4656
sI7
g4658
sssg61
g8
sbag2
(g3
g4
NtRp4660
(dp4661
g7
g8
sg9
g8
sg10
g4660
sg11
g8
sg12
(dp4662
I0
(dp4663
sI1
(dp4664
sI2
(dp4665
sI3
(dp4666
sI4
(dp4667
sI5
(dp4668
sI6
(dp4669
sI7
(dp4670
sI8
(dp4671
ssg23
(dp4672
sg25
(dp4673
I0
(dp4674
I3
(dp4675
sI4
(dp4676
sI5
(dp4677
sI6
(dp4678
sI7
(dp4679
sI8
(dp4680
ssI1
(dp4681
I8
(dp4682
sI3
(dp4683
sI7
(dp4684
ssI2
(dp4685
I8
(dp4686
sI4
(dp4687
sI5
(dp4688
sI6
(dp4689
sI7
(dp4690
ssI3
(dp4691
I0
g4675
sI1
g4683
sI5
(dp4692
sI8
(dp4693
sI7
(dp4694
ssI4
(dp4695
I0
g4676
sI8
(dp4696
sI2
g4687
sI6
(dp4697
ssI5
(dp4698
I0
g4677
sI2
g4688
sI3
g4692
sI6
(dp4699
sI7
(dp4700
sI8
(dp4701
ssI6
(dp4702
I0
g4678
sI2
g4689
sI4
g4697
sI5
g4699
sI7
(dp4703
sI8
(dp4704
ssI7
(dp4705
I0
g4679
sI1
g4684
sI2
g4690
sI3
g4694
sI5
g4700
sI6
g4703
sI8
(dp4706
ssI8
(dp4707
I0
g4680
sI1
g4682
sI2
g4686
sI3
g4693
sI4
g4696
sI5
g4701
sI6
g4704
sI7
g4706
sssg61
g8
sbag2
(g3
g4
NtRp4708
(dp4709
g7
g8
sg9
g8
sg10
g4708
sg11
g8
sg12
(dp4710
I0
(dp4711
sI1
(dp4712
sI2
(dp4713
sI3
(dp4714
sI4
(dp4715
sI5
(dp4716
sI6
(dp4717
sI7
(dp4718
sI8
(dp4719
ssg23
(dp4720
sg25
(dp4721
I0
(dp4722
I3
(dp4723
sI4
(dp4724
sI5
(dp4725
sI6
(dp4726
sI7
(dp4727
sI8
(dp4728
ssI1
(dp4729
I8
(dp4730
sI3
(dp4731
ssI2
(dp4732
I8
(dp4733
sI4
(dp4734
sI5
(dp4735
sI6
(dp4736
sI7
(dp4737
ssI3
(dp4738
I0
g4723
sI1
g4731
sI5
(dp4739
sI6
(dp4740
sI7
(dp4741
sI8
(dp4742
ssI4
(dp4743
I0
g4724
sI8
(dp4744
sI2
g4734
sI6
(dp4745
sI7
(dp4746
ssI5
(dp4747
I0
g4725
sI2
g4735
sI3
g4739
sI6
(dp4748
sI7
(dp4749
sI8
(dp4750
ssI6
(dp4751
I0
g4726
sI2
g4736
sI3
g4740
sI4
g4745
sI5
g4748
sI8
(dp4752
ssI7
(dp4753
I0
g4727
sI2
g4737
sI3
g4741
sI4
g4746
sI5
g4749
sI8
(dp4754
ssI8
(dp4755
I0
g4728
sI1
g4730
sI2
g4733
sI3
g4742
sI4
g4744
sI5
g4750
sI6
g4752
sI7
g4754
sssg61
g8
sbag2
(g3
g4
NtRp4756
(dp4757
g7
g8
sg9
g8
sg10
g4756
sg11
g8
sg12
(dp4758
I0
(dp4759
sI1
(dp4760
sI2
(dp4761
sI3
(dp4762
sI4
(dp4763
sI5
(dp4764
sI6
(dp4765
sI7
(dp4766
sI8
(dp4767
ssg23
(dp4768
sg25
(dp4769
I0
(dp4770
I3
(dp4771
sI4
(dp4772
sI5
(dp4773
sI6
(dp4774
sI7
(dp4775
sI8
(dp4776
ssI1
(dp4777
I8
(dp4778
sI3
(dp4779
sI7
(dp4780
ssI2
(dp4781
I8
(dp4782
sI4
(dp4783
sI5
(dp4784
sI6
(dp4785
sI7
(dp4786
ssI3
(dp4787
I0
g4771
sI1
g4779
sI5
(dp4788
sI6
(dp4789
sI8
(dp4790
ssI4
(dp4791
I0
g4772
sI8
(dp4792
sI2
g4783
sI6
(dp4793
sI7
(dp4794
ssI5
(dp4795
I0
g4773
sI2
g4784
sI3
g4788
sI6
(dp4796
sI7
(dp4797
sI8
(dp4798
ssI6
(dp4799
I0
g4774
sI2
g4785
sI3
g4789
sI4
g4793
sI5
g4796
sI7
(dp4800
sI8
(dp4801
ssI7
(dp4802
I0
g4775
sI1
g4780
sI2
g4786
sI4
g4794
sI5
g4797
sI6
g4800
sI8
(dp4803
ssI8
(dp4804
I0
g4776
sI1
g4778
sI2
g4782
sI3
g4790
sI4
g4792
sI5
g4798
sI6
g4801
sI7
g4803
sssg61
g8
sbag2
(g3
g4
NtRp4805
(dp4806
g7
g8
sg9
g8
sg10
g4805
sg11
g8
sg12
(dp4807
I0
(dp4808
sI1
(dp4809
sI2
(dp4810
sI3
(dp4811
sI4
(dp4812
sI5
(dp4813
sI6
(dp4814
sI7
(dp4815
sI8
(dp4816
ssg23
(dp4817
sg25
(dp4818
I0
(dp4819
I8
(dp4820
sI3
(dp4821
sI4
(dp4822
sI5
(dp4823
sI6
(dp4824
ssI1
(dp4825
I8
(dp4826
sI3
(dp4827
sI6
(dp4828
sI7
(dp4829
ssI2
(dp4830
I8
(dp4831
sI4
(dp4832
sI5
(dp4833
sI6
(dp4834
sI7
(dp4835
ssI3
(dp4836
I0
g4821
sI1
g4827
sI5
(dp4837
sI6
(dp4838
sI7
(dp4839
sI8
(dp4840
ssI4
(dp4841
I0
g4822
sI8
(dp4842
sI2
g4832
sI7
(dp4843
ssI5
(dp4844
I0
g4823
sI2
g4833
sI3
g4837
sI6
(dp4845
sI7
(dp4846
sI8
(dp4847
ssI6
(dp4848
I0
g4824
sI1
g4828
sI2
g4834
sI3
g4838
sI5
g4845
sI7
(dp4849
sI8
(dp4850
ssI7
(dp4851
I1
g4829
sI2
g4835
sI3
g4839
sI4
g4843
sI5
g4846
sI6
g4849
sI8
(dp4852
ssI8
(dp4853
I0
g4820
sI1
g4826
sI2
g4831
sI3
g4840
sI4
g4842
sI5
g4847
sI6
g4850
sI7
g4852
sssg61
g8
sbag2
(g3
g4
NtRp4854
(dp4855
g7
g8
sg9
g8
sg10
g4854
sg11
g8
sg12
(dp4856
I0
(dp4857
sI1
(dp4858
sI2
(dp4859
sI3
(dp4860
sI4
(dp4861
sI5
(dp4862
sI6
(dp4863
sI7
(dp4864
sI8
(dp4865
ssg23
(dp4866
sg25
(dp4867
I0
(dp4868
I3
(dp4869
sI4
(dp4870
sI5
(dp4871
sI6
(dp4872
sI7
(dp4873
sI8
(dp4874
ssI1
(dp4875
I8
(dp4876
sI3
(dp4877
sI6
(dp4878
sI7
(dp4879
ssI2
(dp4880
I8
(dp4881
sI4
(dp4882
sI5
(dp4883
sI6
(dp4884
sI7
(dp4885
ssI3
(dp4886
I0
g4869
sI1
g4877
sI5
(dp4887
sI6
(dp4888
sI8
(dp4889
ssI4
(dp4890
I0
g4870
sI8
(dp4891
sI2
g4882
sI7
(dp4892
ssI5
(dp4893
I0
g4871
sI2
g4883
sI3
g4887
sI6
(dp4894
sI7
(dp4895
sI8
(dp4896
ssI6
(dp4897
I0
g4872
sI1
g4878
sI2
g4884
sI3
g4888
sI5
g4894
sI7
(dp4898
sI8
(dp4899
ssI7
(dp4900
I0
g4873
sI1
g4879
sI2
g4885
sI4
g4892
sI5
g4895
sI6
g4898
sI8
(dp4901
ssI8
(dp4902
I0
g4874
sI1
g4876
sI2
g4881
sI3
g4889
sI4
g4891
sI5
g4896
sI6
g4899
sI7
g4901
sssg61
g8
sbag2
(g3
g4
NtRp4903
(dp4904
g7
g8
sg9
g8
sg10
g4903
sg11
g8
sg12
(dp4905
I0
(dp4906
sI1
(dp4907
sI2
(dp4908
sI3
(dp4909
sI4
(dp4910
sI5
(dp4911
sI6
(dp4912
sI7
(dp4913
sI8
(dp4914
ssg23
(dp4915
sg25
(dp4916
I0
(dp4917
I3
(dp4918
sI4
(dp4919
sI5
(dp4920
sI6
(dp4921
sI7
(dp4922
sI8
(dp4923
ssI1
(dp4924
I3
(dp4925
sI6
(dp4926
ssI2
(dp4927
I8
(dp4928
sI4
(dp4929
sI5
(dp4930
sI6
(dp4931
sI7
(dp4932
ssI3
(dp4933
I0
g4918
sI1
g4925
sI5
(dp4934
sI6
(dp4935
sI7
(dp4936
sI8
(dp4937
ssI4
(dp4938
I0
g4919
sI8
(dp4939
sI2
g4929
sI6
(dp4940
sI7
(dp4941
ssI5
(dp4942
I0
g4920
sI8
(dp4943
sI2
g4930
sI3
g4934
sI7
(dp4944
ssI6
(dp4945
I0
g4921
sI1
g4926
sI2
g4931
sI3
g4935
sI4
g4940
sI7
(dp4946
sI8
(dp4947
ssI7
(dp4948
I0
g4922
sI2
g4932
sI3
g4936
sI4
g4941
sI5
g4944
sI6
g4946
sI8
(dp4949
ssI8
(dp4950
I0
g4923
sI2
g4928
sI3
g4937
sI4
g4939
sI5
g4943
sI6
g4947
sI7
g4949
sssg61
g8
sbag2
(g3
g4
NtRp4951
(dp4952
g7
g8
sg9
g8
sg10
g4951
sg11
g8
sg12
(dp4953
I0
(dp4954
sI1
(dp4955
sI2
(dp4956
sI3
(dp4957
sI4
(dp4958
sI5
(dp4959
sI6
(dp4960
sI7
(dp4961
sI8
(dp4962
ssg23
(dp4963
sg25
(dp4964
I0
(dp4965
I3
(dp4966
sI4
(dp4967
sI5
(dp4968
sI6
(dp4969
sI7
(dp4970
sI8
(dp4971
ssI1
(dp4972
I8
(dp4973
sI3
(dp4974
sI6
(dp4975
sI7
(dp4976
ssI2
(dp4977
I8
(dp4978
sI4
(dp4979
sI5
(dp4980
sI6
(dp4981
sI7
(dp4982
ssI3
(dp4983
I0
g4966
sI1
g4974
sI5
(dp4984
sI6
(dp4985
sI7
(dp4986
sI8
(dp4987
ssI4
(dp4988
I0
g4967
sI8
(dp4989
sI2
g4979
sI6
(dp4990
sI7
(dp4991
ssI5
(dp4992
I0
g4968
sI8
(dp4993
sI2
g4980
sI3
g4984
ssI6
(dp4994
I0
g4969
sI1
g4975
sI2
g4981
sI3
g4985
sI4
g4990
sI7
(dp4995
sI8
(dp4996
ssI7
(dp4997
I0
g4970
sI1
g4976
sI2
g4982
sI3
g4986
sI4
g4991
sI6
g4995
sI8
(dp4998
ssI8
(dp4999
I0
g4971
sI1
g4973
sI2
g4978
sI3
g4987
sI4
g4989
sI5
g4993
sI6
g4996
sI7
g4998
sssg61
g8
sbag2
(g3
g4
NtRp5000
(dp5001
g7
g8
sg9
g8
sg10
g5000
sg11
g8
sg12
(dp5002
I0
(dp5003
sI1
(dp5004
sI2
(dp5005
sI3
(dp5006
sI4
(dp5007
sI5
(dp5008
sI6
(dp5009
sI7
(dp5010
sI8
(dp5011
ssg23
(dp5012
sg25
(dp5013
I0
(dp5014
I3
(dp5015
sI4
(dp5016
sI5
(dp5017
sI6
(dp5018
sI7
(dp5019
sI8
(dp5020
ssI1
(dp5021
I8
(dp5022
sI3
(dp5023
sI5
(dp5024
sI7
(dp5025
ssI2
(dp5026
I8
(dp5027
sI4
(dp5028
sI6
(dp5029
sI7
(dp5030
ssI3
(dp5031
I0
g5015
sI1
g5023
sI5
(dp5032
sI6
(dp5033
sI7
(dp5034
sI8
(dp5035
ssI4
(dp5036
I0
g5016
sI2
g5028
sI5
(dp5037
sI6
(dp5038
sI7
(dp5039
sI8
(dp5040
ssI5
(dp5041
I0
g5017
sI1
g5024
sI3
g5032
sI4
g5037
sI7
(dp5042
sI8
(dp5043
ssI6
(dp5044
I0
g5018
sI8
(dp5045
sI2
g5029
sI3
g5033
sI4
g5038
ssI7
(dp5046
I0
g5019
sI1
g5025
sI2
g5030
sI3
g5034
sI4
g5039
sI5
g5042
sI8
(dp5047
ssI8
(dp5048
I0
g5020
sI1
g5022
sI2
g5027
sI3
g5035
sI4
g5040
sI5
g5043
sI6
g5045
sI7
g5047
sssg61
g8
sbag2
(g3
g4
NtRp5049
(dp5050
g7
g8
sg9
g8
sg10
g5049
sg11
g8
sg12
(dp5051
I0
(dp5052
sI1
(dp5053
sI2
(dp5054
sI3
(dp5055
sI4
(dp5056
sI5
(dp5057
sI6
(dp5058
sI7
(dp5059
sI8
(dp5060
ssg23
(dp5061
sg25
(dp5062
I0
(dp5063
I3
(dp5064
sI4
(dp5065
sI5
(dp5066
sI6
(dp5067
sI7
(dp5068
sI8
(dp5069
ssI1
(dp5070
I3
(dp5071
sI5
(dp5072
sI6
(dp5073
sI7
(dp5074
ssI2
(dp5075
I8
(dp5076
sI4
(dp5077
sI7
(dp5078
ssI3
(dp5079
I0
g5064
sI1
g5071
sI5
(dp5080
sI6
(dp5081
sI7
(dp5082
sI8
(dp5083
ssI4
(dp5084
I0
g5065
sI2
g5077
sI5
(dp5085
sI6
(dp5086
sI7
(dp5087
sI8
(dp5088
ssI5
(dp5089
I0
g5066
sI1
g5072
sI3
g5080
sI4
g5085
sI6
(dp5090
sI7
(dp5091
sI8
(dp5092
ssI6
(dp5093
I0
g5067
sI1
g5073
sI3
g5081
sI4
g5086
sI5
g5090
sI8
(dp5094
ssI7
(dp5095
I0
g5068
sI1
g5074
sI2
g5078
sI3
g5082
sI4
g5087
sI5
g5091
sI8
(dp5096
ssI8
(dp5097
I0
g5069
sI2
g5076
sI3
g5083
sI4
g5088
sI5
g5092
sI6
g5094
sI7
g5096
sssg61
g8
sbag2
(g3
g4
NtRp5098
(dp5099
g7
g8
sg9
g8
sg10
g5098
sg11
g8
sg12
(dp5100
I0
(dp5101
sI1
(dp5102
sI2
(dp5103
sI3
(dp5104
sI4
(dp5105
sI5
(dp5106
sI6
(dp5107
sI7
(dp5108
sI8
(dp5109
ssg23
(dp5110
sg25
(dp5111
I0
(dp5112
I3
(dp5113
sI4
(dp5114
sI5
(dp5115
sI6
(dp5116
sI7
(dp5117
sI8
(dp5118
ssI1
(dp5119
I8
(dp5120
sI3
(dp5121
sI5
(dp5122
sI6
(dp5123
ssI2
(dp5124
I8
(dp5125
sI4
(dp5126
sI6
(dp5127
sI7
(dp5128
ssI3
(dp5129
I0
g5113
sI1
g5121
sI5
(dp5130
sI6
(dp5131
sI7
(dp5132
sI8
(dp5133
ssI4
(dp5134
I0
g5114
sI2
g5126
sI5
(dp5135
sI6
(dp5136
sI7
(dp5137
sI8
(dp5138
ssI5
(dp5139
I0
g5115
sI1
g5122
sI3
g5130
sI4
g5135
sI7
(dp5140
sI8
(dp5141
ssI6
(dp5142
I0
g5116
sI1
g5123
sI2
g5127
sI3
g5131
sI4
g5136
sI7
(dp5143
sI8
(dp5144
ssI7
(dp5145
I0
g5117
sI2
g5128
sI3
g5132
sI4
g5137
sI5
g5140
sI6
g5143
sI8
(dp5146
ssI8
(dp5147
I0
g5118
sI1
g5120
sI2
g5125
sI3
g5133
sI4
g5138
sI5
g5141
sI6
g5144
sI7
g5146
sssg61
g8
sbag2
(g3
g4
NtRp5148
(dp5149
g7
g8
sg9
g8
sg10
g5148
sg11
g8
sg12
(dp5150
I0
(dp5151
sI1
(dp5152
sI2
(dp5153
sI3
(dp5154
sI4
(dp5155
sI5
(dp5156
sI6
(dp5157
sI7
(dp5158
sI8
(dp5159
ssg23
(dp5160
sg25
(dp5161
I0
(dp5162
I3
(dp5163
sI4
(dp5164
sI5
(dp5165
sI6
(dp5166
sI7
(dp5167
sI8
(dp5168
ssI1
(dp5169
I8
(dp5170
sI3
(dp5171
sI5
(dp5172
sI6
(dp5173
sI7
(dp5174
ssI2
(dp5175
I8
(dp5176
sI4
(dp5177
sI6
(dp5178
sI7
(dp5179
ssI3
(dp5180
I0
g5163
sI1
g5171
sI5
(dp5181
sI6
(dp5182
sI8
(dp5183
ssI4
(dp5184
I0
g5164
sI2
g5177
sI5
(dp5185
sI6
(dp5186
sI7
(dp5187
sI8
(dp5188
ssI5
(dp5189
I0
g5165
sI1
g5172
sI3
g5181
sI4
g5185
sI7
(dp5190
sI8
(dp5191
ssI6
(dp5192
I0
g5166
sI1
g5173
sI2
g5178
sI3
g5182
sI4
g5186
sI7
(dp5193
sI8
(dp5194
ssI7
(dp5195
I0
g5167
sI1
g5174
sI2
g5179
sI4
g5187
sI5
g5190
sI6
g5193
sI8
(dp5196
ssI8
(dp5197
I0
g5168
sI1
g5170
sI2
g5176
sI3
g5183
sI4
g5188
sI5
g5191
sI6
g5194
sI7
g5196
sssg61
g8
sbag2
(g3
g4
NtRp5198
(dp5199
g7
g8
sg9
g8
sg10
g5198
sg11
g8
sg12
(dp5200
I0
(dp5201
sI1
(dp5202
sI2
(dp5203
sI3
(dp5204
sI4
(dp5205
sI5
(dp5206
sI6
(dp5207
sI7
(dp5208
sI8
(dp5209
ssg23
(dp5210
sg25
(dp5211
I0
(dp5212
I3
(dp5213
sI4
(dp5214
sI5
(dp5215
sI6
(dp5216
sI7
(dp5217
sI8
(dp5218
ssI1
(dp5219
I8
(dp5220
sI3
(dp5221
sI5
(dp5222
sI6
(dp5223
sI7
(dp5224
ssI2
(dp5225
I8
(dp5226
sI4
(dp5227
sI6
(dp5228
sI7
(dp5229
ssI3
(dp5230
I0
g5213
sI1
g5221
sI5
(dp5231
sI6
(dp5232
sI7
(dp5233
sI8
(dp5234
ssI4
(dp5235
I0
g5214
sI8
(dp5236
sI2
g5227
sI5
(dp5237
sI6
(dp5238
ssI5
(dp5239
I0
g5215
sI1
g5222
sI3
g5231
sI4
g5237
sI7
(dp5240
sI8
(dp5241
ssI6
(dp5242
I0
g5216
sI1
g5223
sI2
g5228
sI3
g5232
sI4
g5238
sI7
(dp5243
sI8
(dp5244
ssI7
(dp5245
I0
g5217
sI1
g5224
sI2
g5229
sI3
g5233
sI5
g5240
sI6
g5243
sI8
(dp5246
ssI8
(dp5247
I0
g5218
sI1
g5220
sI2
g5226
sI3
g5234
sI4
g5236
sI5
g5241
sI6
g5244
sI7
g5246
sssg61
g8
sbag2
(g3
g4
NtRp5248
(dp5249
g7
g8
sg9
g8
sg10
g5248
sg11
g8
sg12
(dp5250
I0
(dp5251
sI1
(dp5252
sI2
(dp5253
sI3
(dp5254
sI4
(dp5255
sI5
(dp5256
sI6
(dp5257
sI7
(dp5258
sI8
(dp5259
ssg23
(dp5260
sg25
(dp5261
I0
(dp5262
I3
(dp5263
sI4
(dp5264
sI5
(dp5265
sI6
(dp5266
sI7
(dp5267
sI8
(dp5268
ssI1
(dp5269
I8
(dp5270
sI3
(dp5271
sI5
(dp5272
sI6
(dp5273
sI7
(dp5274
ssI2
(dp5275
I8
(dp5276
sI4
(dp5277
sI6
(dp5278
sI7
(dp5279
ssI3
(dp5280
I0
g5263
sI1
g5271
sI5
(dp5281
sI6
(dp5282
sI7
(dp5283
sI8
(dp5284
ssI4
(dp5285
I0
g5264
sI2
g5277
sI5
(dp5286
sI6
(dp5287
sI7
(dp5288
sI8
(dp5289
ssI5
(dp5290
I0
g5265
sI1
g5272
sI3
g5281
sI4
g5286
sI8
(dp5291
ssI6
(dp5292
I0
g5266
sI1
g5273
sI2
g5278
sI3
g5282
sI4
g5287
sI7
(dp5293
sI8
(dp5294
ssI7
(dp5295
I0
g5267
sI1
g5274
sI2
g5279
sI3
g5283
sI4
g5288
sI6
g5293
sI8
(dp5296
ssI8
(dp5297
I0
g5268
sI1
g5270
sI2
g5276
sI3
g5284
sI4
g5289
sI5
g5291
sI6
g5294
sI7
g5296
sssg61
g8
sbag2
(g3
g4
NtRp5298
(dp5299
g7
g8
sg9
g8
sg10
g5298
sg11
g8
sg12
(dp5300
I0
(dp5301
sI1
(dp5302
sI2
(dp5303
sI3
(dp5304
sI4
(dp5305
sI5
(dp5306
sI6
(dp5307
sI7
(dp5308
sI8
(dp5309
ssg23
(dp5310
sg25
(dp5311
I0
(dp5312
I3
(dp5313
sI4
(dp5314
sI5
(dp5315
sI6
(dp5316
sI7
(dp5317
sI8
(dp5318
ssI1
(dp5319
I3
(dp5320
sI5
(dp5321
sI6
(dp5322
sI7
(dp5323
ssI2
(dp5324
I8
(dp5325
sI4
(dp5326
sI6
(dp5327
sI7
(dp5328
ssI3
(dp5329
I0
g5313
sI1
g5320
sI5
(dp5330
sI6
(dp5331
sI7
(dp5332
sI8
(dp5333
ssI4
(dp5334
I0
g5314
sI2
g5326
sI5
(dp5335
sI6
(dp5336
sI7
(dp5337
sI8
(dp5338
ssI5
(dp5339
I0
g5315
sI1
g5321
sI3
g5330
sI4
g5335
sI6
(dp5340
sI7
(dp5341
sI8
(dp5342
ssI6
(dp5343
I0
g5316
sI1
g5322
sI2
g5327
sI3
g5331
sI4
g5336
sI5
g5340
sI8
(dp5344
ssI7
(dp5345
I0
g5317
sI1
g5323
sI2
g5328
sI3
g5332
sI4
g5337
sI5
g5341
sI8
(dp5346
ssI8
(dp5347
I0
g5318
sI2
g5325
sI3
g5333
sI4
g5338
sI5
g5342
sI6
g5344
sI7
g5346
sssg61
g8
sbag2
(g3
g4
NtRp5348
(dp5349
g7
g8
sg9
g8
sg10
g5348
sg11
g8
sg12
(dp5350
I0
(dp5351
sI1
(dp5352
sI2
(dp5353
sI3
(dp5354
sI4
(dp5355
sI5
(dp5356
sI6
(dp5357
sI7
(dp5358
sI8
(dp5359
ssg23
(dp5360
sg25
(dp5361
I0
(dp5362
I3
(dp5363
sI4
(dp5364
sI5
(dp5365
sI6
(dp5366
sI7
(dp5367
sI8
(dp5368
ssI1
(dp5369
I8
(dp5370
sI3
(dp5371
sI5
(dp5372
sI6
(dp5373
sI7
(dp5374
ssI2
(dp5375
I4
(dp5376
sI6
(dp5377
sI7
(dp5378
ssI3
(dp5379
I0
g5363
sI1
g5371
sI5
(dp5380
sI6
(dp5381
sI7
(dp5382
sI8
(dp5383
ssI4
(dp5384
I0
g5364
sI2
g5376
sI5
(dp5385
sI6
(dp5386
sI7
(dp5387
sI8
(dp5388
ssI5
(dp5389
I0
g5365
sI1
g5372
sI3
g5380
sI4
g5385
sI6
(dp5390
sI7
(dp5391
sI8
(dp5392
ssI6
(dp5393
I0
g5366
sI1
g5373
sI2
g5377
sI3
g5381
sI4
g5386
sI5
g5390
sI8
(dp5394
ssI7
(dp5395
I0
g5367
sI1
g5374
sI2
g5378
sI3
g5382
sI4
g5387
sI5
g5391
sI8
(dp5396
ssI8
(dp5397
I0
g5368
sI1
g5370
sI3
g5383
sI4
g5388
sI5
g5392
sI6
g5394
sI7
g5396
sssg61
g8
sbag2
(g3
g4
NtRp5398
(dp5399
g7
g8
sg9
g8
sg10
g5398
sg11
g8
sg12
(dp5400
I0
(dp5401
sI1
(dp5402
sI2
(dp5403
sI3
(dp5404
sI4
(dp5405
sI5
(dp5406
sI6
(dp5407
sI7
(dp5408
sI8
(dp5409
ssg23
(dp5410
sg25
(dp5411
I0
(dp5412
I3
(dp5413
sI4
(dp5414
sI5
(dp5415
sI6
(dp5416
sI7
(dp5417
sI8
(dp5418
ssI1
(dp5419
I8
(dp5420
sI3
(dp5421
sI5
(dp5422
sI6
(dp5423
sI7
(dp5424
ssI2
(dp5425
I8
(dp5426
sI4
(dp5427
sI5
(dp5428
sI7
(dp5429
ssI3
(dp5430
I0
g5413
sI1
g5421
sI6
(dp5431
sI8
(dp5432
sI7
(dp5433
ssI4
(dp5434
I0
g5414
sI8
(dp5435
sI2
g5427
sI6
(dp5436
sI7
(dp5437
ssI5
(dp5438
I0
g5415
sI1
g5422
sI2
g5428
sI8
(dp5439
sI7
(dp5440
ssI6
(dp5441
I0
g5416
sI1
g5423
sI3
g5431
sI4
g5436
sI7
(dp5442
sI8
(dp5443
ssI7
(dp5444
I0
g5417
sI1
g5424
sI2
g5429
sI3
g5433
sI4
g5437
sI5
g5440
sI6
g5442
sI8
(dp5445
ssI8
(dp5446
I0
g5418
sI1
g5420
sI2
g5426
sI3
g5432
sI4
g5435
sI5
g5439
sI6
g5443
sI7
g5445
sssg61
g8
sbag2
(g3
g4
NtRp5447
(dp5448
g7
g8
sg9
g8
sg10
g5447
sg11
g8
sg12
(dp5449
I0
(dp5450
sI1
(dp5451
sI2
(dp5452
sI3
(dp5453
sI4
(dp5454
sI5
(dp5455
sI6
(dp5456
sI7
(dp5457
sI8
(dp5458
ssg23
(dp5459
sg25
(dp5460
I0
(dp5461
I3
(dp5462
sI4
(dp5463
sI5
(dp5464
sI6
(dp5465
sI7
(dp5466
sI8
(dp5467
ssI1
(dp5468
I8
(dp5469
sI3
(dp5470
sI5
(dp5471
sI6
(dp5472
ssI2
(dp5473
I8
(dp5474
sI4
(dp5475
sI5
(dp5476
sI6
(dp5477
sI7
(dp5478
ssI3
(dp5479
I0
g5462
sI1
g5470
sI6
(dp5480
sI8
(dp5481
sI7
(dp5482
ssI4
(dp5483
I0
g5463
sI8
(dp5484
sI2
g5475
sI7
(dp5485
ssI5
(dp5486
I0
g5464
sI1
g5471
sI2
g5476
sI6
(dp5487
sI7
(dp5488
sI8
(dp5489
ssI6
(dp5490
I0
g5465
sI1
g5472
sI2
g5477
sI3
g5480
sI5
g5487
sI7
(dp5491
sI8
(dp5492
ssI7
(dp5493
I0
g5466
sI2
g5478
sI3
g5482
sI4
g5485
sI5
g5488
sI6
g5491
sI8
(dp5494
ssI8
(dp5495
I0
g5467
sI1
g5469
sI2
g5474
sI3
g5481
sI4
g5484
sI5
g5489
sI6
g5492
sI7
g5494
sssg61
g8
sbag2
(g3
g4
NtRp5496
(dp5497
g7
g8
sg9
g8
sg10
g5496
sg11
g8
sg12
(dp5498
I0
(dp5499
sI1
(dp5500
sI2
(dp5501
sI3
(dp5502
sI4
(dp5503
sI5
(dp5504
sI6
(dp5505
sI7
(dp5506
sI8
(dp5507
ssg23
(dp5508
sg25
(dp5509
I0
(dp5510
I3
(dp5511
sI4
(dp5512
sI5
(dp5513
sI6
(dp5514
sI7
(dp5515
sI8
(dp5516
ssI1
(dp5517
I8
(dp5518
sI3
(dp5519
sI5
(dp5520
sI6
(dp5521
sI7
(dp5522
ssI2
(dp5523
I8
(dp5524
sI4
(dp5525
sI5
(dp5526
sI6
(dp5527
sI7
(dp5528
ssI3
(dp5529
I0
g5511
sI1
g5519
sI6
(dp5530
sI8
(dp5531
ssI4
(dp5532
I0
g5512
sI8
(dp5533
sI2
g5525
sI7
(dp5534
ssI5
(dp5535
I0
g5513
sI1
g5520
sI2
g5526
sI6
(dp5536
sI7
(dp5537
sI8
(dp5538
ssI6
(dp5539
I0
g5514
sI1
g5521
sI2
g5527
sI3
g5530
sI5
g5536
sI7
(dp5540
sI8
(dp5541
ssI7
(dp5542
I0
g5515
sI1
g5522
sI2
g5528
sI4
g5534
sI5
g5537
sI6
g5540
sI8
(dp5543
ssI8
(dp5544
I0
g5516
sI1
g5518
sI2
g5524
sI3
g5531
sI4
g5533
sI5
g5538
sI6
g5541
sI7
g5543
sssg61
g8
sbag2
(g3
g4
NtRp5545
(dp5546
g7
g8
sg9
g8
sg10
g5545
sg11
g8
sg12
(dp5547
I0
(dp5548
sI1
(dp5549
sI2
(dp5550
sI3
(dp5551
sI4
(dp5552
sI5
(dp5553
sI6
(dp5554
sI7
(dp5555
sI8
(dp5556
ssg23
(dp5557
sg25
(dp5558
I0
(dp5559
I8
(dp5560
sI3
(dp5561
sI4
(dp5562
sI5
(dp5563
ssI1
(dp5564
I3
(dp5565
sI5
(dp5566
sI6
(dp5567
sI7
(dp5568
ssI2
(dp5569
I8
(dp5570
sI4
(dp5571
sI5
(dp5572
sI6
(dp5573
sI7
(dp5574
ssI3
(dp5575
I0
g5561
sI1
g5565
sI5
(dp5576
sI6
(dp5577
sI7
(dp5578
sI8
(dp5579
ssI4
(dp5580
I0
g5562
sI8
(dp5581
sI2
g5571
sI6
(dp5582
sI7
(dp5583
ssI5
(dp5584
I0
g5563
sI1
g5566
sI2
g5572
sI3
g5576
sI6
(dp5585
sI7
(dp5586
sI8
(dp5587
ssI6
(dp5588
I1
g5567
sI2
g5573
sI3
g5577
sI4
g5582
sI5
g5585
sI7
(dp5589
sI8
(dp5590
ssI7
(dp5591
I1
g5568
sI2
g5574
sI3
g5578
sI4
g5583
sI5
g5586
sI6
g5589
sI8
(dp5592
ssI8
(dp5593
I0
g5560
sI2
g5570
sI3
g5579
sI4
g5581
sI5
g5587
sI6
g5590
sI7
g5592
sssg61
g8
sbag2
(g3
g4
NtRp5594
(dp5595
g7
g8
sg9
g8
sg10
g5594
sg11
g8
sg12
(dp5596
I0
(dp5597
sI1
(dp5598
sI2
(dp5599
sI3
(dp5600
sI4
(dp5601
sI5
(dp5602
sI6
(dp5603
sI7
(dp5604
sI8
(dp5605
ssg23
(dp5606
sg25
(dp5607
I0
(dp5608
I8
(dp5609
sI3
(dp5610
sI4
(dp5611
sI5
(dp5612
ssI1
(dp5613
I8
(dp5614
sI3
(dp5615
sI5
(dp5616
sI6
(dp5617
sI7
(dp5618
ssI2
(dp5619
I8
(dp5620
sI4
(dp5621
sI5
(dp5622
sI6
(dp5623
sI7
(dp5624
ssI3
(dp5625
I0
g5610
sI1
g5615
sI5
(dp5626
sI6
(dp5627
sI7
(dp5628
sI8
(dp5629
ssI4
(dp5630
I0
g5611
sI8
(dp5631
sI2
g5621
sI6
(dp5632
sI7
(dp5633
ssI5
(dp5634
I0
g5612
sI1
g5616
sI2
g5622
sI3
g5626
sI6
(dp5635
sI7
(dp5636
sI8
(dp5637
ssI6
(dp5638
I1
g5617
sI2
g5623
sI3
g5627
sI4
g5632
sI5
g5635
sI7
(dp5639
sI8
(dp5640
ssI7
(dp5641
I1
g5618
sI2
g5624
sI3
g5628
sI4
g5633
sI5
g5636
sI6
g5639
sI8
(dp5642
ssI8
(dp5643
I0
g5609
sI1
g5614
sI2
g5620
sI3
g5629
sI4
g5631
sI5
g5637
sI6
g5640
sI7
g5642
sssg61
g8
sbag2
(g3
g4
NtRp5644
(dp5645
g7
g8
sg9
g8
sg10
g5644
sg11
g8
sg12
(dp5646
I0
(dp5647
sI1
(dp5648
sI2
(dp5649
sI3
(dp5650
sI4
(dp5651
sI5
(dp5652
sI6
(dp5653
sI7
(dp5654
sI8
(dp5655
ssg23
(dp5656
sg25
(dp5657
I0
(dp5658
I8
(dp5659
sI3
(dp5660
sI4
(dp5661
sI5
(dp5662
sI7
(dp5663
ssI1
(dp5664
I3
(dp5665
sI5
(dp5666
sI6
(dp5667
ssI2
(dp5668
I8
(dp5669
sI4
(dp5670
sI5
(dp5671
sI6
(dp5672
sI7
(dp5673
ssI3
(dp5674
I0
g5660
sI1
g5665
sI5
(dp5675
sI6
(dp5676
sI7
(dp5677
sI8
(dp5678
ssI4
(dp5679
I0
g5661
sI8
(dp5680
sI2
g5670
sI6
(dp5681
sI7
(dp5682
ssI5
(dp5683
I0
g5662
sI1
g5666
sI2
g5671
sI3
g5675
sI6
(dp5684
sI7
(dp5685
sI8
(dp5686
ssI6
(dp5687
I1
g5667
sI2
g5672
sI3
g5676
sI4
g5681
sI5
g5684
sI7
(dp5688
sI8
(dp5689
ssI7
(dp5690
I0
g5663
sI2
g5673
sI3
g5677
sI4
g5682
sI5
g5685
sI6
g5688
sI8
(dp5691
ssI8
(dp5692
I0
g5659
sI2
g5669
sI3
g5678
sI4
g5680
sI5
g5686
sI6
g5689
sI7
g5691
sssg61
g8
sbag2
(g3
g4
NtRp5693
(dp5694
g7
g8
sg9
g8
sg10
g5693
sg11
g8
sg12
(dp5695
I0
(dp5696
sI1
(dp5697
sI2
(dp5698
sI3
(dp5699
sI4
(dp5700
sI5
(dp5701
sI6
(dp5702
sI7
(dp5703
sI8
(dp5704
ssg23
(dp5705
sg25
(dp5706
I0
(dp5707
I8
(dp5708
sI3
(dp5709
sI4
(dp5710
sI5
(dp5711
sI7
(dp5712
ssI1
(dp5713
I8
(dp5714
sI3
(dp5715
sI5
(dp5716
sI6
(dp5717
ssI2
(dp5718
I8
(dp5719
sI4
(dp5720
sI5
(dp5721
sI6
(dp5722
sI7
(dp5723
ssI3
(dp5724
I0
g5709
sI1
g5715
sI5
(dp5725
sI6
(dp5726
sI7
(dp5727
sI8
(dp5728
ssI4
(dp5729
I0
g5710
sI8
(dp5730
sI2
g5720
sI6
(dp5731
sI7
(dp5732
ssI5
(dp5733
I0
g5711
sI1
g5716
sI2
g5721
sI3
g5725
sI6
(dp5734
sI7
(dp5735
sI8
(dp5736
ssI6
(dp5737
I1
g5717
sI2
g5722
sI3
g5726
sI4
g5731
sI5
g5734
sI7
(dp5738
sI8
(dp5739
ssI7
(dp5740
I0
g5712
sI2
g5723
sI3
g5727
sI4
g5732
sI5
g5735
sI6
g5738
sI8
(dp5741
ssI8
(dp5742
I0
g5708
sI1
g5714
sI2
g5719
sI3
g5728
sI4
g5730
sI5
g5736
sI6
g5739
sI7
g5741
sssg61
g8
sbag2
(g3
g4
NtRp5743
(dp5744
g7
g8
sg9
g8
sg10
g5743
sg11
g8
sg12
(dp5745
I0
(dp5746
sI1
(dp5747
sI2
(dp5748
sI3
(dp5749
sI4
(dp5750
sI5
(dp5751
sI6
(dp5752
sI7
(dp5753
sI8
(dp5754
ssg23
(dp5755
sg25
(dp5756
I0
(dp5757
I8
(dp5758
sI3
(dp5759
sI4
(dp5760
sI5
(dp5761
sI7
(dp5762
ssI1
(dp5763
I8
(dp5764
sI3
(dp5765
sI5
(dp5766
sI6
(dp5767
sI7
(dp5768
ssI2
(dp5769
I8
(dp5770
sI4
(dp5771
sI5
(dp5772
sI6
(dp5773
ssI3
(dp5774
I0
g5759
sI1
g5765
sI5
(dp5775
sI6
(dp5776
sI7
(dp5777
sI8
(dp5778
ssI4
(dp5779
I0
g5760
sI8
(dp5780
sI2
g5771
sI6
(dp5781
sI7
(dp5782
ssI5
(dp5783
I0
g5761
sI1
g5766
sI2
g5772
sI3
g5775
sI6
(dp5784
sI7
(dp5785
sI8
(dp5786
ssI6
(dp5787
I1
g5767
sI2
g5773
sI3
g5776
sI4
g5781
sI5
g5784
sI7
(dp5788
sI8
(dp5789
ssI7
(dp5790
I0
g5762
sI1
g5768
sI3
g5777
sI4
g5782
sI5
g5785
sI6
g5788
sI8
(dp5791
ssI8
(dp5792
I0
g5758
sI1
g5764
sI2
g5770
sI3
g5778
sI4
g5780
sI5
g5786
sI6
g5789
sI7
g5791
sssg61
g8
sbag2
(g3
g4
NtRp5793
(dp5794
g7
g8
sg9
g8
sg10
g5793
sg11
g8
sg12
(dp5795
I0
(dp5796
sI1
(dp5797
sI2
(dp5798
sI3
(dp5799
sI4
(dp5800
sI5
(dp5801
sI6
(dp5802
sI7
(dp5803
sI8
(dp5804
ssg23
(dp5805
sg25
(dp5806
I0
(dp5807
I3
(dp5808
sI4
(dp5809
sI5
(dp5810
sI6
(dp5811
sI7
(dp5812
sI8
(dp5813
ssI1
(dp5814
I8
(dp5815
sI3
(dp5816
sI5
(dp5817
ssI2
(dp5818
I8
(dp5819
sI4
(dp5820
sI5
(dp5821
sI6
(dp5822
sI7
(dp5823
ssI3
(dp5824
I0
g5808
sI1
g5816
sI5
(dp5825
sI6
(dp5826
sI7
(dp5827
sI8
(dp5828
ssI4
(dp5829
I0
g5809
sI8
(dp5830
sI2
g5820
sI6
(dp5831
sI7
(dp5832
ssI5
(dp5833
I0
g5810
sI1
g5817
sI2
g5821
sI3
g5825
sI7
(dp5834
sI8
(dp5835
ssI6
(dp5836
I0
g5811
sI2
g5822
sI3
g5826
sI4
g5831
sI7
(dp5837
sI8
(dp5838
ssI7
(dp5839
I0
g5812
sI2
g5823
sI3
g5827
sI4
g5832
sI5
g5834
sI6
g5837
sI8
(dp5840
ssI8
(dp5841
I0
g5813
sI1
g5815
sI2
g5819
sI3
g5828
sI4
g5830
sI5
g5835
sI6
g5838
sI7
g5840
sssg61
g8
sbag2
(g3
g4
NtRp5842
(dp5843
g7
g8
sg9
g8
sg10
g5842
sg11
g8
sg12
(dp5844
I0
(dp5845
sI1
(dp5846
sI2
(dp5847
sI3
(dp5848
sI4
(dp5849
sI5
(dp5850
sI6
(dp5851
sI7
(dp5852
sI8
(dp5853
ssg23
(dp5854
sg25
(dp5855
I0
(dp5856
I3
(dp5857
sI4
(dp5858
sI5
(dp5859
sI6
(dp5860
sI7
(dp5861
sI8
(dp5862
ssI1
(dp5863
I8
(dp5864
sI3
(dp5865
sI5
(dp5866
sI7
(dp5867
ssI2
(dp5868
I8
(dp5869
sI4
(dp5870
sI5
(dp5871
sI6
(dp5872
ssI3
(dp5873
I0
g5857
sI1
g5865
sI5
(dp5874
sI6
(dp5875
sI7
(dp5876
sI8
(dp5877
ssI4
(dp5878
I0
g5858
sI8
(dp5879
sI2
g5870
sI6
(dp5880
sI7
(dp5881
ssI5
(dp5882
I0
g5859
sI1
g5866
sI2
g5871
sI3
g5874
sI7
(dp5883
sI8
(dp5884
ssI6
(dp5885
I0
g5860
sI2
g5872
sI3
g5875
sI4
g5880
sI7
(dp5886
sI8
(dp5887
ssI7
(dp5888
I0
g5861
sI1
g5867
sI3
g5876
sI4
g5881
sI5
g5883
sI6
g5886
sI8
(dp5889
ssI8
(dp5890
I0
g5862
sI1
g5864
sI2
g5869
sI3
g5877
sI4
g5879
sI5
g5884
sI6
g5887
sI7
g5889
sssg61
g8
sbag2
(g3
g4
NtRp5891
(dp5892
g7
g8
sg9
g8
sg10
g5891
sg11
g8
sg12
(dp5893
I0
(dp5894
sI1
(dp5895
sI2
(dp5896
sI3
(dp5897
sI4
(dp5898
sI5
(dp5899
sI6
(dp5900
sI7
(dp5901
sI8
(dp5902
ssg23
(dp5903
sg25
(dp5904
I0
(dp5905
I3
(dp5906
sI4
(dp5907
sI5
(dp5908
sI6
(dp5909
sI7
(dp5910
sI8
(dp5911
ssI1
(dp5912
I8
(dp5913
sI3
(dp5914
sI5
(dp5915
sI7
(dp5916
ssI2
(dp5917
I8
(dp5918
sI4
(dp5919
sI5
(dp5920
sI6
(dp5921
sI7
(dp5922
ssI3
(dp5923
I0
g5906
sI1
g5914
sI5
(dp5924
sI6
(dp5925
sI7
(dp5926
sI8
(dp5927
ssI4
(dp5928
I0
g5907
sI8
(dp5929
sI2
g5919
sI6
(dp5930
ssI5
(dp5931
I0
g5908
sI1
g5915
sI2
g5920
sI3
g5924
sI7
(dp5932
sI8
(dp5933
ssI6
(dp5934
I0
g5909
sI2
g5921
sI3
g5925
sI4
g5930
sI7
(dp5935
sI8
(dp5936
ssI7
(dp5937
I0
g5910
sI1
g5916
sI2
g5922
sI3
g5926
sI5
g5932
sI6
g5935
sI8
(dp5938
ssI8
(dp5939
I0
g5911
sI1
g5913
sI2
g5918
sI3
g5927
sI4
g5929
sI5
g5933
sI6
g5936
sI7
g5938
sssg61
g8
sbag2
(g3
g4
NtRp5940
(dp5941
g7
g8
sg9
g8
sg10
g5940
sg11
g8
sg12
(dp5942
I0
(dp5943
sI1
(dp5944
sI2
(dp5945
sI3
(dp5946
sI4
(dp5947
sI5
(dp5948
sI6
(dp5949
sI7
(dp5950
sI8
(dp5951
ssg23
(dp5952
sg25
(dp5953
I0
(dp5954
I3
(dp5955
sI4
(dp5956
sI5
(dp5957
sI6
(dp5958
sI7
(dp5959
sI8
(dp5960
ssI1
(dp5961
I8
(dp5962
sI3
(dp5963
sI5
(dp5964
sI7
(dp5965
ssI2
(dp5966
I8
(dp5967
sI4
(dp5968
sI5
(dp5969
sI6
(dp5970
sI7
(dp5971
ssI3
(dp5972
I0
g5955
sI1
g5963
sI5
(dp5973
sI6
(dp5974
sI7
(dp5975
sI8
(dp5976
ssI4
(dp5977
I0
g5956
sI8
(dp5978
sI2
g5968
sI6
(dp5979
sI7
(dp5980
ssI5
(dp5981
I0
g5957
sI1
g5964
sI2
g5969
sI3
g5973
sI7
(dp5982
sI8
(dp5983
ssI6
(dp5984
I0
g5958
sI2
g5970
sI3
g5974
sI4
g5979
sI7
(dp5985
sI8
(dp5986
ssI7
(dp5987
I0
g5959
sI1
g5965
sI2
g5971
sI3
g5975
sI4
g5980
sI5
g5982
sI6
g5985
sI8
(dp5988
ssI8
(dp5989
I0
g5960
sI1
g5962
sI2
g5967
sI3
g5976
sI4
g5978
sI5
g5983
sI6
g5986
sI7
g5988
sssg61
g8
sbag2
(g3
g4
NtRp5990
(dp5991
g7
g8
sg9
g8
sg10
g5990
sg11
g8
sg12
(dp5992
I0
(dp5993
sI1
(dp5994
sI2
(dp5995
sI3
(dp5996
sI4
(dp5997
sI5
(dp5998
sI6
(dp5999
sI7
(dp6000
sI8
(dp6001
ssg23
(dp6002
sg25
(dp6003
I0
(dp6004
I3
(dp6005
sI4
(dp6006
sI5
(dp6007
sI6
(dp6008
sI7
(dp6009
sI8
(dp6010
ssI1
(dp6011
I8
(dp6012
sI3
(dp6013
sI5
(dp6014
sI7
(dp6015
ssI2
(dp6016
I8
(dp6017
sI4
(dp6018
sI5
(dp6019
sI6
(dp6020
sI7
(dp6021
ssI3
(dp6022
I0
g6005
sI1
g6013
sI5
(dp6023
sI6
(dp6024
sI7
(dp6025
sI8
(dp6026
ssI4
(dp6027
I0
g6006
sI8
(dp6028
sI2
g6018
sI6
(dp6029
sI7
(dp6030
ssI5
(dp6031
I0
g6007
sI1
g6014
sI2
g6019
sI3
g6023
sI6
(dp6032
sI8
(dp6033
ssI6
(dp6034
I0
g6008
sI2
g6020
sI3
g6024
sI4
g6029
sI5
g6032
sI7
(dp6035
sI8
(dp6036
ssI7
(dp6037
I0
g6009
sI1
g6015
sI2
g6021
sI3
g6025
sI4
g6030
sI6
g6035
sI8
(dp6038
ssI8
(dp6039
I0
g6010
sI1
g6012
sI2
g6017
sI3
g6026
sI4
g6028
sI5
g6033
sI6
g6036
sI7
g6038
sssg61
g8
sbag2
(g3
g4
NtRp6040
(dp6041
g7
g8
sg9
g8
sg10
g6040
sg11
g8
sg12
(dp6042
I0
(dp6043
sI1
(dp6044
sI2
(dp6045
sI3
(dp6046
sI4
(dp6047
sI5
(dp6048
sI6
(dp6049
sI7
(dp6050
sI8
(dp6051
ssg23
(dp6052
sg25
(dp6053
I0
(dp6054
I3
(dp6055
sI4
(dp6056
sI5
(dp6057
sI6
(dp6058
sI7
(dp6059
sI8
(dp6060
ssI1
(dp6061
I8
(dp6062
sI3
(dp6063
sI5
(dp6064
sI6
(dp6065
ssI2
(dp6066
I8
(dp6067
sI4
(dp6068
sI5
(dp6069
sI7
(dp6070
ssI3
(dp6071
I0
g6055
sI1
g6063
sI5
(dp6072
sI6
(dp6073
sI7
(dp6074
sI8
(dp6075
ssI4
(dp6076
I0
g6056
sI8
(dp6077
sI2
g6068
sI6
(dp6078
sI7
(dp6079
ssI5
(dp6080
I0
g6057
sI1
g6064
sI2
g6069
sI3
g6072
sI7
(dp6081
sI8
(dp6082
ssI6
(dp6083
I0
g6058
sI1
g6065
sI3
g6073
sI4
g6078
sI7
(dp6084
sI8
(dp6085
ssI7
(dp6086
I0
g6059
sI2
g6070
sI3
g6074
sI4
g6079
sI5
g6081
sI6
g6084
sI8
(dp6087
ssI8
(dp6088
I0
g6060
sI1
g6062
sI2
g6067
sI3
g6075
sI4
g6077
sI5
g6082
sI6
g6085
sI7
g6087
sssg61
g8
sbag2
(g3
g4
NtRp6089
(dp6090
g7
g8
sg9
g8
sg10
g6089
sg11
g8
sg12
(dp6091
I0
(dp6092
sI1
(dp6093
sI2
(dp6094
sI3
(dp6095
sI4
(dp6096
sI5
(dp6097
sI6
(dp6098
sI7
(dp6099
sI8
(dp6100
ssg23
(dp6101
sg25
(dp6102
I0
(dp6103
I3
(dp6104
sI4
(dp6105
sI5
(dp6106
sI6
(dp6107
sI7
(dp6108
sI8
(dp6109
ssI1
(dp6110
I8
(dp6111
sI3
(dp6112
sI5
(dp6113
sI6
(dp6114
sI7
(dp6115
ssI2
(dp6116
I8
(dp6117
sI4
(dp6118
sI5
(dp6119
sI7
(dp6120
ssI3
(dp6121
I0
g6104
sI1
g6112
sI5
(dp6122
sI6
(dp6123
sI7
(dp6124
sI8
(dp6125
ssI4
(dp6126
I0
g6105
sI8
(dp6127
sI2
g6118
sI6
(dp6128
sI7
(dp6129
ssI5
(dp6130
I0
g6106
sI1
g6113
sI2
g6119
sI3
g6122
sI7
(dp6131
sI8
(dp6132
ssI6
(dp6133
I0
g6107
sI1
g6114
sI3
g6123
sI4
g6128
sI7
(dp6134
sI8
(dp6135
ssI7
(dp6136
I0
g6108
sI1
g6115
sI2
g6120
sI3
g6124
sI4
g6129
sI5
g6131
sI6
g6134
sI8
(dp6137
ssI8
(dp6138
I0
g6109
sI1
g6111
sI2
g6117
sI3
g6125
sI4
g6127
sI5
g6132
sI6
g6135
sI7
g6137
sssg61
g8
sbag2
(g3
g4
NtRp6139
(dp6140
g7
g8
sg9
g8
sg10
g6139
sg11
g8
sg12
(dp6141
I0
(dp6142
sI1
(dp6143
sI2
(dp6144
sI3
(dp6145
sI4
(dp6146
sI5
(dp6147
sI6
(dp6148
sI7
(dp6149
sI8
(dp6150
ssg23
(dp6151
sg25
(dp6152
I0
(dp6153
I3
(dp6154
sI4
(dp6155
sI5
(dp6156
sI6
(dp6157
sI7
(dp6158
sI8
(dp6159
ssI1
(dp6160
I8
(dp6161
sI3
(dp6162
sI5
(dp6163
sI6
(dp6164
sI7
(dp6165
ssI2
(dp6166
I8
(dp6167
sI4
(dp6168
sI5
(dp6169
sI7
(dp6170
ssI3
(dp6171
I0
g6154
sI1
g6162
sI5
(dp6172
sI6
(dp6173
sI7
(dp6174
sI8
(dp6175
ssI4
(dp6176
I0
g6155
sI8
(dp6177
sI2
g6168
sI6
(dp6178
sI7
(dp6179
ssI5
(dp6180
I0
g6156
sI1
g6163
sI2
g6169
sI3
g6172
sI6
(dp6181
sI8
(dp6182
ssI6
(dp6183
I0
g6157
sI1
g6164
sI3
g6173
sI4
g6178
sI5
g6181
sI7
(dp6184
sI8
(dp6185
ssI7
(dp6186
I0
g6158
sI1
g6165
sI2
g6170
sI3
g6174
sI4
g6179
sI6
g6184
sI8
(dp6187
ssI8
(dp6188
I0
g6159
sI1
g6161
sI2
g6167
sI3
g6175
sI4
g6177
sI5
g6182
sI6
g6185
sI7
g6187
sssg61
g8
sbag2
(g3
g4
NtRp6189
(dp6190
g7
g8
sg9
g8
sg10
g6189
sg11
g8
sg12
(dp6191
I0
(dp6192
sI1
(dp6193
sI2
(dp6194
sI3
(dp6195
sI4
(dp6196
sI5
(dp6197
sI6
(dp6198
sI7
(dp6199
sI8
(dp6200
ssg23
(dp6201
sg25
(dp6202
I0
(dp6203
I3
(dp6204
sI4
(dp6205
sI5
(dp6206
sI6
(dp6207
sI7
(dp6208
sI8
(dp6209
ssI1
(dp6210
I8
(dp6211
sI3
(dp6212
sI5
(dp6213
sI6
(dp6214
sI7
(dp6215
ssI2
(dp6216
I8
(dp6217
sI4
(dp6218
sI5
(dp6219
sI6
(dp6220
sI7
(dp6221
ssI3
(dp6222
I0
g6204
sI1
g6212
sI5
(dp6223
sI8
(dp6224
sI7
(dp6225
ssI4
(dp6226
I0
g6205
sI8
(dp6227
sI2
g6218
sI6
(dp6228
sI7
(dp6229
ssI5
(dp6230
I0
g6206
sI1
g6213
sI2
g6219
sI3
g6223
sI7
(dp6231
sI8
(dp6232
ssI6
(dp6233
I0
g6207
sI1
g6214
sI2
g6220
sI4
g6228
sI7
(dp6234
sI8
(dp6235
ssI7
(dp6236
I0
g6208
sI1
g6215
sI2
g6221
sI3
g6225
sI4
g6229
sI5
g6231
sI6
g6234
sI8
(dp6237
ssI8
(dp6238
I0
g6209
sI1
g6211
sI2
g6217
sI3
g6224
sI4
g6227
sI5
g6232
sI6
g6235
sI7
g6237
sssg61
g8
sbag2
(g3
g4
NtRp6239
(dp6240
g7
g8
sg9
g8
sg10
g6239
sg11
g8
sg12
(dp6241
I0
(dp6242
sI1
(dp6243
sI2
(dp6244
sI3
(dp6245
sI4
(dp6246
sI5
(dp6247
sI6
(dp6248
sI7
(dp6249
sI8
(dp6250
ssg23
(dp6251
sg25
(dp6252
I0
(dp6253
I8
(dp6254
sI3
(dp6255
sI4
(dp6256
sI5
(dp6257
sI6
(dp6258
ssI1
(dp6259
I8
(dp6260
sI3
(dp6261
sI5
(dp6262
sI6
(dp6263
sI7
(dp6264
ssI2
(dp6265
I8
(dp6266
sI4
(dp6267
sI5
(dp6268
sI6
(dp6269
sI7
(dp6270
ssI3
(dp6271
I0
g6255
sI1
g6261
sI5
(dp6272
sI8
(dp6273
sI7
(dp6274
ssI4
(dp6275
I0
g6256
sI8
(dp6276
sI2
g6267
sI6
(dp6277
sI7
(dp6278
ssI5
(dp6279
I0
g6257
sI1
g6262
sI2
g6268
sI3
g6272
sI6
(dp6280
sI7
(dp6281
sI8
(dp6282
ssI6
(dp6283
I0
g6258
sI1
g6263
sI2
g6269
sI4
g6277
sI5
g6280
sI7
(dp6284
sI8
(dp6285
ssI7
(dp6286
I1
g6264
sI2
g6270
sI3
g6274
sI4
g6278
sI5
g6281
sI6
g6284
sI8
(dp6287
ssI8
(dp6288
I0
g6254
sI1
g6260
sI2
g6266
sI3
g6273
sI4
g6276
sI5
g6282
sI6
g6285
sI7
g6287
sssg61
g8
sbag2
(g3
g4
NtRp6289
(dp6290
g7
g8
sg9
g8
sg10
g6289
sg11
g8
sg12
(dp6291
I0
(dp6292
sI1
(dp6293
sI2
(dp6294
sI3
(dp6295
sI4
(dp6296
sI5
(dp6297
sI6
(dp6298
sI7
(dp6299
sI8
(dp6300
ssg23
(dp6301
sg25
(dp6302
I0
(dp6303
I3
(dp6304
sI4
(dp6305
sI5
(dp6306
sI6
(dp6307
sI7
(dp6308
sI8
(dp6309
ssI1
(dp6310
I3
(dp6311
sI5
(dp6312
sI6
(dp6313
sI7
(dp6314
ssI2
(dp6315
I8
(dp6316
sI4
(dp6317
sI5
(dp6318
sI6
(dp6319
ssI3
(dp6320
I0
g6304
sI1
g6311
sI5
(dp6321
sI8
(dp6322
sI7
(dp6323
ssI4
(dp6324
I0
g6305
sI8
(dp6325
sI2
g6317
sI6
(dp6326
sI7
(dp6327
ssI5
(dp6328
I0
g6306
sI1
g6312
sI2
g6318
sI3
g6321
sI6
(dp6329
sI7
(dp6330
sI8
(dp6331
ssI6
(dp6332
I0
g6307
sI1
g6313
sI2
g6319
sI4
g6326
sI5
g6329
sI7
(dp6333
sI8
(dp6334
ssI7
(dp6335
I0
g6308
sI1
g6314
sI3
g6323
sI4
g6327
sI5
g6330
sI6
g6333
sI8
(dp6336
ssI8
(dp6337
I0
g6309
sI2
g6316
sI3
g6322
sI4
g6325
sI5
g6331
sI6
g6334
sI7
g6336
sssg61
g8
sbag2
(g3
g4
NtRp6338
(dp6339
g7
g8
sg9
g8
sg10
g6338
sg11
g8
sg12
(dp6340
I0
(dp6341
sI1
(dp6342
sI2
(dp6343
sI3
(dp6344
sI4
(dp6345
sI5
(dp6346
sI6
(dp6347
sI7
(dp6348
sI8
(dp6349
ssg23
(dp6350
sg25
(dp6351
I0
(dp6352
I3
(dp6353
sI4
(dp6354
sI5
(dp6355
sI6
(dp6356
sI7
(dp6357
sI8
(dp6358
ssI1
(dp6359
I8
(dp6360
sI3
(dp6361
sI5
(dp6362
sI6
(dp6363
sI7
(dp6364
ssI2
(dp6365
I8
(dp6366
sI4
(dp6367
sI5
(dp6368
sI6
(dp6369
ssI3
(dp6370
I0
g6353
sI1
g6361
sI5
(dp6371
sI8
(dp6372
sI7
(dp6373
ssI4
(dp6374
I0
g6354
sI8
(dp6375
sI2
g6367
sI6
(dp6376
sI7
(dp6377
ssI5
(dp6378
I0
g6355
sI1
g6362
sI2
g6368
sI3
g6371
sI6
(dp6379
sI7
(dp6380
sI8
(dp6381
ssI6
(dp6382
I0
g6356
sI1
g6363
sI2
g6369
sI4
g6376
sI5
g6379
sI7
(dp6383
sI8
(dp6384
ssI7
(dp6385
I0
g6357
sI1
g6364
sI3
g6373
sI4
g6377
sI5
g6380
sI6
g6383
sI8
(dp6386
ssI8
(dp6387
I0
g6358
sI1
g6360
sI2
g6366
sI3
g6372
sI4
g6375
sI5
g6381
sI6
g6384
sI7
g6386
sssg61
g8
sbag2
(g3
g4
NtRp6388
(dp6389
g7
g8
sg9
g8
sg10
g6388
sg11
g8
sg12
(dp6390
I0
(dp6391
sI1
(dp6392
sI2
(dp6393
sI3
(dp6394
sI4
(dp6395
sI5
(dp6396
sI6
(dp6397
sI7
(dp6398
sI8
(dp6399
ssg23
(dp6400
sg25
(dp6401
I0
(dp6402
I3
(dp6403
sI4
(dp6404
sI5
(dp6405
sI6
(dp6406
sI7
(dp6407
sI8
(dp6408
ssI1
(dp6409
I8
(dp6410
sI3
(dp6411
sI5
(dp6412
sI6
(dp6413
sI7
(dp6414
ssI2
(dp6415
I8
(dp6416
sI4
(dp6417
sI5
(dp6418
sI6
(dp6419
sI7
(dp6420
ssI3
(dp6421
I0
g6403
sI1
g6411
sI5
(dp6422
sI8
(dp6423
sI7
(dp6424
ssI4
(dp6425
I0
g6404
sI8
(dp6426
sI2
g6417
sI6
(dp6427
sI7
(dp6428
ssI5
(dp6429
I0
g6405
sI1
g6412
sI2
g6418
sI3
g6422
sI6
(dp6430
sI7
(dp6431
sI8
(dp6432
ssI6
(dp6433
I0
g6406
sI1
g6413
sI2
g6419
sI4
g6427
sI5
g6430
sI8
(dp6434
ssI7
(dp6435
I0
g6407
sI1
g6414
sI2
g6420
sI3
g6424
sI4
g6428
sI5
g6431
sI8
(dp6436
ssI8
(dp6437
I0
g6408
sI1
g6410
sI2
g6416
sI3
g6423
sI4
g6426
sI5
g6432
sI6
g6434
sI7
g6436
sssg61
g8
sbag2
(g3
g4
NtRp6438
(dp6439
g7
g8
sg9
g8
sg10
g6438
sg11
g8
sg12
(dp6440
I0
(dp6441
sI1
(dp6442
sI2
(dp6443
sI3
(dp6444
sI4
(dp6445
sI5
(dp6446
sI6
(dp6447
sI7
(dp6448
sI8
(dp6449
ssg23
(dp6450
sg25
(dp6451
I0
(dp6452
I8
(dp6453
sI3
(dp6454
sI4
(dp6455
sI5
(dp6456
sI6
(dp6457
ssI1
(dp6458
I3
(dp6459
sI5
(dp6460
sI6
(dp6461
sI7
(dp6462
ssI2
(dp6463
I8
(dp6464
sI4
(dp6465
sI5
(dp6466
sI6
(dp6467
sI7
(dp6468
ssI3
(dp6469
I0
g6454
sI1
g6459
sI5
(dp6470
sI6
(dp6471
sI7
(dp6472
sI8
(dp6473
ssI4
(dp6474
I0
g6455
sI8
(dp6475
sI2
g6465
sI7
(dp6476
ssI5
(dp6477
I0
g6456
sI1
g6460
sI2
g6466
sI3
g6470
sI6
(dp6478
sI7
(dp6479
sI8
(dp6480
ssI6
(dp6481
I0
g6457
sI1
g6461
sI2
g6467
sI3
g6471
sI5
g6478
sI7
(dp6482
sI8
(dp6483
ssI7
(dp6484
I1
g6462
sI2
g6468
sI3
g6472
sI4
g6476
sI5
g6479
sI6
g6482
sI8
(dp6485
ssI8
(dp6486
I0
g6453
sI2
g6464
sI3
g6473
sI4
g6475
sI5
g6480
sI6
g6483
sI7
g6485
sssg61
g8
sbag2
(g3
g4
NtRp6487
(dp6488
g7
g8
sg9
g8
sg10
g6487
sg11
g8
sg12
(dp6489
I0
(dp6490
sI1
(dp6491
sI2
(dp6492
sI3
(dp6493
sI4
(dp6494
sI5
(dp6495
sI6
(dp6496
sI7
(dp6497
sI8
(dp6498
ssg23
(dp6499
sg25
(dp6500
I0
(dp6501
I8
(dp6502
sI3
(dp6503
sI4
(dp6504
sI5
(dp6505
sI6
(dp6506
ssI1
(dp6507
I8
(dp6508
sI3
(dp6509
sI5
(dp6510
sI6
(dp6511
sI7
(dp6512
ssI2
(dp6513
I8
(dp6514
sI4
(dp6515
sI5
(dp6516
sI6
(dp6517
sI7
(dp6518
ssI3
(dp6519
I0
g6503
sI1
g6509
sI5
(dp6520
sI6
(dp6521
sI7
(dp6522
sI8
(dp6523
ssI4
(dp6524
I0
g6504
sI8
(dp6525
sI2
g6515
sI7
(dp6526
ssI5
(dp6527
I0
g6505
sI1
g6510
sI2
g6516
sI3
g6520
sI6
(dp6528
sI7
(dp6529
sI8
(dp6530
ssI6
(dp6531
I0
g6506
sI1
g6511
sI2
g6517
sI3
g6521
sI5
g6528
sI7
(dp6532
sI8
(dp6533
ssI7
(dp6534
I1
g6512
sI2
g6518
sI3
g6522
sI4
g6526
sI5
g6529
sI6
g6532
sI8
(dp6535
ssI8
(dp6536
I0
g6502
sI1
g6508
sI2
g6514
sI3
g6523
sI4
g6525
sI5
g6530
sI6
g6533
sI7
g6535
sssg61
g8
sbag2
(g3
g4
NtRp6537
(dp6538
g7
g8
sg9
g8
sg10
g6537
sg11
g8
sg12
(dp6539
I0
(dp6540
sI1
(dp6541
sI2
(dp6542
sI3
(dp6543
sI4
(dp6544
sI5
(dp6545
sI6
(dp6546
sI7
(dp6547
sI8
(dp6548
ssg23
(dp6549
sg25
(dp6550
I0
(dp6551
I3
(dp6552
sI4
(dp6553
sI5
(dp6554
sI6
(dp6555
sI7
(dp6556
sI8
(dp6557
ssI1
(dp6558
I3
(dp6559
sI5
(dp6560
sI6
(dp6561
sI7
(dp6562
ssI2
(dp6563
I8
(dp6564
sI4
(dp6565
sI5
(dp6566
sI6
(dp6567
sI7
(dp6568
ssI3
(dp6569
I0
g6552
sI1
g6559
sI5
(dp6570
sI6
(dp6571
sI8
(dp6572
ssI4
(dp6573
I0
g6553
sI8
(dp6574
sI2
g6565
sI7
(dp6575
ssI5
(dp6576
I0
g6554
sI1
g6560
sI2
g6566
sI3
g6570
sI6
(dp6577
sI7
(dp6578
sI8
(dp6579
ssI6
(dp6580
I0
g6555
sI1
g6561
sI2
g6567
sI3
g6571
sI5
g6577
sI7
(dp6581
sI8
(dp6582
ssI7
(dp6583
I0
g6556
sI1
g6562
sI2
g6568
sI4
g6575
sI5
g6578
sI6
g6581
sI8
(dp6584
ssI8
(dp6585
I0
g6557
sI2
g6564
sI3
g6572
sI4
g6574
sI5
g6579
sI6
g6582
sI7
g6584
sssg61
g8
sbag2
(g3
g4
NtRp6586
(dp6587
g7
g8
sg9
g8
sg10
g6586
sg11
g8
sg12
(dp6588
I0
(dp6589
sI1
(dp6590
sI2
(dp6591
sI3
(dp6592
sI4
(dp6593
sI5
(dp6594
sI6
(dp6595
sI7
(dp6596
sI8
(dp6597
ssg23
(dp6598
sg25
(dp6599
I0
(dp6600
I3
(dp6601
sI4
(dp6602
sI5
(dp6603
sI6
(dp6604
sI7
(dp6605
sI8
(dp6606
ssI1
(dp6607
I8
(dp6608
sI3
(dp6609
sI5
(dp6610
sI6
(dp6611
sI7
(dp6612
ssI2
(dp6613
I8
(dp6614
sI4
(dp6615
sI5
(dp6616
sI6
(dp6617
sI7
(dp6618
ssI3
(dp6619
I0
g6601
sI1
g6609
sI5
(dp6620
sI6
(dp6621
sI8
(dp6622
ssI4
(dp6623
I0
g6602
sI8
(dp6624
sI2
g6615
sI7
(dp6625
ssI5
(dp6626
I0
g6603
sI1
g6610
sI2
g6616
sI3
g6620
sI6
(dp6627
sI7
(dp6628
sI8
(dp6629
ssI6
(dp6630
I0
g6604
sI1
g6611
sI2
g6617
sI3
g6621
sI5
g6627
sI7
(dp6631
sI8
(dp6632
ssI7
(dp6633
I0
g6605
sI1
g6612
sI2
g6618
sI4
g6625
sI5
g6628
sI6
g6631
sI8
(dp6634
ssI8
(dp6635
I0
g6606
sI1
g6608
sI2
g6614
sI3
g6622
sI4
g6624
sI5
g6629
sI6
g6632
sI7
g6634
sssg61
g8
sbag2
(g3
g4
NtRp6636
(dp6637
g7
g8
sg9
g8
sg10
g6636
sg11
g8
sg12
(dp6638
I0
(dp6639
sI1
(dp6640
sI2
(dp6641
sI3
(dp6642
sI4
(dp6643
sI5
(dp6644
sI6
(dp6645
sI7
(dp6646
sI8
(dp6647
ssg23
(dp6648
sg25
(dp6649
I0
(dp6650
I3
(dp6651
sI4
(dp6652
sI5
(dp6653
sI6
(dp6654
sI7
(dp6655
sI8
(dp6656
ssI1
(dp6657
I8
(dp6658
sI3
(dp6659
sI5
(dp6660
sI6
(dp6661
sI7
(dp6662
ssI2
(dp6663
I8
(dp6664
sI4
(dp6665
sI5
(dp6666
sI6
(dp6667
sI7
(dp6668
ssI3
(dp6669
I0
g6651
sI1
g6659
sI5
(dp6670
sI6
(dp6671
sI7
(dp6672
sI8
(dp6673
ssI4
(dp6674
I0
g6652
sI8
(dp6675
sI2
g6665
sI7
(dp6676
ssI5
(dp6677
I0
g6653
sI1
g6660
sI2
g6666
sI3
g6670
sI6
(dp6678
sI7
(dp6679
sI8
(dp6680
ssI6
(dp6681
I0
g6654
sI1
g6661
sI2
g6667
sI3
g6671
sI5
g6678
sI8
(dp6682
ssI7
(dp6683
I0
g6655
sI1
g6662
sI2
g6668
sI3
g6672
sI4
g6676
sI5
g6679
sI8
(dp6684
ssI8
(dp6685
I0
g6656
sI1
g6658
sI2
g6664
sI3
g6673
sI4
g6675
sI5
g6680
sI6
g6682
sI7
g6684
sssg61
g8
sbag2
(g3
g4
NtRp6686
(dp6687
g7
g8
sg9
g8
sg10
g6686
sg11
g8
sg12
(dp6688
I0
(dp6689
sI1
(dp6690
sI2
(dp6691
sI3
(dp6692
sI4
(dp6693
sI5
(dp6694
sI6
(dp6695
sI7
(dp6696
sI8
(dp6697
ssg23
(dp6698
sg25
(dp6699
I0
(dp6700
I8
(dp6701
sI3
(dp6702
sI4
(dp6703
sI6
(dp6704
sI7
(dp6705
ssI1
(dp6706
I8
(dp6707
sI3
(dp6708
sI5
(dp6709
sI6
(dp6710
sI7
(dp6711
ssI2
(dp6712
I8
(dp6713
sI4
(dp6714
sI5
(dp6715
ssI3
(dp6716
I0
g6702
sI1
g6708
sI4
(dp6717
sI5
(dp6718
sI6
(dp6719
sI7
(dp6720
sI8
(dp6721
ssI4
(dp6722
I0
g6703
sI2
g6714
sI3
g6717
sI5
(dp6723
sI6
(dp6724
sI7
(dp6725
sI8
(dp6726
ssI5
(dp6727
I1
g6709
sI2
g6715
sI3
g6718
sI4
g6723
sI6
(dp6728
sI7
(dp6729
ssI6
(dp6730
I0
g6704
sI1
g6710
sI3
g6719
sI4
g6724
sI5
g6728
sI7
(dp6731
sI8
(dp6732
ssI7
(dp6733
I0
g6705
sI1
g6711
sI3
g6720
sI4
g6725
sI5
g6729
sI6
g6731
sI8
(dp6734
ssI8
(dp6735
I0
g6701
sI1
g6707
sI2
g6713
sI3
g6721
sI4
g6726
sI6
g6732
sI7
g6734
sssg61
g8
sbag2
(g3
g4
NtRp6736
(dp6737
g7
g8
sg9
g8
sg10
g6736
sg11
g8
sg12
(dp6738
I0
(dp6739
sI1
(dp6740
sI2
(dp6741
sI3
(dp6742
sI4
(dp6743
sI5
(dp6744
sI6
(dp6745
sI7
(dp6746
sI8
(dp6747
ssg23
(dp6748
sg25
(dp6749
I0
(dp6750
I8
(dp6751
sI3
(dp6752
sI4
(dp6753
sI6
(dp6754
sI7
(dp6755
ssI1
(dp6756
I8
(dp6757
sI3
(dp6758
sI5
(dp6759
sI6
(dp6760
sI7
(dp6761
ssI2
(dp6762
I8
(dp6763
sI4
(dp6764
sI5
(dp6765
sI7
(dp6766
ssI3
(dp6767
I0
g6752
sI1
g6758
sI4
(dp6768
sI5
(dp6769
sI6
(dp6770
sI7
(dp6771
sI8
(dp6772
ssI4
(dp6773
I0
g6753
sI2
g6764
sI3
g6768
sI5
(dp6774
sI6
(dp6775
sI7
(dp6776
sI8
(dp6777
ssI5
(dp6778
I1
g6759
sI2
g6765
sI3
g6769
sI4
g6774
sI6
(dp6779
sI7
(dp6780
sI8
(dp6781
ssI6
(dp6782
I0
g6754
sI1
g6760
sI3
g6770
sI4
g6775
sI5
g6779
ssI7
(dp6783
I0
g6755
sI1
g6761
sI2
g6766
sI3
g6771
sI4
g6776
sI5
g6780
sI8
(dp6784
ssI8
(dp6785
I0
g6751
sI1
g6757
sI2
g6763
sI3
g6772
sI4
g6777
sI5
g6781
sI7
g6784
sssg61
g8
sbag2
(g3
g4
NtRp6786
(dp6787
g7
g8
sg9
g8
sg10
g6786
sg11
g8
sg12
(dp6788
I0
(dp6789
sI1
(dp6790
sI2
(dp6791
sI3
(dp6792
sI4
(dp6793
sI5
(dp6794
sI6
(dp6795
sI7
(dp6796
sI8
(dp6797
ssg23
(dp6798
sg25
(dp6799
I0
(dp6800
I8
(dp6801
sI3
(dp6802
sI4
(dp6803
sI5
(dp6804
sI7
(dp6805
ssI1
(dp6806
I8
(dp6807
sI3
(dp6808
sI5
(dp6809
sI6
(dp6810
sI7
(dp6811
ssI2
(dp6812
I8
(dp6813
sI4
(dp6814
sI5
(dp6815
sI6
(dp6816
sI7
(dp6817
ssI3
(dp6818
I0
g6802
sI1
g6808
sI4
(dp6819
sI6
(dp6820
sI7
(dp6821
sI8
(dp6822
ssI4
(dp6823
I0
g6803
sI2
g6814
sI3
g6819
sI6
(dp6824
sI7
(dp6825
sI8
(dp6826
ssI5
(dp6827
I0
g6804
sI1
g6809
sI2
g6815
sI8
(dp6828
sI7
(dp6829
ssI6
(dp6830
I1
g6810
sI2
g6816
sI3
g6820
sI4
g6824
sI7
(dp6831
sI8
(dp6832
ssI7
(dp6833
I0
g6805
sI1
g6811
sI2
g6817
sI3
g6821
sI4
g6825
sI5
g6829
sI6
g6831
sI8
(dp6834
ssI8
(dp6835
I0
g6801
sI1
g6807
sI2
g6813
sI3
g6822
sI4
g6826
sI5
g6828
sI6
g6832
sI7
g6834
sssg61
g8
sbag2
(g3
g4
NtRp6836
(dp6837
g7
g8
sg9
g8
sg10
g6836
sg11
g8
sg12
(dp6838
I0
(dp6839
sI1
(dp6840
sI2
(dp6841
sI3
(dp6842
sI4
(dp6843
sI5
(dp6844
sI6
(dp6845
sI7
(dp6846
sI8
(dp6847
ssg23
(dp6848
sg25
(dp6849
I0
(dp6850
I8
(dp6851
sI3
(dp6852
sI4
(dp6853
sI5
(dp6854
ssI1
(dp6855
I8
(dp6856
sI3
(dp6857
sI5
(dp6858
sI6
(dp6859
sI7
(dp6860
ssI2
(dp6861
I8
(dp6862
sI4
(dp6863
sI5
(dp6864
sI6
(dp6865
sI7
(dp6866
ssI3
(dp6867
I0
g6852
sI1
g6857
sI4
(dp6868
sI6
(dp6869
sI7
(dp6870
sI8
(dp6871
ssI4
(dp6872
I0
g6853
sI2
g6863
sI3
g6868
sI6
(dp6873
sI7
(dp6874
sI8
(dp6875
ssI5
(dp6876
I0
g6854
sI1
g6858
sI2
g6864
sI6
(dp6877
sI7
(dp6878
sI8
(dp6879
ssI6
(dp6880
I1
g6859
sI2
g6865
sI3
g6869
sI4
g6873
sI5
g6877
sI7
(dp6881
sI8
(dp6882
ssI7
(dp6883
I1
g6860
sI2
g6866
sI3
g6870
sI4
g6874
sI5
g6878
sI6
g6881
sI8
(dp6884
ssI8
(dp6885
I0
g6851
sI1
g6856
sI2
g6862
sI3
g6871
sI4
g6875
sI5
g6879
sI6
g6882
sI7
g6884
sssg61
g8
sbag2
(g3
g4
NtRp6886
(dp6887
g7
g8
sg9
g8
sg10
g6886
sg11
g8
sg12
(dp6888
I0
(dp6889
sI1
(dp6890
sI2
(dp6891
sI3
(dp6892
sI4
(dp6893
sI5
(dp6894
sI6
(dp6895
sI7
(dp6896
sI8
(dp6897
ssg23
(dp6898
sg25
(dp6899
I0
(dp6900
I8
(dp6901
sI3
(dp6902
sI4
(dp6903
sI5
(dp6904
sI7
(dp6905
ssI1
(dp6906
I8
(dp6907
sI3
(dp6908
sI5
(dp6909
sI6
(dp6910
sI7
(dp6911
ssI2
(dp6912
I8
(dp6913
sI4
(dp6914
sI5
(dp6915
sI6
(dp6916
ssI3
(dp6917
I0
g6902
sI1
g6908
sI4
(dp6918
sI6
(dp6919
sI7
(dp6920
sI8
(dp6921
ssI4
(dp6922
I0
g6903
sI2
g6914
sI3
g6918
sI6
(dp6923
sI7
(dp6924
sI8
(dp6925
ssI5
(dp6926
I0
g6904
sI1
g6909
sI2
g6915
sI6
(dp6927
sI7
(dp6928
sI8
(dp6929
ssI6
(dp6930
I1
g6910
sI2
g6916
sI3
g6919
sI4
g6923
sI5
g6927
sI7
(dp6931
sI8
(dp6932
ssI7
(dp6933
I0
g6905
sI1
g6911
sI3
g6920
sI4
g6924
sI5
g6928
sI6
g6931
sI8
(dp6934
ssI8
(dp6935
I0
g6901
sI1
g6907
sI2
g6913
sI3
g6921
sI4
g6925
sI5
g6929
sI6
g6932
sI7
g6934
sssg61
g8
sbag2
(g3
g4
NtRp6936
(dp6937
g7
g8
sg9
g8
sg10
g6936
sg11
g8
sg12
(dp6938
I0
(dp6939
sI1
(dp6940
sI2
(dp6941
sI3
(dp6942
sI4
(dp6943
sI5
(dp6944
sI6
(dp6945
sI7
(dp6946
sI8
(dp6947
ssg23
(dp6948
sg25
(dp6949
I0
(dp6950
I3
(dp6951
sI4
(dp6952
sI5
(dp6953
sI6
(dp6954
sI7
(dp6955
sI8
(dp6956
ssI1
(dp6957
I8
(dp6958
sI3
(dp6959
sI5
(dp6960
sI6
(dp6961
ssI2
(dp6962
I8
(dp6963
sI4
(dp6964
sI5
(dp6965
sI7
(dp6966
ssI3
(dp6967
I0
g6951
sI1
g6959
sI4
(dp6968
sI6
(dp6969
sI7
(dp6970
sI8
(dp6971
ssI4
(dp6972
I0
g6952
sI2
g6964
sI3
g6968
sI6
(dp6973
sI7
(dp6974
sI8
(dp6975
ssI5
(dp6976
I0
g6953
sI1
g6960
sI2
g6965
sI6
(dp6977
sI7
(dp6978
sI8
(dp6979
ssI6
(dp6980
I0
g6954
sI1
g6961
sI3
g6969
sI4
g6973
sI5
g6977
sI7
(dp6981
sI8
(dp6982
ssI7
(dp6983
I0
g6955
sI2
g6966
sI3
g6970
sI4
g6974
sI5
g6978
sI6
g6981
sI8
(dp6984
ssI8
(dp6985
I0
g6956
sI1
g6958
sI2
g6963
sI3
g6971
sI4
g6975
sI5
g6979
sI6
g6982
sI7
g6984
sssg61
g8
sbag2
(g3
g4
NtRp6986
(dp6987
g7
g8
sg9
g8
sg10
g6986
sg11
g8
sg12
(dp6988
I0
(dp6989
sI1
(dp6990
sI2
(dp6991
sI3
(dp6992
sI4
(dp6993
sI5
(dp6994
sI6
(dp6995
sI7
(dp6996
sI8
(dp6997
ssg23
(dp6998
sg25
(dp6999
I0
(dp7000
I3
(dp7001
sI4
(dp7002
sI5
(dp7003
sI6
(dp7004
sI7
(dp7005
sI8
(dp7006
ssI1
(dp7007
I8
(dp7008
sI3
(dp7009
sI5
(dp7010
sI6
(dp7011
sI7
(dp7012
ssI2
(dp7013
I8
(dp7014
sI4
(dp7015
sI5
(dp7016
ssI3
(dp7017
I0
g7001
sI1
g7009
sI4
(dp7018
sI6
(dp7019
sI7
(dp7020
sI8
(dp7021
ssI4
(dp7022
I0
g7002
sI2
g7015
sI3
g7018
sI6
(dp7023
sI7
(dp7024
sI8
(dp7025
ssI5
(dp7026
I0
g7003
sI1
g7010
sI2
g7016
sI6
(dp7027
sI7
(dp7028
sI8
(dp7029
ssI6
(dp7030
I0
g7004
sI1
g7011
sI3
g7019
sI4
g7023
sI5
g7027
sI7
(dp7031
sI8
(dp7032
ssI7
(dp7033
I0
g7005
sI1
g7012
sI3
g7020
sI4
g7024
sI5
g7028
sI6
g7031
sI8
(dp7034
ssI8
(dp7035
I0
g7006
sI1
g7008
sI2
g7014
sI3
g7021
sI4
g7025
sI5
g7029
sI6
g7032
sI7
g7034
sssg61
g8
sbag2
(g3
g4
NtRp7036
(dp7037
g7
g8
sg9
g8
sg10
g7036
sg11
g8
sg12
(dp7038
I0
(dp7039
sI1
(dp7040
sI2
(dp7041
sI3
(dp7042
sI4
(dp7043
sI5
(dp7044
sI6
(dp7045
sI7
(dp7046
sI8
(dp7047
ssg23
(dp7048
sg25
(dp7049
I0
(dp7050
I3
(dp7051
sI4
(dp7052
sI5
(dp7053
sI6
(dp7054
sI7
(dp7055
sI8
(dp7056
ssI1
(dp7057
I8
(dp7058
sI3
(dp7059
sI5
(dp7060
sI6
(dp7061
ssI2
(dp7062
I8
(dp7063
sI4
(dp7064
sI5
(dp7065
sI6
(dp7066
sI7
(dp7067
ssI3
(dp7068
I0
g7051
sI1
g7059
sI4
(dp7069
sI6
(dp7070
sI7
(dp7071
sI8
(dp7072
ssI4
(dp7073
I0
g7052
sI8
(dp7074
sI2
g7064
sI3
g7069
sI7
(dp7075
ssI5
(dp7076
I0
g7053
sI1
g7060
sI2
g7065
sI6
(dp7077
sI7
(dp7078
sI8
(dp7079
ssI6
(dp7080
I0
g7054
sI1
g7061
sI2
g7066
sI3
g7070
sI5
g7077
sI7
(dp7081
sI8
(dp7082
ssI7
(dp7083
I0
g7055
sI2
g7067
sI3
g7071
sI4
g7075
sI5
g7078
sI6
g7081
sI8
(dp7084
ssI8
(dp7085
I0
g7056
sI1
g7058
sI2
g7063
sI3
g7072
sI4
g7074
sI5
g7079
sI6
g7082
sI7
g7084
sssg61
g8
sbag2
(g3
g4
NtRp7086
(dp7087
g7
g8
sg9
g8
sg10
g7086
sg11
g8
sg12
(dp7088
I0
(dp7089
sI1
(dp7090
sI2
(dp7091
sI3
(dp7092
sI4
(dp7093
sI5
(dp7094
sI6
(dp7095
sI7
(dp7096
sI8
(dp7097
ssg23
(dp7098
sg25
(dp7099
I0
(dp7100
I3
(dp7101
sI4
(dp7102
sI5
(dp7103
sI6
(dp7104
sI7
(dp7105
sI8
(dp7106
ssI1
(dp7107
I8
(dp7108
sI3
(dp7109
sI5
(dp7110
sI6
(dp7111
sI7
(dp7112
ssI2
(dp7113
I8
(dp7114
sI4
(dp7115
sI5
(dp7116
sI6
(dp7117
ssI3
(dp7118
I0
g7101
sI1
g7109
sI4
(dp7119
sI6
(dp7120
sI7
(dp7121
sI8
(dp7122
ssI4
(dp7123
I0
g7102
sI8
(dp7124
sI2
g7115
sI3
g7119
sI7
(dp7125
ssI5
(dp7126
I0
g7103
sI1
g7110
sI2
g7116
sI6
(dp7127
sI7
(dp7128
sI8
(dp7129
ssI6
(dp7130
I0
g7104
sI1
g7111
sI2
g7117
sI3
g7120
sI5
g7127
sI7
(dp7131
sI8
(dp7132
ssI7
(dp7133
I0
g7105
sI1
g7112
sI3
g7121
sI4
g7125
sI5
g7128
sI6
g7131
sI8
(dp7134
ssI8
(dp7135
I0
g7106
sI1
g7108
sI2
g7114
sI3
g7122
sI4
g7124
sI5
g7129
sI6
g7132
sI7
g7134
sssg61
g8
sbag2
(g3
g4
NtRp7136
(dp7137
g7
g8
sg9
g8
sg10
g7136
sg11
g8
sg12
(dp7138
I0
(dp7139
sI1
(dp7140
sI2
(dp7141
sI3
(dp7142
sI4
(dp7143
sI5
(dp7144
sI6
(dp7145
sI7
(dp7146
sI8
(dp7147
ssg23
(dp7148
sg25
(dp7149
I0
(dp7150
I3
(dp7151
sI4
(dp7152
sI5
(dp7153
sI6
(dp7154
sI7
(dp7155
sI8
(dp7156
ssI1
(dp7157
I3
(dp7158
sI5
(dp7159
sI6
(dp7160
sI7
(dp7161
ssI2
(dp7162
I8
(dp7163
sI4
(dp7164
sI5
(dp7165
sI6
(dp7166
ssI3
(dp7167
I0
g7151
sI1
g7158
sI4
(dp7168
sI5
(dp7169
sI7
(dp7170
sI8
(dp7171
ssI4
(dp7172
I0
g7152
sI2
g7164
sI3
g7168
sI6
(dp7173
sI7
(dp7174
sI8
(dp7175
ssI5
(dp7176
I0
g7153
sI1
g7159
sI2
g7165
sI3
g7169
sI6
(dp7177
sI7
(dp7178
sI8
(dp7179
ssI6
(dp7180
I0
g7154
sI1
g7160
sI2
g7166
sI4
g7173
sI5
g7177
sI7
(dp7181
sI8
(dp7182
ssI7
(dp7183
I0
g7155
sI1
g7161
sI3
g7170
sI4
g7174
sI5
g7178
sI6
g7181
sI8
(dp7184
ssI8
(dp7185
I0
g7156
sI2
g7163
sI3
g7171
sI4
g7175
sI5
g7179
sI6
g7182
sI7
g7184
sssg61
g8
sbag2
(g3
g4
NtRp7186
(dp7187
g7
g8
sg9
g8
sg10
g7186
sg11
g8
sg12
(dp7188
I0
(dp7189
sI1
(dp7190
sI2
(dp7191
sI3
(dp7192
sI4
(dp7193
sI5
(dp7194
sI6
(dp7195
sI7
(dp7196
sI8
(dp7197
ssg23
(dp7198
sg25
(dp7199
I0
(dp7200
I3
(dp7201
sI4
(dp7202
sI5
(dp7203
sI6
(dp7204
sI7
(dp7205
sI8
(dp7206
ssI1
(dp7207
I8
(dp7208
sI3
(dp7209
sI5
(dp7210
sI6
(dp7211
sI7
(dp7212
ssI2
(dp7213
I4
(dp7214
sI5
(dp7215
sI6
(dp7216
ssI3
(dp7217
I0
g7201
sI1
g7209
sI4
(dp7218
sI5
(dp7219
sI7
(dp7220
sI8
(dp7221
ssI4
(dp7222
I0
g7202
sI2
g7214
sI3
g7218
sI6
(dp7223
sI7
(dp7224
sI8
(dp7225
ssI5
(dp7226
I0
g7203
sI1
g7210
sI2
g7215
sI3
g7219
sI6
(dp7227
sI7
(dp7228
sI8
(dp7229
ssI6
(dp7230
I0
g7204
sI1
g7211
sI2
g7216
sI4
g7223
sI5
g7227
sI7
(dp7231
sI8
(dp7232
ssI7
(dp7233
I0
g7205
sI1
g7212
sI3
g7220
sI4
g7224
sI5
g7228
sI6
g7231
sI8
(dp7234
ssI8
(dp7235
I0
g7206
sI1
g7208
sI3
g7221
sI4
g7225
sI5
g7229
sI6
g7232
sI7
g7234
sssg61
g8
sbag2
(g3
g4
NtRp7236
(dp7237
g7
g8
sg9
g8
sg10
g7236
sg11
g8
sg12
(dp7238
I0
(dp7239
sI1
(dp7240
sI2
(dp7241
sI3
(dp7242
sI4
(dp7243
sI5
(dp7244
sI6
(dp7245
sI7
(dp7246
sI8
(dp7247
ssg23
(dp7248
sg25
(dp7249
I0
(dp7250
I3
(dp7251
sI4
(dp7252
sI5
(dp7253
sI6
(dp7254
sI7
(dp7255
sI8
(dp7256
ssI1
(dp7257
I3
(dp7258
sI4
(dp7259
sI5
(dp7260
sI6
(dp7261
sI7
(dp7262
sI8
(dp7263
ssI2
(dp7264
I8
(dp7265
sI7
(dp7266
ssI3
(dp7267
I0
g7251
sI1
g7258
sI5
(dp7268
sI6
(dp7269
sI7
(dp7270
sI8
(dp7271
ssI4
(dp7272
I0
g7252
sI1
g7259
sI5
(dp7273
sI6
(dp7274
sI7
(dp7275
sI8
(dp7276
ssI5
(dp7277
I0
g7253
sI1
g7260
sI3
g7268
sI4
g7273
sI7
(dp7278
sI8
(dp7279
ssI6
(dp7280
I0
g7254
sI1
g7261
sI3
g7269
sI4
g7274
ssI7
(dp7281
I0
g7255
sI1
g7262
sI2
g7266
sI3
g7270
sI4
g7275
sI5
g7278
sI8
(dp7282
ssI8
(dp7283
I0
g7256
sI1
g7263
sI2
g7265
sI3
g7271
sI4
g7276
sI5
g7279
sI7
g7282
sssg61
g8
sbag2
(g3
g4
NtRp7284
(dp7285
g7
g8
sg9
g8
sg10
g7284
sg11
g8
sg12
(dp7286
I0
(dp7287
sI1
(dp7288
sI2
(dp7289
sI3
(dp7290
sI4
(dp7291
sI5
(dp7292
sI6
(dp7293
sI7
(dp7294
sI8
(dp7295
ssg23
(dp7296
sg25
(dp7297
I0
(dp7298
I3
(dp7299
sI4
(dp7300
sI5
(dp7301
sI6
(dp7302
sI7
(dp7303
sI8
(dp7304
ssI1
(dp7305
I3
(dp7306
sI4
(dp7307
sI5
(dp7308
sI6
(dp7309
sI7
(dp7310
sI8
(dp7311
ssI2
(dp7312
I8
(dp7313
sI7
(dp7314
ssI3
(dp7315
I0
g7299
sI1
g7306
sI5
(dp7316
sI6
(dp7317
sI7
(dp7318
sI8
(dp7319
ssI4
(dp7320
I0
g7300
sI1
g7307
sI5
(dp7321
sI6
(dp7322
sI7
(dp7323
sI8
(dp7324
ssI5
(dp7325
I0
g7301
sI1
g7308
sI3
g7316
sI4
g7321
sI6
(dp7326
sI7
(dp7327
sI8
(dp7328
ssI6
(dp7329
I0
g7302
sI1
g7309
sI3
g7317
sI4
g7322
sI5
g7326
ssI7
(dp7330
I0
g7303
sI1
g7310
sI2
g7314
sI3
g7318
sI4
g7323
sI5
g7327
sI8
(dp7331
ssI8
(dp7332
I0
g7304
sI1
g7311
sI2
g7313
sI3
g7319
sI4
g7324
sI5
g7328
sI7
g7331
sssg61
g8
sbag2
(g3
g4
NtRp7333
(dp7334
g7
g8
sg9
g8
sg10
g7333
sg11
g8
sg12
(dp7335
I0
(dp7336
sI1
(dp7337
sI2
(dp7338
sI3
(dp7339
sI4
(dp7340
sI5
(dp7341
sI6
(dp7342
sI7
(dp7343
sI8
(dp7344
ssg23
(dp7345
sg25
(dp7346
I0
(dp7347
I3
(dp7348
sI4
(dp7349
sI5
(dp7350
sI6
(dp7351
sI7
(dp7352
sI8
(dp7353
ssI1
(dp7354
I8
(dp7355
sI3
(dp7356
sI4
(dp7357
sI5
(dp7358
sI6
(dp7359
ssI2
(dp7360
I8
(dp7361
sI6
(dp7362
sI7
(dp7363
ssI3
(dp7364
I0
g7348
sI1
g7356
sI5
(dp7365
sI6
(dp7366
sI7
(dp7367
sI8
(dp7368
ssI4
(dp7369
I0
g7349
sI1
g7357
sI5
(dp7370
sI8
(dp7371
sI7
(dp7372
ssI5
(dp7373
I0
g7350
sI1
g7358
sI3
g7365
sI4
g7370
sI7
(dp7374
sI8
(dp7375
ssI6
(dp7376
I0
g7351
sI1
g7359
sI2
g7362
sI3
g7366
sI7
(dp7377
sI8
(dp7378
ssI7
(dp7379
I0
g7352
sI2
g7363
sI3
g7367
sI4
g7372
sI5
g7374
sI6
g7377
sI8
(dp7380
ssI8
(dp7381
I0
g7353
sI1
g7355
sI2
g7361
sI3
g7368
sI4
g7371
sI5
g7375
sI6
g7378
sI7
g7380
sssg61
g8
sbag2
(g3
g4
NtRp7382
(dp7383
g7
g8
sg9
g8
sg10
g7382
sg11
g8
sg12
(dp7384
I0
(dp7385
sI1
(dp7386
sI2
(dp7387
sI3
(dp7388
sI4
(dp7389
sI5
(dp7390
sI6
(dp7391
sI7
(dp7392
sI8
(dp7393
ssg23
(dp7394
sg25
(dp7395
I0
(dp7396
I3
(dp7397
sI4
(dp7398
sI5
(dp7399
sI6
(dp7400
sI7
(dp7401
sI8
(dp7402
ssI1
(dp7403
I3
(dp7404
sI4
(dp7405
sI5
(dp7406
sI6
(dp7407
sI7
(dp7408
sI8
(dp7409
ssI2
(dp7410
I8
(dp7411
sI6
(dp7412
sI7
(dp7413
ssI3
(dp7414
I0
g7397
sI1
g7404
sI5
(dp7415
sI6
(dp7416
sI7
(dp7417
sI8
(dp7418
ssI4
(dp7419
I0
g7398
sI1
g7405
sI5
(dp7420
sI8
(dp7421
ssI5
(dp7422
I0
g7399
sI1
g7406
sI3
g7415
sI4
g7420
sI7
(dp7423
sI8
(dp7424
ssI6
(dp7425
I0
g7400
sI1
g7407
sI2
g7412
sI3
g7416
sI7
(dp7426
sI8
(dp7427
ssI7
(dp7428
I0
g7401
sI1
g7408
sI2
g7413
sI3
g7417
sI5
g7423
sI6
g7426
sI8
(dp7429
ssI8
(dp7430
I0
g7402
sI1
g7409
sI2
g7411
sI3
g7418
sI4
g7421
sI5
g7424
sI6
g7427
sI7
g7429
sssg61
g8
sbag2
(g3
g4
NtRp7431
(dp7432
g7
g8
sg9
g8
sg10
g7431
sg11
g8
sg12
(dp7433
I0
(dp7434
sI1
(dp7435
sI2
(dp7436
sI3
(dp7437
sI4
(dp7438
sI5
(dp7439
sI6
(dp7440
sI7
(dp7441
sI8
(dp7442
ssg23
(dp7443
sg25
(dp7444
I0
(dp7445
I3
(dp7446
sI4
(dp7447
sI5
(dp7448
sI6
(dp7449
sI7
(dp7450
sI8
(dp7451
ssI1
(dp7452
I3
(dp7453
sI4
(dp7454
sI5
(dp7455
sI6
(dp7456
sI7
(dp7457
sI8
(dp7458
ssI2
(dp7459
I8
(dp7460
sI6
(dp7461
sI7
(dp7462
ssI3
(dp7463
I0
g7446
sI1
g7453
sI5
(dp7464
sI6
(dp7465
sI7
(dp7466
sI8
(dp7467
ssI4
(dp7468
I0
g7447
sI1
g7454
sI5
(dp7469
sI8
(dp7470
sI7
(dp7471
ssI5
(dp7472
I0
g7448
sI1
g7455
sI3
g7464
sI4
g7469
sI8
(dp7473
ssI6
(dp7474
I0
g7449
sI1
g7456
sI2
g7461
sI3
g7465
sI7
(dp7475
sI8
(dp7476
ssI7
(dp7477
I0
g7450
sI1
g7457
sI2
g7462
sI3
g7466
sI4
g7471
sI6
g7475
sI8
(dp7478
ssI8
(dp7479
I0
g7451
sI1
g7458
sI2
g7460
sI3
g7467
sI4
g7470
sI5
g7473
sI6
g7476
sI7
g7478
sssg61
g8
sbag2
(g3
g4
NtRp7480
(dp7481
g7
g8
sg9
g8
sg10
g7480
sg11
g8
sg12
(dp7482
I0
(dp7483
sI1
(dp7484
sI2
(dp7485
sI3
(dp7486
sI4
(dp7487
sI5
(dp7488
sI6
(dp7489
sI7
(dp7490
sI8
(dp7491
ssg23
(dp7492
sg25
(dp7493
I0
(dp7494
I3
(dp7495
sI4
(dp7496
sI5
(dp7497
sI6
(dp7498
sI7
(dp7499
sI8
(dp7500
ssI1
(dp7501
I3
(dp7502
sI4
(dp7503
sI5
(dp7504
sI6
(dp7505
sI7
(dp7506
sI8
(dp7507
ssI2
(dp7508
I8
(dp7509
sI6
(dp7510
ssI3
(dp7511
I0
g7495
sI1
g7502
sI5
(dp7512
sI6
(dp7513
sI7
(dp7514
sI8
(dp7515
ssI4
(dp7516
I0
g7496
sI1
g7503
sI5
(dp7517
sI6
(dp7518
sI7
(dp7519
sI8
(dp7520
ssI5
(dp7521
I0
g7497
sI1
g7504
sI3
g7512
sI4
g7517
sI7
(dp7522
sI8
(dp7523
ssI6
(dp7524
I0
g7498
sI1
g7505
sI2
g7510
sI3
g7513
sI4
g7518
sI8
(dp7525
ssI7
(dp7526
I0
g7499
sI1
g7506
sI3
g7514
sI4
g7519
sI5
g7522
sI8
(dp7527
ssI8
(dp7528
I0
g7500
sI1
g7507
sI2
g7509
sI3
g7515
sI4
g7520
sI5
g7523
sI6
g7525
sI7
g7527
sssg61
g8
sbag2
(g3
g4
NtRp7529
(dp7530
g7
g8
sg9
g8
sg10
g7529
sg11
g8
sg12
(dp7531
I0
(dp7532
sI1
(dp7533
sI2
(dp7534
sI3
(dp7535
sI4
(dp7536
sI5
(dp7537
sI6
(dp7538
sI7
(dp7539
sI8
(dp7540
ssg23
(dp7541
sg25
(dp7542
I0
(dp7543
I3
(dp7544
sI4
(dp7545
sI5
(dp7546
sI6
(dp7547
sI7
(dp7548
sI8
(dp7549
ssI1
(dp7550
I3
(dp7551
sI4
(dp7552
sI5
(dp7553
sI6
(dp7554
sI7
(dp7555
sI8
(dp7556
ssI2
(dp7557
I8
(dp7558
sI5
(dp7559
ssI3
(dp7560
I0
g7544
sI1
g7551
sI5
(dp7561
sI6
(dp7562
sI7
(dp7563
sI8
(dp7564
ssI4
(dp7565
I0
g7545
sI1
g7552
sI6
(dp7566
sI8
(dp7567
sI7
(dp7568
ssI5
(dp7569
I0
g7546
sI1
g7553
sI2
g7559
sI3
g7561
sI6
(dp7570
sI7
(dp7571
sI8
(dp7572
ssI6
(dp7573
I0
g7547
sI1
g7554
sI3
g7562
sI4
g7566
sI5
g7570
sI7
(dp7574
sI8
(dp7575
ssI7
(dp7576
I0
g7548
sI1
g7555
sI3
g7563
sI4
g7568
sI5
g7571
sI6
g7574
ssI8
(dp7577
I0
g7549
sI1
g7556
sI2
g7558
sI3
g7564
sI4
g7567
sI5
g7572
sI6
g7575
sssg61
g8
sbag2
(g3
g4
NtRp7578
(dp7579
g7
g8
sg9
g8
sg10
g7578
sg11
g8
sg12
(dp7580
I0
(dp7581
sI1
(dp7582
sI2
(dp7583
sI3
(dp7584
sI4
(dp7585
sI5
(dp7586
sI6
(dp7587
sI7
(dp7588
sI8
(dp7589
ssg23
(dp7590
sg25
(dp7591
I0
(dp7592
I3
(dp7593
sI4
(dp7594
sI5
(dp7595
sI6
(dp7596
sI7
(dp7597
sI8
(dp7598
ssI1
(dp7599
I8
(dp7600
sI3
(dp7601
sI4
(dp7602
sI5
(dp7603
sI6
(dp7604
ssI2
(dp7605
I5
(dp7606
sI6
(dp7607
sI7
(dp7608
ssI3
(dp7609
I0
g7593
sI1
g7601
sI5
(dp7610
sI8
(dp7611
sI7
(dp7612
ssI4
(dp7613
I0
g7594
sI1
g7602
sI6
(dp7614
sI8
(dp7615
sI7
(dp7616
ssI5
(dp7617
I0
g7595
sI1
g7603
sI2
g7606
sI3
g7610
sI6
(dp7618
sI7
(dp7619
sI8
(dp7620
ssI6
(dp7621
I0
g7596
sI1
g7604
sI2
g7607
sI4
g7614
sI5
g7618
sI7
(dp7622
sI8
(dp7623
ssI7
(dp7624
I0
g7597
sI2
g7608
sI3
g7612
sI4
g7616
sI5
g7619
sI6
g7622
sI8
(dp7625
ssI8
(dp7626
I0
g7598
sI1
g7600
sI3
g7611
sI4
g7615
sI5
g7620
sI6
g7623
sI7
g7625
sssg61
g8
sbag2
(g3
g4
NtRp7627
(dp7628
g7
g8
sg9
g8
sg10
g7627
sg11
g8
sg12
(dp7629
I0
(dp7630
sI1
(dp7631
sI2
(dp7632
sI3
(dp7633
sI4
(dp7634
sI5
(dp7635
sI6
(dp7636
sI7
(dp7637
sI8
(dp7638
ssg23
(dp7639
sg25
(dp7640
I0
(dp7641
I3
(dp7642
sI4
(dp7643
sI5
(dp7644
sI6
(dp7645
sI7
(dp7646
sI8
(dp7647
ssI1
(dp7648
I8
(dp7649
sI3
(dp7650
sI4
(dp7651
sI5
(dp7652
sI6
(dp7653
ssI2
(dp7654
I5
(dp7655
sI6
(dp7656
sI7
(dp7657
ssI3
(dp7658
I0
g7642
sI1
g7650
sI5
(dp7659
sI6
(dp7660
sI7
(dp7661
sI8
(dp7662
ssI4
(dp7663
I0
g7643
sI1
g7651
sI8
(dp7664
sI7
(dp7665
ssI5
(dp7666
I0
g7644
sI1
g7652
sI2
g7655
sI3
g7659
sI6
(dp7667
sI7
(dp7668
sI8
(dp7669
ssI6
(dp7670
I0
g7645
sI1
g7653
sI2
g7656
sI3
g7660
sI5
g7667
sI7
(dp7671
sI8
(dp7672
ssI7
(dp7673
I0
g7646
sI2
g7657
sI3
g7661
sI4
g7665
sI5
g7668
sI6
g7671
sI8
(dp7674
ssI8
(dp7675
I0
g7647
sI1
g7649
sI3
g7662
sI4
g7664
sI5
g7669
sI6
g7672
sI7
g7674
sssg61
g8
sbag2
(g3
g4
NtRp7676
(dp7677
g7
g8
sg9
g8
sg10
g7676
sg11
g8
sg12
(dp7678
I0
(dp7679
sI1
(dp7680
sI2
(dp7681
sI3
(dp7682
sI4
(dp7683
sI5
(dp7684
sI6
(dp7685
sI7
(dp7686
sI8
(dp7687
ssg23
(dp7688
sg25
(dp7689
I0
(dp7690
I3
(dp7691
sI4
(dp7692
sI5
(dp7693
sI6
(dp7694
sI7
(dp7695
sI8
(dp7696
ssI1
(dp7697
I3
(dp7698
sI4
(dp7699
sI5
(dp7700
sI6
(dp7701
sI7
(dp7702
sI8
(dp7703
ssI2
(dp7704
I8
(dp7705
sI5
(dp7706
sI6
(dp7707
ssI3
(dp7708
I0
g7691
sI1
g7698
sI5
(dp7709
sI6
(dp7710
sI7
(dp7711
sI8
(dp7712
ssI4
(dp7713
I0
g7692
sI1
g7699
sI8
(dp7714
sI7
(dp7715
ssI5
(dp7716
I0
g7693
sI1
g7700
sI2
g7706
sI3
g7709
sI6
(dp7717
sI7
(dp7718
sI8
(dp7719
ssI6
(dp7720
I0
g7694
sI1
g7701
sI2
g7707
sI3
g7710
sI5
g7717
sI7
(dp7721
sI8
(dp7722
ssI7
(dp7723
I0
g7695
sI1
g7702
sI3
g7711
sI4
g7715
sI5
g7718
sI6
g7721
ssI8
(dp7724
I0
g7696
sI1
g7703
sI2
g7705
sI3
g7712
sI4
g7714
sI5
g7719
sI6
g7722
sssg61
g8
sbag2
(g3
g4
NtRp7725
(dp7726
g7
g8
sg9
g8
sg10
g7725
sg11
g8
sg12
(dp7727
I0
(dp7728
sI1
(dp7729
sI2
(dp7730
sI3
(dp7731
sI4
(dp7732
sI5
(dp7733
sI6
(dp7734
sI7
(dp7735
sI8
(dp7736
ssg23
(dp7737
sg25
(dp7738
I0
(dp7739
I3
(dp7740
sI4
(dp7741
sI5
(dp7742
sI6
(dp7743
sI7
(dp7744
sI8
(dp7745
ssI1
(dp7746
I3
(dp7747
sI4
(dp7748
sI5
(dp7749
sI6
(dp7750
sI7
(dp7751
sI8
(dp7752
ssI2
(dp7753
I5
(dp7754
sI6
(dp7755
sI7
(dp7756
ssI3
(dp7757
I0
g7740
sI1
g7747
sI5
(dp7758
sI6
(dp7759
sI8
(dp7760
ssI4
(dp7761
I0
g7741
sI1
g7748
sI8
(dp7762
sI7
(dp7763
ssI5
(dp7764
I0
g7742
sI1
g7749
sI2
g7754
sI3
g7758
sI6
(dp7765
sI7
(dp7766
sI8
(dp7767
ssI6
(dp7768
I0
g7743
sI1
g7750
sI2
g7755
sI3
g7759
sI5
g7765
sI7
(dp7769
sI8
(dp7770
ssI7
(dp7771
I0
g7744
sI1
g7751
sI2
g7756
sI4
g7763
sI5
g7766
sI6
g7769
sI8
(dp7772
ssI8
(dp7773
I0
g7745
sI1
g7752
sI3
g7760
sI4
g7762
sI5
g7767
sI6
g7770
sI7
g7772
sssg61
g8
sbag2
(g3
g4
NtRp7774
(dp7775
g7
g8
sg9
g8
sg10
g7774
sg11
g8
sg12
(dp7776
I0
(dp7777
sI1
(dp7778
sI2
(dp7779
sI3
(dp7780
sI4
(dp7781
sI5
(dp7782
sI6
(dp7783
sI7
(dp7784
sI8
(dp7785
ssg23
(dp7786
sg25
(dp7787
I0
(dp7788
I3
(dp7789
sI4
(dp7790
sI5
(dp7791
sI6
(dp7792
sI7
(dp7793
sI8
(dp7794
ssI1
(dp7795
I3
(dp7796
sI4
(dp7797
sI5
(dp7798
sI6
(dp7799
sI7
(dp7800
sI8
(dp7801
ssI2
(dp7802
I8
(dp7803
sI5
(dp7804
sI6
(dp7805
sI7
(dp7806
ssI3
(dp7807
I0
g7789
sI1
g7796
sI5
(dp7808
sI6
(dp7809
ssI4
(dp7810
I0
g7790
sI1
g7797
sI8
(dp7811
sI7
(dp7812
ssI5
(dp7813
I0
g7791
sI1
g7798
sI2
g7804
sI3
g7808
sI6
(dp7814
sI7
(dp7815
sI8
(dp7816
ssI6
(dp7817
I0
g7792
sI1
g7799
sI2
g7805
sI3
g7809
sI5
g7814
sI7
(dp7818
sI8
(dp7819
ssI7
(dp7820
I0
g7793
sI1
g7800
sI2
g7806
sI4
g7812
sI5
g7815
sI6
g7818
sI8
(dp7821
ssI8
(dp7822
I0
g7794
sI1
g7801
sI2
g7803
sI4
g7811
sI5
g7816
sI6
g7819
sI7
g7821
sssg61
g8
sbag2
(g3
g4
NtRp7823
(dp7824
g7
g8
sg9
g8
sg10
g7823
sg11
g8
sg12
(dp7825
I0
(dp7826
sI1
(dp7827
sI2
(dp7828
sI3
(dp7829
sI4
(dp7830
sI5
(dp7831
sI6
(dp7832
sI7
(dp7833
sI8
(dp7834
ssg23
(dp7835
sg25
(dp7836
I0
(dp7837
I3
(dp7838
sI4
(dp7839
sI5
(dp7840
sI6
(dp7841
sI7
(dp7842
sI8
(dp7843
ssI1
(dp7844
I3
(dp7845
sI4
(dp7846
sI5
(dp7847
sI6
(dp7848
sI7
(dp7849
sI8
(dp7850
ssI2
(dp7851
I8
(dp7852
sI5
(dp7853
sI6
(dp7854
sI7
(dp7855
ssI3
(dp7856
I0
g7838
sI1
g7845
sI5
(dp7857
sI6
(dp7858
sI7
(dp7859
ssI4
(dp7860
I0
g7839
sI1
g7846
sI8
(dp7861
ssI5
(dp7862
I0
g7840
sI1
g7847
sI2
g7853
sI3
g7857
sI6
(dp7863
sI7
(dp7864
sI8
(dp7865
ssI6
(dp7866
I0
g7841
sI1
g7848
sI2
g7854
sI3
g7858
sI5
g7863
sI7
(dp7867
sI8
(dp7868
ssI7
(dp7869
I0
g7842
sI1
g7849
sI2
g7855
sI3
g7859
sI5
g7864
sI6
g7867
sI8
(dp7870
ssI8
(dp7871
I0
g7843
sI1
g7850
sI2
g7852
sI4
g7861
sI5
g7865
sI6
g7868
sI7
g7870
sssg61
g8
sbag2
(g3
g4
NtRp7872
(dp7873
g7
g8
sg9
g8
sg10
g7872
sg11
g8
sg12
(dp7874
I0
(dp7875
sI1
(dp7876
sI2
(dp7877
sI3
(dp7878
sI4
(dp7879
sI5
(dp7880
sI6
(dp7881
sI7
(dp7882
sI8
(dp7883
ssg23
(dp7884
sg25
(dp7885
I0
(dp7886
I3
(dp7887
sI4
(dp7888
sI5
(dp7889
sI6
(dp7890
sI7
(dp7891
sI8
(dp7892
ssI1
(dp7893
I3
(dp7894
sI4
(dp7895
sI5
(dp7896
sI6
(dp7897
sI7
(dp7898
sI8
(dp7899
ssI2
(dp7900
I8
(dp7901
sI5
(dp7902
sI6
(dp7903
sI7
(dp7904
ssI3
(dp7905
I0
g7887
sI1
g7894
sI5
(dp7906
sI6
(dp7907
sI7
(dp7908
sI8
(dp7909
ssI4
(dp7910
I0
g7888
sI1
g7895
sI6
(dp7911
sI8
(dp7912
ssI5
(dp7913
I0
g7889
sI1
g7896
sI2
g7902
sI3
g7906
sI7
(dp7914
sI8
(dp7915
ssI6
(dp7916
I0
g7890
sI1
g7897
sI2
g7903
sI3
g7907
sI4
g7911
sI7
(dp7917
sI8
(dp7918
ssI7
(dp7919
I0
g7891
sI1
g7898
sI2
g7904
sI3
g7908
sI5
g7914
sI6
g7917
sI8
(dp7920
ssI8
(dp7921
I0
g7892
sI1
g7899
sI2
g7901
sI3
g7909
sI4
g7912
sI5
g7915
sI6
g7918
sI7
g7920
sssg61
g8
sbag2
(g3
g4
NtRp7922
(dp7923
g7
g8
sg9
g8
sg10
g7922
sg11
g8
sg12
(dp7924
I0
(dp7925
sI1
(dp7926
sI2
(dp7927
sI3
(dp7928
sI4
(dp7929
sI5
(dp7930
sI6
(dp7931
sI7
(dp7932
sI8
(dp7933
ssg23
(dp7934
sg25
(dp7935
I0
(dp7936
I8
(dp7937
sI3
(dp7938
sI4
(dp7939
sI5
(dp7940
sI6
(dp7941
ssI1
(dp7942
I8
(dp7943
sI3
(dp7944
sI4
(dp7945
sI7
(dp7946
ssI2
(dp7947
I8
(dp7948
sI5
(dp7949
sI6
(dp7950
sI7
(dp7951
ssI3
(dp7952
I0
g7938
sI1
g7944
sI4
(dp7953
sI5
(dp7954
sI6
(dp7955
sI7
(dp7956
sI8
(dp7957
ssI4
(dp7958
I0
g7939
sI1
g7945
sI3
g7953
sI5
(dp7959
sI6
(dp7960
sI7
(dp7961
sI8
(dp7962
ssI5
(dp7963
I0
g7940
sI2
g7949
sI3
g7954
sI4
g7959
sI6
(dp7964
sI7
(dp7965
sI8
(dp7966
ssI6
(dp7967
I0
g7941
sI2
g7950
sI3
g7955
sI4
g7960
sI5
g7964
sI7
(dp7968
ssI7
(dp7969
I1
g7946
sI2
g7951
sI3
g7956
sI4
g7961
sI5
g7965
sI6
g7968
sI8
(dp7970
ssI8
(dp7971
I0
g7937
sI1
g7943
sI2
g7948
sI3
g7957
sI4
g7962
sI5
g7966
sI7
g7970
sssg61
g8
sbag2
(g3
g4
NtRp7972
(dp7973
g7
g8
sg9
g8
sg10
g7972
sg11
g8
sg12
(dp7974
I0
(dp7975
sI1
(dp7976
sI2
(dp7977
sI3
(dp7978
sI4
(dp7979
sI5
(dp7980
sI6
(dp7981
sI7
(dp7982
sI8
(dp7983
ssg23
(dp7984
sg25
(dp7985
I0
(dp7986
I8
(dp7987
sI3
(dp7988
sI4
(dp7989
sI5
(dp7990
sI6
(dp7991
ssI1
(dp7992
I8
(dp7993
sI3
(dp7994
sI4
(dp7995
sI7
(dp7996
ssI2
(dp7997
I8
(dp7998
sI5
(dp7999
sI6
(dp8000
sI7
(dp8001
ssI3
(dp8002
I0
g7988
sI1
g7994
sI4
(dp8003
sI5
(dp8004
sI6
(dp8005
sI7
(dp8006
sI8
(dp8007
ssI4
(dp8008
I0
g7989
sI1
g7995
sI3
g8003
sI5
(dp8009
sI6
(dp8010
sI7
(dp8011
sI8
(dp8012
ssI5
(dp8013
I0
g7990
sI2
g7999
sI3
g8004
sI4
g8009
sI6
(dp8014
sI7
(dp8015
sI8
(dp8016
ssI6
(dp8017
I0
g7991
sI2
g8000
sI3
g8005
sI4
g8010
sI5
g8014
sI7
(dp8018
sI8
(dp8019
ssI7
(dp8020
I1
g7996
sI2
g8001
sI3
g8006
sI4
g8011
sI5
g8015
sI6
g8018
ssI8
(dp8021
I0
g7987
sI1
g7993
sI2
g7998
sI3
g8007
sI4
g8012
sI5
g8016
sI6
g8019
sssg61
g8
sbag2
(g3
g4
NtRp8022
(dp8023
g7
g8
sg9
g8
sg10
g8022
sg11
g8
sg12
(dp8024
I0
(dp8025
sI1
(dp8026
sI2
(dp8027
sI3
(dp8028
sI4
(dp8029
sI5
(dp8030
sI6
(dp8031
sI7
(dp8032
sI8
(dp8033
ssg23
(dp8034
sg25
(dp8035
I0
(dp8036
I3
(dp8037
sI4
(dp8038
sI5
(dp8039
sI6
(dp8040
sI7
(dp8041
sI8
(dp8042
ssI1
(dp8043
I8
(dp8044
sI3
(dp8045
sI4
(dp8046
sI7
(dp8047
ssI2
(dp8048
I8
(dp8049
sI5
(dp8050
sI6
(dp8051
sI7
(dp8052
ssI3
(dp8053
I0
g8037
sI1
g8045
sI4
(dp8054
sI5
(dp8055
sI6
(dp8056
sI7
(dp8057
sI8
(dp8058
ssI4
(dp8059
I0
g8038
sI1
g8046
sI3
g8054
sI5
(dp8060
sI6
(dp8061
sI7
(dp8062
sI8
(dp8063
ssI5
(dp8064
I0
g8039
sI2
g8050
sI3
g8055
sI4
g8060
sI6
(dp8065
sI7
(dp8066
ssI6
(dp8067
I0
g8040
sI2
g8051
sI3
g8056
sI4
g8061
sI5
g8065
sI8
(dp8068
ssI7
(dp8069
I0
g8041
sI1
g8047
sI2
g8052
sI3
g8057
sI4
g8062
sI5
g8066
sI8
(dp8070
ssI8
(dp8071
I0
g8042
sI1
g8044
sI2
g8049
sI3
g8058
sI4
g8063
sI6
g8068
sI7
g8070
sssg61
g8
sbag2
(g3
g4
NtRp8072
(dp8073
g7
g8
sg9
g8
sg10
g8072
sg11
g8
sg12
(dp8074
I0
(dp8075
sI1
(dp8076
sI2
(dp8077
sI3
(dp8078
sI4
(dp8079
sI5
(dp8080
sI6
(dp8081
sI7
(dp8082
sI8
(dp8083
ssg23
(dp8084
sg25
(dp8085
I0
(dp8086
I3
(dp8087
sI4
(dp8088
sI5
(dp8089
sI6
(dp8090
sI7
(dp8091
sI8
(dp8092
ssI1
(dp8093
I8
(dp8094
sI3
(dp8095
sI4
(dp8096
sI6
(dp8097
sI7
(dp8098
ssI2
(dp8099
I5
(dp8100
sI6
(dp8101
sI7
(dp8102
ssI3
(dp8103
I0
g8087
sI1
g8095
sI4
(dp8104
sI5
(dp8105
sI6
(dp8106
sI8
(dp8107
ssI4
(dp8108
I0
g8088
sI1
g8096
sI3
g8104
sI5
(dp8109
sI7
(dp8110
sI8
(dp8111
ssI5
(dp8112
I0
g8089
sI2
g8100
sI3
g8105
sI4
g8109
sI6
(dp8113
sI7
(dp8114
sI8
(dp8115
ssI6
(dp8116
I0
g8090
sI1
g8097
sI2
g8101
sI3
g8106
sI5
g8113
sI7
(dp8117
sI8
(dp8118
ssI7
(dp8119
I0
g8091
sI1
g8098
sI2
g8102
sI4
g8110
sI5
g8114
sI6
g8117
sI8
(dp8120
ssI8
(dp8121
I0
g8092
sI1
g8094
sI3
g8107
sI4
g8111
sI5
g8115
sI6
g8118
sI7
g8120
sssg61
g8
sbag2
(g3
g4
NtRp8122
(dp8123
g7
g8
sg9
g8
sg10
g8122
sg11
g8
sg12
(dp8124
I0
(dp8125
sI1
(dp8126
sI2
(dp8127
sI3
(dp8128
sI4
(dp8129
sI5
(dp8130
sI6
(dp8131
sI7
(dp8132
sI8
(dp8133
ssg23
(dp8134
sg25
(dp8135
I0
(dp8136
I3
(dp8137
sI4
(dp8138
sI5
(dp8139
sI6
(dp8140
sI7
(dp8141
sI8
(dp8142
ssI1
(dp8143
I3
(dp8144
sI4
(dp8145
sI5
(dp8146
sI6
(dp8147
sI7
(dp8148
sI8
(dp8149
ssI2
(dp8150
I5
(dp8151
sI6
(dp8152
sI7
(dp8153
ssI3
(dp8154
I0
g8137
sI1
g8144
sI4
(dp8155
sI5
(dp8156
sI6
(dp8157
sI8
(dp8158
ssI4
(dp8159
I0
g8138
sI1
g8145
sI3
g8155
sI8
(dp8160
sI7
(dp8161
ssI5
(dp8162
I0
g8139
sI1
g8146
sI2
g8151
sI3
g8156
sI6
(dp8163
sI7
(dp8164
sI8
(dp8165
ssI6
(dp8166
I0
g8140
sI1
g8147
sI2
g8152
sI3
g8157
sI5
g8163
sI7
(dp8167
sI8
(dp8168
ssI7
(dp8169
I0
g8141
sI1
g8148
sI2
g8153
sI4
g8161
sI5
g8164
sI6
g8167
sI8
(dp8170
ssI8
(dp8171
I0
g8142
sI1
g8149
sI3
g8158
sI4
g8160
sI5
g8165
sI6
g8168
sI7
g8170
sssg61
g8
sbag2
(g3
g4
NtRp8172
(dp8173
g7
g8
sg9
g8
sg10
g8172
sg11
g8
sg12
(dp8174
I0
(dp8175
sI1
(dp8176
sI2
(dp8177
sI3
(dp8178
sI4
(dp8179
sI5
(dp8180
sI6
(dp8181
sI7
(dp8182
sI8
(dp8183
ssg23
(dp8184
sg25
(dp8185
I0
(dp8186
I3
(dp8187
sI4
(dp8188
sI5
(dp8189
sI6
(dp8190
sI7
(dp8191
sI8
(dp8192
ssI1
(dp8193
I8
(dp8194
sI3
(dp8195
sI4
(dp8196
sI5
(dp8197
sI7
(dp8198
ssI2
(dp8199
I8
(dp8200
sI4
(dp8201
sI6
(dp8202
sI7
(dp8203
ssI3
(dp8204
I0
g8187
sI1
g8195
sI5
(dp8205
sI6
(dp8206
sI7
(dp8207
sI8
(dp8208
ssI4
(dp8209
I0
g8188
sI1
g8196
sI2
g8201
sI8
(dp8210
sI7
(dp8211
ssI5
(dp8212
I0
g8189
sI1
g8197
sI3
g8205
sI6
(dp8213
sI7
(dp8214
sI8
(dp8215
ssI6
(dp8216
I0
g8190
sI2
g8202
sI3
g8206
sI5
g8213
sI7
(dp8217
sI8
(dp8218
ssI7
(dp8219
I0
g8191
sI1
g8198
sI2
g8203
sI3
g8207
sI4
g8211
sI5
g8214
sI6
g8217
sI8
(dp8220
ssI8
(dp8221
I0
g8192
sI1
g8194
sI2
g8200
sI3
g8208
sI4
g8210
sI5
g8215
sI6
g8218
sI7
g8220
sssg61
g8
sbag2
(g3
g4
NtRp8222
(dp8223
g7
g8
sg9
g8
sg10
g8222
sg11
g8
sg12
(dp8224
I0
(dp8225
sI1
(dp8226
sI2
(dp8227
sI3
(dp8228
sI4
(dp8229
sI5
(dp8230
sI6
(dp8231
sI7
(dp8232
sI8
(dp8233
ssg23
(dp8234
sg25
(dp8235
I0
(dp8236
I8
(dp8237
sI3
(dp8238
sI4
(dp8239
sI5
(dp8240
sI6
(dp8241
ssI1
(dp8242
I8
(dp8243
sI3
(dp8244
sI4
(dp8245
sI5
(dp8246
sI7
(dp8247
ssI2
(dp8248
I8
(dp8249
sI4
(dp8250
sI6
(dp8251
sI7
(dp8252
ssI3
(dp8253
I0
g8238
sI1
g8244
sI5
(dp8254
sI6
(dp8255
sI7
(dp8256
sI8
(dp8257
ssI4
(dp8258
I0
g8239
sI1
g8245
sI2
g8250
sI6
(dp8259
sI7
(dp8260
sI8
(dp8261
ssI5
(dp8262
I0
g8240
sI1
g8246
sI3
g8254
sI6
(dp8263
sI7
(dp8264
sI8
(dp8265
ssI6
(dp8266
I0
g8241
sI2
g8251
sI3
g8255
sI4
g8259
sI5
g8263
sI7
(dp8267
sI8
(dp8268
ssI7
(dp8269
I1
g8247
sI2
g8252
sI3
g8256
sI4
g8260
sI5
g8264
sI6
g8267
sI8
(dp8270
ssI8
(dp8271
I0
g8237
sI1
g8243
sI2
g8249
sI3
g8257
sI4
g8261
sI5
g8265
sI6
g8268
sI7
g8270
sssg61
g8
sbag2
(g3
g4
NtRp8272
(dp8273
g7
g8
sg9
g8
sg10
g8272
sg11
g8
sg12
(dp8274
I0
(dp8275
sI1
(dp8276
sI2
(dp8277
sI3
(dp8278
sI4
(dp8279
sI5
(dp8280
sI6
(dp8281
sI7
(dp8282
sI8
(dp8283
ssg23
(dp8284
sg25
(dp8285
I0
(dp8286
I3
(dp8287
sI4
(dp8288
sI5
(dp8289
sI6
(dp8290
sI7
(dp8291
sI8
(dp8292
ssI1
(dp8293
I8
(dp8294
sI3
(dp8295
sI4
(dp8296
sI5
(dp8297
ssI2
(dp8298
I8
(dp8299
sI4
(dp8300
sI6
(dp8301
sI7
(dp8302
ssI3
(dp8303
I0
g8287
sI1
g8295
sI5
(dp8304
sI6
(dp8305
sI7
(dp8306
sI8
(dp8307
ssI4
(dp8308
I0
g8288
sI1
g8296
sI2
g8300
sI6
(dp8309
sI7
(dp8310
sI8
(dp8311
ssI5
(dp8312
I0
g8289
sI1
g8297
sI3
g8304
sI6
(dp8313
sI7
(dp8314
sI8
(dp8315
ssI6
(dp8316
I0
g8290
sI2
g8301
sI3
g8305
sI4
g8309
sI5
g8313
sI7
(dp8317
sI8
(dp8318
ssI7
(dp8319
I0
g8291
sI2
g8302
sI3
g8306
sI4
g8310
sI5
g8314
sI6
g8317
sI8
(dp8320
ssI8
(dp8321
I0
g8292
sI1
g8294
sI2
g8299
sI3
g8307
sI4
g8311
sI5
g8315
sI6
g8318
sI7
g8320
sssg61
g8
sbag2
(g3
g4
NtRp8322
(dp8323
g7
g8
sg9
g8
sg10
g8322
sg11
g8
sg12
(dp8324
I0
(dp8325
sI1
(dp8326
sI2
(dp8327
sI3
(dp8328
sI4
(dp8329
sI5
(dp8330
sI6
(dp8331
sI7
(dp8332
sI8
(dp8333
ssg23
(dp8334
sg25
(dp8335
I0
(dp8336
I3
(dp8337
sI4
(dp8338
sI5
(dp8339
sI6
(dp8340
sI7
(dp8341
sI8
(dp8342
ssI1
(dp8343
I8
(dp8344
sI3
(dp8345
sI4
(dp8346
sI5
(dp8347
sI7
(dp8348
ssI2
(dp8349
I8
(dp8350
sI4
(dp8351
sI6
(dp8352
sI7
(dp8353
ssI3
(dp8354
I0
g8337
sI1
g8345
sI5
(dp8355
sI6
(dp8356
sI7
(dp8357
sI8
(dp8358
ssI4
(dp8359
I0
g8338
sI1
g8346
sI2
g8351
sI6
(dp8360
sI8
(dp8361
ssI5
(dp8362
I0
g8339
sI1
g8347
sI3
g8355
sI6
(dp8363
sI7
(dp8364
sI8
(dp8365
ssI6
(dp8366
I0
g8340
sI2
g8352
sI3
g8356
sI4
g8360
sI5
g8363
sI7
(dp8367
sI8
(dp8368
ssI7
(dp8369
I0
g8341
sI1
g8348
sI2
g8353
sI3
g8357
sI5
g8364
sI6
g8367
sI8
(dp8370
ssI8
(dp8371
I0
g8342
sI1
g8344
sI2
g8350
sI3
g8358
sI4
g8361
sI5
g8365
sI6
g8368
sI7
g8370
sssg61
g8
sbag2
(g3
g4
NtRp8372
(dp8373
g7
g8
sg9
g8
sg10
g8372
sg11
g8
sg12
(dp8374
I0
(dp8375
sI1
(dp8376
sI2
(dp8377
sI3
(dp8378
sI4
(dp8379
sI5
(dp8380
sI6
(dp8381
sI7
(dp8382
sI8
(dp8383
ssg23
(dp8384
sg25
(dp8385
I0
(dp8386
I3
(dp8387
sI4
(dp8388
sI5
(dp8389
sI6
(dp8390
sI7
(dp8391
sI8
(dp8392
ssI1
(dp8393
I3
(dp8394
sI4
(dp8395
sI5
(dp8396
sI6
(dp8397
sI7
(dp8398
sI8
(dp8399
ssI2
(dp8400
I8
(dp8401
sI4
(dp8402
sI7
(dp8403
ssI3
(dp8404
I0
g8387
sI1
g8394
sI5
(dp8405
sI6
(dp8406
sI7
(dp8407
sI8
(dp8408
ssI4
(dp8409
I0
g8388
sI1
g8395
sI2
g8402
sI6
(dp8410
sI7
(dp8411
sI8
(dp8412
ssI5
(dp8413
I0
g8389
sI1
g8396
sI3
g8405
sI6
(dp8414
sI8
(dp8415
ssI6
(dp8416
I0
g8390
sI1
g8397
sI3
g8406
sI4
g8410
sI5
g8414
sI8
(dp8417
ssI7
(dp8418
I0
g8391
sI1
g8398
sI2
g8403
sI3
g8407
sI4
g8411
sI8
(dp8419
ssI8
(dp8420
I0
g8392
sI1
g8399
sI2
g8401
sI3
g8408
sI4
g8412
sI5
g8415
sI6
g8417
sI7
g8419
sssg61
g8
sbag2
(g3
g4
NtRp8421
(dp8422
g7
g8
sg9
g8
sg10
g8421
sg11
g8
sg12
(dp8423
I0
(dp8424
sI1
(dp8425
sI2
(dp8426
sI3
(dp8427
sI4
(dp8428
sI5
(dp8429
sI6
(dp8430
sI7
(dp8431
sI8
(dp8432
ssg23
(dp8433
sg25
(dp8434
I0
(dp8435
I3
(dp8436
sI4
(dp8437
sI5
(dp8438
sI6
(dp8439
sI7
(dp8440
sI8
(dp8441
ssI1
(dp8442
I3
(dp8443
sI4
(dp8444
sI5
(dp8445
sI6
(dp8446
sI7
(dp8447
sI8
(dp8448
ssI2
(dp8449
I8
(dp8450
sI4
(dp8451
sI7
(dp8452
ssI3
(dp8453
I0
g8436
sI1
g8443
sI5
(dp8454
sI6
(dp8455
sI7
(dp8456
sI8
(dp8457
ssI4
(dp8458
I0
g8437
sI1
g8444
sI2
g8451
sI6
(dp8459
sI7
(dp8460
sI8
(dp8461
ssI5
(dp8462
I0
g8438
sI1
g8445
sI3
g8454
sI6
(dp8463
sI7
(dp8464
sI8
(dp8465
ssI6
(dp8466
I0
g8439
sI1
g8446
sI3
g8455
sI4
g8459
sI5
g8463
sI8
(dp8467
ssI7
(dp8468
I0
g8440
sI1
g8447
sI2
g8452
sI3
g8456
sI4
g8460
sI5
g8464
sI8
(dp8469
ssI8
(dp8470
I0
g8441
sI1
g8448
sI2
g8450
sI3
g8457
sI4
g8461
sI5
g8465
sI6
g8467
sI7
g8469
sssg61
g8
sbag2
(g3
g4
NtRp8471
(dp8472
g7
g8
sg9
g8
sg10
g8471
sg11
g8
sg12
(dp8473
I0
(dp8474
sI1
(dp8475
sI2
(dp8476
sI3
(dp8477
sI4
(dp8478
sI5
(dp8479
sI6
(dp8480
sI7
(dp8481
sI8
(dp8482
ssg23
(dp8483
sg25
(dp8484
I0
(dp8485
I3
(dp8486
sI4
(dp8487
sI5
(dp8488
sI6
(dp8489
sI7
(dp8490
sI8
(dp8491
ssI1
(dp8492
I8
(dp8493
sI3
(dp8494
sI4
(dp8495
sI5
(dp8496
sI6
(dp8497
ssI2
(dp8498
I8
(dp8499
sI4
(dp8500
sI6
(dp8501
sI7
(dp8502
ssI3
(dp8503
I0
g8486
sI1
g8494
sI5
(dp8504
sI6
(dp8505
sI7
(dp8506
sI8
(dp8507
ssI4
(dp8508
I0
g8487
sI1
g8495
sI2
g8500
sI6
(dp8509
sI7
(dp8510
sI8
(dp8511
ssI5
(dp8512
I0
g8488
sI1
g8496
sI3
g8504
sI8
(dp8513
sI7
(dp8514
ssI6
(dp8515
I0
g8489
sI1
g8497
sI2
g8501
sI3
g8505
sI4
g8509
sI7
(dp8516
sI8
(dp8517
ssI7
(dp8518
I0
g8490
sI2
g8502
sI3
g8506
sI4
g8510
sI5
g8514
sI6
g8516
sI8
(dp8519
ssI8
(dp8520
I0
g8491
sI1
g8493
sI2
g8499
sI3
g8507
sI4
g8511
sI5
g8513
sI6
g8517
sI7
g8519
sssg61
g8
sbag2
(g3
g4
NtRp8521
(dp8522
g7
g8
sg9
g8
sg10
g8521
sg11
g8
sg12
(dp8523
I0
(dp8524
sI1
(dp8525
sI2
(dp8526
sI3
(dp8527
sI4
(dp8528
sI5
(dp8529
sI6
(dp8530
sI7
(dp8531
sI8
(dp8532
ssg23
(dp8533
sg25
(dp8534
I0
(dp8535
I3
(dp8536
sI4
(dp8537
sI5
(dp8538
sI6
(dp8539
sI7
(dp8540
sI8
(dp8541
ssI1
(dp8542
I3
(dp8543
sI4
(dp8544
sI5
(dp8545
sI6
(dp8546
sI7
(dp8547
sI8
(dp8548
ssI2
(dp8549
I4
(dp8550
sI6
(dp8551
sI7
(dp8552
ssI3
(dp8553
I0
g8536
sI1
g8543
sI5
(dp8554
sI6
(dp8555
sI8
(dp8556
ssI4
(dp8557
I0
g8537
sI1
g8544
sI2
g8550
sI6
(dp8558
sI7
(dp8559
sI8
(dp8560
ssI5
(dp8561
I0
g8538
sI1
g8545
sI3
g8554
sI8
(dp8562
sI7
(dp8563
ssI6
(dp8564
I0
g8539
sI1
g8546
sI2
g8551
sI3
g8555
sI4
g8558
sI7
(dp8565
sI8
(dp8566
ssI7
(dp8567
I0
g8540
sI1
g8547
sI2
g8552
sI4
g8559
sI5
g8563
sI6
g8565
sI8
(dp8568
ssI8
(dp8569
I0
g8541
sI1
g8548
sI3
g8556
sI4
g8560
sI5
g8562
sI6
g8566
sI7
g8568
sssg61
g8
sbag2
(g3
g4
NtRp8570
(dp8571
g7
g8
sg9
g8
sg10
g8570
sg11
g8
sg12
(dp8572
I0
(dp8573
sI1
(dp8574
sI2
(dp8575
sI3
(dp8576
sI4
(dp8577
sI5
(dp8578
sI6
(dp8579
sI7
(dp8580
sI8
(dp8581
ssg23
(dp8582
sg25
(dp8583
I0
(dp8584
I3
(dp8585
sI4
(dp8586
sI5
(dp8587
sI6
(dp8588
sI7
(dp8589
sI8
(dp8590
ssI1
(dp8591
I3
(dp8592
sI4
(dp8593
sI5
(dp8594
sI6
(dp8595
sI7
(dp8596
sI8
(dp8597
ssI2
(dp8598
I8
(dp8599
sI4
(dp8600
sI6
(dp8601
sI7
(dp8602
ssI3
(dp8603
I0
g8585
sI1
g8592
sI5
(dp8604
sI6
(dp8605
sI8
(dp8606
ssI4
(dp8607
I0
g8586
sI1
g8593
sI2
g8600
sI6
(dp8608
sI7
(dp8609
sI8
(dp8610
ssI5
(dp8611
I0
g8587
sI1
g8594
sI3
g8604
sI8
(dp8612
sI7
(dp8613
ssI6
(dp8614
I0
g8588
sI1
g8595
sI2
g8601
sI3
g8605
sI4
g8608
sI7
(dp8615
sI8
(dp8616
ssI7
(dp8617
I0
g8589
sI1
g8596
sI2
g8602
sI4
g8609
sI5
g8613
sI6
g8615
sI8
(dp8618
ssI8
(dp8619
I0
g8590
sI1
g8597
sI2
g8599
sI3
g8606
sI4
g8610
sI5
g8612
sI6
g8616
sI7
g8618
sssg61
g8
sbag2
(g3
g4
NtRp8620
(dp8621
g7
g8
sg9
g8
sg10
g8620
sg11
g8
sg12
(dp8622
I0
(dp8623
sI1
(dp8624
sI2
(dp8625
sI3
(dp8626
sI4
(dp8627
sI5
(dp8628
sI6
(dp8629
sI7
(dp8630
sI8
(dp8631
ssg23
(dp8632
sg25
(dp8633
I0
(dp8634
I3
(dp8635
sI4
(dp8636
sI5
(dp8637
sI6
(dp8638
sI7
(dp8639
sI8
(dp8640
ssI1
(dp8641
I3
(dp8642
sI4
(dp8643
sI5
(dp8644
sI6
(dp8645
sI7
(dp8646
sI8
(dp8647
ssI2
(dp8648
I8
(dp8649
sI4
(dp8650
sI6
(dp8651
sI7
(dp8652
ssI3
(dp8653
I0
g8635
sI1
g8642
sI5
(dp8654
sI6
(dp8655
sI7
(dp8656
sI8
(dp8657
ssI4
(dp8658
I0
g8636
sI1
g8643
sI2
g8650
sI6
(dp8659
sI8
(dp8660
ssI5
(dp8661
I0
g8637
sI1
g8644
sI3
g8654
sI8
(dp8662
sI7
(dp8663
ssI6
(dp8664
I0
g8638
sI1
g8645
sI2
g8651
sI3
g8655
sI4
g8659
sI7
(dp8665
sI8
(dp8666
ssI7
(dp8667
I0
g8639
sI1
g8646
sI2
g8652
sI3
g8656
sI5
g8663
sI6
g8665
sI8
(dp8668
ssI8
(dp8669
I0
g8640
sI1
g8647
sI2
g8649
sI3
g8657
sI4
g8660
sI5
g8662
sI6
g8666
sI7
g8668
sssg61
g8
sbag2
(g3
g4
NtRp8670
(dp8671
g7
g8
sg9
g8
sg10
g8670
sg11
g8
sg12
(dp8672
I0
(dp8673
sI1
(dp8674
sI2
(dp8675
sI3
(dp8676
sI4
(dp8677
sI5
(dp8678
sI6
(dp8679
sI7
(dp8680
sI8
(dp8681
ssg23
(dp8682
sg25
(dp8683
I0
(dp8684
I3
(dp8685
sI4
(dp8686
sI5
(dp8687
sI6
(dp8688
sI7
(dp8689
sI8
(dp8690
ssI1
(dp8691
I3
(dp8692
sI4
(dp8693
sI5
(dp8694
sI6
(dp8695
sI7
(dp8696
sI8
(dp8697
ssI2
(dp8698
I8
(dp8699
sI4
(dp8700
sI6
(dp8701
sI7
(dp8702
ssI3
(dp8703
I0
g8685
sI1
g8692
sI5
(dp8704
sI6
(dp8705
sI7
(dp8706
sI8
(dp8707
ssI4
(dp8708
I0
g8686
sI1
g8693
sI2
g8700
sI6
(dp8709
sI7
(dp8710
sI8
(dp8711
ssI5
(dp8712
I0
g8687
sI1
g8694
sI3
g8704
sI8
(dp8713
ssI6
(dp8714
I0
g8688
sI1
g8695
sI2
g8701
sI3
g8705
sI4
g8709
sI7
(dp8715
sI8
(dp8716
ssI7
(dp8717
I0
g8689
sI1
g8696
sI2
g8702
sI3
g8706
sI4
g8710
sI6
g8715
sI8
(dp8718
ssI8
(dp8719
I0
g8690
sI1
g8697
sI2
g8699
sI3
g8707
sI4
g8711
sI5
g8713
sI6
g8716
sI7
g8718
sssg61
g8
sbag2
(g3
g4
NtRp8720
(dp8721
g7
g8
sg9
g8
sg10
g8720
sg11
g8
sg12
(dp8722
I0
(dp8723
sI1
(dp8724
sI2
(dp8725
sI3
(dp8726
sI4
(dp8727
sI5
(dp8728
sI6
(dp8729
sI7
(dp8730
sI8
(dp8731
ssg23
(dp8732
sg25
(dp8733
I0
(dp8734
I3
(dp8735
sI4
(dp8736
sI5
(dp8737
sI6
(dp8738
sI7
(dp8739
sI8
(dp8740
ssI1
(dp8741
I3
(dp8742
sI4
(dp8743
sI5
(dp8744
sI6
(dp8745
sI7
(dp8746
sI8
(dp8747
ssI2
(dp8748
I8
(dp8749
sI4
(dp8750
sI5
(dp8751
sI6
(dp8752
sI7
(dp8753
ssI3
(dp8754
I0
g8735
sI1
g8742
sI6
(dp8755
sI8
(dp8756
sI7
(dp8757
ssI4
(dp8758
I0
g8736
sI1
g8743
sI2
g8750
sI5
(dp8759
sI6
(dp8760
sI8
(dp8761
ssI5
(dp8762
I0
g8737
sI1
g8744
sI2
g8751
sI4
g8759
sI7
(dp8763
sI8
(dp8764
ssI6
(dp8765
I0
g8738
sI1
g8745
sI2
g8752
sI3
g8755
sI4
g8760
sI7
(dp8766
sI8
(dp8767
ssI7
(dp8768
I0
g8739
sI1
g8746
sI2
g8753
sI3
g8757
sI5
g8763
sI6
g8766
sI8
(dp8769
ssI8
(dp8770
I0
g8740
sI1
g8747
sI2
g8749
sI3
g8756
sI4
g8761
sI5
g8764
sI6
g8767
sI7
g8769
sssg61
g8
sbag2
(g3
g4
NtRp8771
(dp8772
g7
g8
sg9
g8
sg10
g8771
sg11
g8
sg12
(dp8773
I0
(dp8774
sI1
(dp8775
sI2
(dp8776
sI3
(dp8777
sI4
(dp8778
sI5
(dp8779
sI6
(dp8780
sI7
(dp8781
sI8
(dp8782
ssg23
(dp8783
sg25
(dp8784
I0
(dp8785
I2
(dp8786
sI4
(dp8787
sI5
(dp8788
sI6
(dp8789
sI7
(dp8790
sI8
(dp8791
ssI1
(dp8792
I8
(dp8793
sI3
(dp8794
sI6
(dp8795
sI7
(dp8796
ssI2
(dp8797
I0
g8786
sI4
(dp8798
sI5
(dp8799
sI6
(dp8800
sI7
(dp8801
sI8
(dp8802
ssI3
(dp8803
I8
(dp8804
sI1
g8794
sI7
(dp8805
ssI4
(dp8806
I0
g8787
sI2
g8798
sI5
(dp8807
sI6
(dp8808
sI7
(dp8809
sI8
(dp8810
ssI5
(dp8811
I0
g8788
sI8
(dp8812
sI2
g8799
sI4
g8807
sI7
(dp8813
ssI6
(dp8814
I0
g8789
sI1
g8795
sI2
g8800
sI4
g8808
sI8
(dp8815
ssI7
(dp8816
I0
g8790
sI1
g8796
sI2
g8801
sI3
g8805
sI4
g8809
sI5
g8813
sI8
(dp8817
ssI8
(dp8818
I0
g8791
sI1
g8793
sI2
g8802
sI3
g8804
sI4
g8810
sI5
g8812
sI6
g8815
sI7
g8817
sssg61
g8
sbag2
(g3
g4
NtRp8819
(dp8820
g7
g8
sg9
g8
sg10
g8819
sg11
g8
sg12
(dp8821
I0
(dp8822
sI1
(dp8823
sI2
(dp8824
sI3
(dp8825
sI4
(dp8826
sI5
(dp8827
sI6
(dp8828
sI7
(dp8829
sI8
(dp8830
ssg23
(dp8831
sg25
(dp8832
I0
(dp8833
I2
(dp8834
sI4
(dp8835
sI5
(dp8836
sI6
(dp8837
sI7
(dp8838
sI8
(dp8839
ssI1
(dp8840
I8
(dp8841
sI3
(dp8842
sI5
(dp8843
sI6
(dp8844
sI7
(dp8845
ssI2
(dp8846
I0
g8834
sI8
(dp8847
sI4
(dp8848
sI6
(dp8849
ssI3
(dp8850
I8
(dp8851
sI1
g8842
sI5
(dp8852
sI7
(dp8853
ssI4
(dp8854
I0
g8835
sI8
(dp8855
sI2
g8848
sI7
(dp8856
ssI5
(dp8857
I0
g8836
sI1
g8843
sI3
g8852
sI6
(dp8858
sI7
(dp8859
sI8
(dp8860
ssI6
(dp8861
I0
g8837
sI1
g8844
sI2
g8849
sI5
g8858
sI7
(dp8862
sI8
(dp8863
ssI7
(dp8864
I0
g8838
sI1
g8845
sI3
g8853
sI4
g8856
sI5
g8859
sI6
g8862
sI8
(dp8865
ssI8
(dp8866
I0
g8839
sI1
g8841
sI2
g8847
sI3
g8851
sI4
g8855
sI5
g8860
sI6
g8863
sI7
g8865
sssg61
g8
sbag2
(g3
g4
NtRp8867
(dp8868
g7
g8
sg9
g8
sg10
g8867
sg11
g8
sg12
(dp8869
I0
(dp8870
sI1
(dp8871
sI2
(dp8872
sI3
(dp8873
sI4
(dp8874
sI5
(dp8875
sI6
(dp8876
sI7
(dp8877
sI8
(dp8878
ssg23
(dp8879
sg25
(dp8880
I0
(dp8881
I2
(dp8882
sI4
(dp8883
sI5
(dp8884
sI6
(dp8885
sI7
(dp8886
sI8
(dp8887
ssI1
(dp8888
I8
(dp8889
sI3
(dp8890
sI5
(dp8891
sI6
(dp8892
sI7
(dp8893
ssI2
(dp8894
I0
g8882
sI8
(dp8895
sI4
(dp8896
sI6
(dp8897
sI7
(dp8898
ssI3
(dp8899
I8
(dp8900
sI1
g8890
sI5
(dp8901
sI6
(dp8902
sI7
(dp8903
ssI4
(dp8904
I0
g8883
sI8
(dp8905
sI2
g8896
ssI5
(dp8906
I0
g8884
sI1
g8891
sI3
g8901
sI8
(dp8907
sI7
(dp8908
ssI6
(dp8909
I0
g8885
sI1
g8892
sI2
g8897
sI3
g8902
sI7
(dp8910
sI8
(dp8911
ssI7
(dp8912
I0
g8886
sI1
g8893
sI2
g8898
sI3
g8903
sI5
g8908
sI6
g8910
sI8
(dp8913
ssI8
(dp8914
I0
g8887
sI1
g8889
sI2
g8895
sI3
g8900
sI4
g8905
sI5
g8907
sI6
g8911
sI7
g8913
sssg61
g8
sbag2
(g3
g4
NtRp8915
(dp8916
g7
g8
sg9
g8
sg10
g8915
sg11
g8
sg12
(dp8917
I0
(dp8918
sI1
(dp8919
sI2
(dp8920
sI3
(dp8921
sI4
(dp8922
sI5
(dp8923
sI6
(dp8924
sI7
(dp8925
sI8
(dp8926
ssg23
(dp8927
sg25
(dp8928
I0
(dp8929
I2
(dp8930
sI4
(dp8931
sI5
(dp8932
sI6
(dp8933
sI7
(dp8934
sI8
(dp8935
ssI1
(dp8936
I8
(dp8937
sI3
(dp8938
sI5
(dp8939
sI6
(dp8940
sI7
(dp8941
ssI2
(dp8942
I0
g8930
sI8
(dp8943
sI4
(dp8944
sI6
(dp8945
sI7
(dp8946
ssI3
(dp8947
I8
(dp8948
sI1
g8938
sI5
(dp8949
sI6
(dp8950
ssI4
(dp8951
I0
g8931
sI8
(dp8952
sI2
g8944
sI6
(dp8953
sI7
(dp8954
ssI5
(dp8955
I0
g8932
sI1
g8939
sI3
g8949
sI8
(dp8956
sI7
(dp8957
ssI6
(dp8958
I0
g8933
sI1
g8940
sI2
g8945
sI3
g8950
sI4
g8953
sI7
(dp8959
sI8
(dp8960
ssI7
(dp8961
I0
g8934
sI1
g8941
sI2
g8946
sI4
g8954
sI5
g8957
sI6
g8959
sI8
(dp8962
ssI8
(dp8963
I0
g8935
sI1
g8937
sI2
g8943
sI3
g8948
sI4
g8952
sI5
g8956
sI6
g8960
sI7
g8962
sssg61
g8
sbag2
(g3
g4
NtRp8964
(dp8965
g7
g8
sg9
g8
sg10
g8964
sg11
g8
sg12
(dp8966
I0
(dp8967
sI1
(dp8968
sI2
(dp8969
sI3
(dp8970
sI4
(dp8971
sI5
(dp8972
sI6
(dp8973
sI7
(dp8974
sI8
(dp8975
ssg23
(dp8976
sg25
(dp8977
I0
(dp8978
I2
(dp8979
sI4
(dp8980
sI5
(dp8981
sI6
(dp8982
sI7
(dp8983
sI8
(dp8984
ssI1
(dp8985
I8
(dp8986
sI3
(dp8987
sI5
(dp8988
sI6
(dp8989
sI7
(dp8990
ssI2
(dp8991
I0
g8979
sI8
(dp8992
sI4
(dp8993
sI6
(dp8994
sI7
(dp8995
ssI3
(dp8996
I8
(dp8997
sI1
g8987
sI5
(dp8998
sI6
(dp8999
sI7
(dp9000
ssI4
(dp9001
I0
g8980
sI8
(dp9002
sI2
g8993
sI6
(dp9003
sI7
(dp9004
ssI5
(dp9005
I0
g8981
sI1
g8988
sI3
g8998
sI8
(dp9006
ssI6
(dp9007
I0
g8982
sI1
g8989
sI2
g8994
sI3
g8999
sI4
g9003
sI7
(dp9008
sI8
(dp9009
ssI7
(dp9010
I0
g8983
sI1
g8990
sI2
g8995
sI3
g9000
sI4
g9004
sI6
g9008
sI8
(dp9011
ssI8
(dp9012
I0
g8984
sI1
g8986
sI2
g8992
sI3
g8997
sI4
g9002
sI5
g9006
sI6
g9009
sI7
g9011
sssg61
g8
sbag2
(g3
g4
NtRp9013
(dp9014
g7
g8
sg9
g8
sg10
g9013
sg11
g8
sg12
(dp9015
I0
(dp9016
sI1
(dp9017
sI2
(dp9018
sI3
(dp9019
sI4
(dp9020
sI5
(dp9021
sI6
(dp9022
sI7
(dp9023
sI8
(dp9024
ssg23
(dp9025
sg25
(dp9026
I0
(dp9027
I2
(dp9028
sI4
(dp9029
sI5
(dp9030
sI6
(dp9031
sI7
(dp9032
sI8
(dp9033
ssI1
(dp9034
I8
(dp9035
sI3
(dp9036
sI5
(dp9037
sI7
(dp9038
ssI2
(dp9039
I0
g9028
sI4
(dp9040
sI5
(dp9041
sI6
(dp9042
sI7
(dp9043
sI8
(dp9044
ssI3
(dp9045
I8
(dp9046
sI1
g9036
sI6
(dp9047
sI7
(dp9048
ssI4
(dp9049
I0
g9029
sI8
(dp9050
sI2
g9040
sI6
(dp9051
ssI5
(dp9052
I0
g9030
sI1
g9037
sI2
g9041
sI8
(dp9053
sI7
(dp9054
ssI6
(dp9055
I0
g9031
sI2
g9042
sI3
g9047
sI4
g9051
sI7
(dp9056
sI8
(dp9057
ssI7
(dp9058
I0
g9032
sI1
g9038
sI2
g9043
sI3
g9048
sI5
g9054
sI6
g9056
sI8
(dp9059
ssI8
(dp9060
I0
g9033
sI1
g9035
sI2
g9044
sI3
g9046
sI4
g9050
sI5
g9053
sI6
g9057
sI7
g9059
sssg61
g8
sbag2
(g3
g4
NtRp9061
(dp9062
g7
g8
sg9
g8
sg10
g9061
sg11
g8
sg12
(dp9063
I0
(dp9064
sI1
(dp9065
sI2
(dp9066
sI3
(dp9067
sI4
(dp9068
sI5
(dp9069
sI6
(dp9070
sI7
(dp9071
sI8
(dp9072
ssg23
(dp9073
sg25
(dp9074
I0
(dp9075
I2
(dp9076
sI4
(dp9077
sI5
(dp9078
sI6
(dp9079
sI7
(dp9080
sI8
(dp9081
ssI1
(dp9082
I8
(dp9083
sI3
(dp9084
sI5
(dp9085
sI7
(dp9086
ssI2
(dp9087
I0
g9076
sI8
(dp9088
sI4
(dp9089
sI5
(dp9090
sI6
(dp9091
ssI3
(dp9092
I8
(dp9093
sI1
g9084
sI6
(dp9094
sI7
(dp9095
ssI4
(dp9096
I0
g9077
sI8
(dp9097
sI2
g9089
sI6
(dp9098
sI7
(dp9099
ssI5
(dp9100
I0
g9078
sI1
g9085
sI2
g9090
sI6
(dp9101
sI7
(dp9102
sI8
(dp9103
ssI6
(dp9104
I0
g9079
sI2
g9091
sI3
g9094
sI4
g9098
sI5
g9101
sI7
(dp9105
sI8
(dp9106
ssI7
(dp9107
I0
g9080
sI1
g9086
sI3
g9095
sI4
g9099
sI5
g9102
sI6
g9105
sI8
(dp9108
ssI8
(dp9109
I0
g9081
sI1
g9083
sI2
g9088
sI3
g9093
sI4
g9097
sI5
g9103
sI6
g9106
sI7
g9108
sssg61
g8
sbag2
(g3
g4
NtRp9110
(dp9111
g7
g8
sg9
g8
sg10
g9110
sg11
g8
sg12
(dp9112
I0
(dp9113
sI1
(dp9114
sI2
(dp9115
sI3
(dp9116
sI4
(dp9117
sI5
(dp9118
sI6
(dp9119
sI7
(dp9120
sI8
(dp9121
ssg23
(dp9122
sg25
(dp9123
I0
(dp9124
I2
(dp9125
sI4
(dp9126
sI5
(dp9127
sI6
(dp9128
sI7
(dp9129
sI8
(dp9130
ssI1
(dp9131
I8
(dp9132
sI3
(dp9133
sI5
(dp9134
sI7
(dp9135
ssI2
(dp9136
I0
g9125
sI4
(dp9137
sI5
(dp9138
sI6
(dp9139
sI7
(dp9140
sI8
(dp9141
ssI3
(dp9142
I8
(dp9143
sI1
g9133
sI6
(dp9144
sI7
(dp9145
ssI4
(dp9146
I0
g9126
sI8
(dp9147
sI2
g9137
sI6
(dp9148
sI7
(dp9149
ssI5
(dp9150
I0
g9127
sI1
g9134
sI2
g9138
sI6
(dp9151
sI8
(dp9152
ssI6
(dp9153
I0
g9128
sI2
g9139
sI3
g9144
sI4
g9148
sI5
g9151
sI7
(dp9154
sI8
(dp9155
ssI7
(dp9156
I0
g9129
sI1
g9135
sI2
g9140
sI3
g9145
sI4
g9149
sI6
g9154
sI8
(dp9157
ssI8
(dp9158
I0
g9130
sI1
g9132
sI2
g9141
sI3
g9143
sI4
g9147
sI5
g9152
sI6
g9155
sI7
g9157
sssg61
g8
sbag2
(g3
g4
NtRp9159
(dp9160
g7
g8
sg9
g8
sg10
g9159
sg11
g8
sg12
(dp9161
I0
(dp9162
sI1
(dp9163
sI2
(dp9164
sI3
(dp9165
sI4
(dp9166
sI5
(dp9167
sI6
(dp9168
sI7
(dp9169
sI8
(dp9170
ssg23
(dp9171
sg25
(dp9172
I0
(dp9173
I2
(dp9174
sI4
(dp9175
sI5
(dp9176
sI6
(dp9177
sI7
(dp9178
sI8
(dp9179
ssI1
(dp9180
I8
(dp9181
sI3
(dp9182
sI5
(dp9183
sI7
(dp9184
ssI2
(dp9185
I0
g9174
sI4
(dp9186
sI5
(dp9187
sI6
(dp9188
sI7
(dp9189
sI8
(dp9190
ssI3
(dp9191
I8
(dp9192
sI1
g9182
sI6
(dp9193
sI7
(dp9194
ssI4
(dp9195
I0
g9175
sI8
(dp9196
sI2
g9186
sI6
(dp9197
sI7
(dp9198
ssI5
(dp9199
I0
g9176
sI1
g9183
sI2
g9187
sI6
(dp9200
sI7
(dp9201
sI8
(dp9202
ssI6
(dp9203
I0
g9177
sI2
g9188
sI3
g9193
sI4
g9197
sI5
g9200
sI8
(dp9204
ssI7
(dp9205
I0
g9178
sI1
g9184
sI2
g9189
sI3
g9194
sI4
g9198
sI5
g9201
sI8
(dp9206
ssI8
(dp9207
I0
g9179
sI1
g9181
sI2
g9190
sI3
g9192
sI4
g9196
sI5
g9202
sI6
g9204
sI7
g9206
sssg61
g8
sbag2
(g3
g4
NtRp9208
(dp9209
g7
g8
sg9
g8
sg10
g9208
sg11
g8
sg12
(dp9210
I0
(dp9211
sI1
(dp9212
sI2
(dp9213
sI3
(dp9214
sI4
(dp9215
sI5
(dp9216
sI6
(dp9217
sI7
(dp9218
sI8
(dp9219
ssg23
(dp9220
sg25
(dp9221
I0
(dp9222
I8
(dp9223
sI2
(dp9224
sI4
(dp9225
sI5
(dp9226
sI6
(dp9227
ssI1
(dp9228
I8
(dp9229
sI3
(dp9230
sI5
(dp9231
sI6
(dp9232
sI7
(dp9233
ssI2
(dp9234
I0
g9224
sI8
(dp9235
sI4
(dp9236
sI5
(dp9237
sI7
(dp9238
ssI3
(dp9239
I8
(dp9240
sI1
g9230
sI6
(dp9241
sI7
(dp9242
ssI4
(dp9243
I0
g9225
sI8
(dp9244
sI2
g9236
sI6
(dp9245
sI7
(dp9246
ssI5
(dp9247
I0
g9226
sI1
g9231
sI2
g9237
sI6
(dp9248
sI7
(dp9249
sI8
(dp9250
ssI6
(dp9251
I0
g9227
sI1
g9232
sI3
g9241
sI4
g9245
sI5
g9248
sI7
(dp9252
sI8
(dp9253
ssI7
(dp9254
I1
g9233
sI2
g9238
sI3
g9242
sI4
g9246
sI5
g9249
sI6
g9252
sI8
(dp9255
ssI8
(dp9256
I0
g9223
sI1
g9229
sI2
g9235
sI3
g9240
sI4
g9244
sI5
g9250
sI6
g9253
sI7
g9255
sssg61
g8
sbag2
(g3
g4
NtRp9257
(dp9258
g7
g8
sg9
g8
sg10
g9257
sg11
g8
sg12
(dp9259
I0
(dp9260
sI1
(dp9261
sI2
(dp9262
sI3
(dp9263
sI4
(dp9264
sI5
(dp9265
sI6
(dp9266
sI7
(dp9267
sI8
(dp9268
ssg23
(dp9269
sg25
(dp9270
I0
(dp9271
I2
(dp9272
sI4
(dp9273
sI5
(dp9274
sI6
(dp9275
sI7
(dp9276
sI8
(dp9277
ssI1
(dp9278
I8
(dp9279
sI3
(dp9280
sI5
(dp9281
sI6
(dp9282
sI7
(dp9283
ssI2
(dp9284
I0
g9272
sI8
(dp9285
sI4
(dp9286
sI5
(dp9287
ssI3
(dp9288
I8
(dp9289
sI1
g9280
sI6
(dp9290
sI7
(dp9291
ssI4
(dp9292
I0
g9273
sI8
(dp9293
sI2
g9286
sI6
(dp9294
sI7
(dp9295
ssI5
(dp9296
I0
g9274
sI1
g9281
sI2
g9287
sI6
(dp9297
sI7
(dp9298
sI8
(dp9299
ssI6
(dp9300
I0
g9275
sI1
g9282
sI3
g9290
sI4
g9294
sI5
g9297
sI7
(dp9301
sI8
(dp9302
ssI7
(dp9303
I0
g9276
sI1
g9283
sI3
g9291
sI4
g9295
sI5
g9298
sI6
g9301
sI8
(dp9304
ssI8
(dp9305
I0
g9277
sI1
g9279
sI2
g9285
sI3
g9289
sI4
g9293
sI5
g9299
sI6
g9302
sI7
g9304
sssg61
g8
sbag2
(g3
g4
NtRp9306
(dp9307
g7
g8
sg9
g8
sg10
g9306
sg11
g8
sg12
(dp9308
I0
(dp9309
sI1
(dp9310
sI2
(dp9311
sI3
(dp9312
sI4
(dp9313
sI5
(dp9314
sI6
(dp9315
sI7
(dp9316
sI8
(dp9317
ssg23
(dp9318
sg25
(dp9319
I0
(dp9320
I2
(dp9321
sI4
(dp9322
sI5
(dp9323
sI6
(dp9324
sI7
(dp9325
sI8
(dp9326
ssI1
(dp9327
I8
(dp9328
sI3
(dp9329
sI5
(dp9330
sI6
(dp9331
sI7
(dp9332
ssI2
(dp9333
I0
g9321
sI8
(dp9334
sI4
(dp9335
sI5
(dp9336
sI7
(dp9337
ssI3
(dp9338
I8
(dp9339
sI1
g9329
sI6
(dp9340
sI7
(dp9341
ssI4
(dp9342
I0
g9322
sI8
(dp9343
sI2
g9335
sI6
(dp9344
sI7
(dp9345
ssI5
(dp9346
I0
g9323
sI1
g9330
sI2
g9336
sI6
(dp9347
sI8
(dp9348
ssI6
(dp9349
I0
g9324
sI1
g9331
sI3
g9340
sI4
g9344
sI5
g9347
sI7
(dp9350
sI8
(dp9351
ssI7
(dp9352
I0
g9325
sI1
g9332
sI2
g9337
sI3
g9341
sI4
g9345
sI6
g9350
sI8
(dp9353
ssI8
(dp9354
I0
g9326
sI1
g9328
sI2
g9334
sI3
g9339
sI4
g9343
sI5
g9348
sI6
g9351
sI7
g9353
sssg61
g8
sbag2
(g3
g4
NtRp9355
(dp9356
g7
g8
sg9
g8
sg10
g9355
sg11
g8
sg12
(dp9357
I0
(dp9358
sI1
(dp9359
sI2
(dp9360
sI3
(dp9361
sI4
(dp9362
sI5
(dp9363
sI6
(dp9364
sI7
(dp9365
sI8
(dp9366
ssg23
(dp9367
sg25
(dp9368
I0
(dp9369
I2
(dp9370
sI4
(dp9371
sI5
(dp9372
sI6
(dp9373
sI7
(dp9374
sI8
(dp9375
ssI1
(dp9376
I8
(dp9377
sI3
(dp9378
sI5
(dp9379
sI6
(dp9380
sI7
(dp9381
ssI2
(dp9382
I0
g9370
sI8
(dp9383
sI4
(dp9384
sI5
(dp9385
sI6
(dp9386
ssI3
(dp9387
I8
(dp9388
sI1
g9378
sI7
(dp9389
ssI4
(dp9390
I0
g9371
sI8
(dp9391
sI2
g9384
sI7
(dp9392
ssI5
(dp9393
I0
g9372
sI1
g9379
sI2
g9385
sI6
(dp9394
sI7
(dp9395
sI8
(dp9396
ssI6
(dp9397
I0
g9373
sI1
g9380
sI2
g9386
sI5
g9394
sI7
(dp9398
sI8
(dp9399
ssI7
(dp9400
I0
g9374
sI1
g9381
sI3
g9389
sI4
g9392
sI5
g9395
sI6
g9398
sI8
(dp9401
ssI8
(dp9402
I0
g9375
sI1
g9377
sI2
g9383
sI3
g9388
sI4
g9391
sI5
g9396
sI6
g9399
sI7
g9401
sssg61
g8
sbag2
(g3
g4
NtRp9403
(dp9404
g7
g8
sg9
g8
sg10
g9403
sg11
g8
sg12
(dp9405
I0
(dp9406
sI1
(dp9407
sI2
(dp9408
sI3
(dp9409
sI4
(dp9410
sI5
(dp9411
sI6
(dp9412
sI7
(dp9413
sI8
(dp9414
ssg23
(dp9415
sg25
(dp9416
I0
(dp9417
I2
(dp9418
sI4
(dp9419
sI5
(dp9420
sI6
(dp9421
sI7
(dp9422
sI8
(dp9423
ssI1
(dp9424
I8
(dp9425
sI3
(dp9426
sI5
(dp9427
sI6
(dp9428
sI7
(dp9429
ssI2
(dp9430
I0
g9418
sI4
(dp9431
sI5
(dp9432
sI6
(dp9433
sI7
(dp9434
sI8
(dp9435
ssI3
(dp9436
I8
(dp9437
sI1
g9426
ssI4
(dp9438
I0
g9419
sI8
(dp9439
sI2
g9431
sI6
(dp9440
sI7
(dp9441
ssI5
(dp9442
I0
g9420
sI1
g9427
sI2
g9432
sI6
(dp9443
sI7
(dp9444
sI8
(dp9445
ssI6
(dp9446
I0
g9421
sI1
g9428
sI2
g9433
sI4
g9440
sI5
g9443
sI8
(dp9447
ssI7
(dp9448
I0
g9422
sI1
g9429
sI2
g9434
sI4
g9441
sI5
g9444
sI8
(dp9449
ssI8
(dp9450
I0
g9423
sI1
g9425
sI2
g9435
sI3
g9437
sI4
g9439
sI5
g9445
sI6
g9447
sI7
g9449
sssg61
g8
sbag2
(g3
g4
NtRp9451
(dp9452
g7
g8
sg9
g8
sg10
g9451
sg11
g8
sg12
(dp9453
I0
(dp9454
sI1
(dp9455
sI2
(dp9456
sI3
(dp9457
sI4
(dp9458
sI5
(dp9459
sI6
(dp9460
sI7
(dp9461
sI8
(dp9462
ssg23
(dp9463
sg25
(dp9464
I0
(dp9465
I2
(dp9466
sI4
(dp9467
sI5
(dp9468
sI6
(dp9469
sI7
(dp9470
sI8
(dp9471
ssI1
(dp9472
I8
(dp9473
sI3
(dp9474
sI5
(dp9475
sI6
(dp9476
sI7
(dp9477
ssI2
(dp9478
I0
g9466
sI4
(dp9479
sI5
(dp9480
sI6
(dp9481
sI7
(dp9482
sI8
(dp9483
ssI3
(dp9484
I8
(dp9485
sI1
g9474
sI7
(dp9486
ssI4
(dp9487
I0
g9467
sI8
(dp9488
sI2
g9479
sI6
(dp9489
ssI5
(dp9490
I0
g9468
sI1
g9475
sI2
g9480
sI6
(dp9491
sI7
(dp9492
sI8
(dp9493
ssI6
(dp9494
I0
g9469
sI1
g9476
sI2
g9481
sI4
g9489
sI5
g9491
sI8
(dp9495
ssI7
(dp9496
I0
g9470
sI1
g9477
sI2
g9482
sI3
g9486
sI5
g9492
sI8
(dp9497
ssI8
(dp9498
I0
g9471
sI1
g9473
sI2
g9483
sI3
g9485
sI4
g9488
sI5
g9493
sI6
g9495
sI7
g9497
sssg61
g8
sbag2
(g3
g4
NtRp9499
(dp9500
g7
g8
sg9
g8
sg10
g9499
sg11
g8
sg12
(dp9501
I0
(dp9502
sI1
(dp9503
sI2
(dp9504
sI3
(dp9505
sI4
(dp9506
sI5
(dp9507
sI6
(dp9508
sI7
(dp9509
sI8
(dp9510
ssg23
(dp9511
sg25
(dp9512
I0
(dp9513
I2
(dp9514
sI4
(dp9515
sI5
(dp9516
sI6
(dp9517
sI7
(dp9518
sI8
(dp9519
ssI1
(dp9520
I8
(dp9521
sI3
(dp9522
sI5
(dp9523
sI6
(dp9524
sI7
(dp9525
ssI2
(dp9526
I0
g9514
sI4
(dp9527
sI5
(dp9528
sI6
(dp9529
sI7
(dp9530
sI8
(dp9531
ssI3
(dp9532
I8
(dp9533
sI1
g9522
sI7
(dp9534
ssI4
(dp9535
I0
g9515
sI8
(dp9536
sI2
g9527
sI6
(dp9537
sI7
(dp9538
ssI5
(dp9539
I0
g9516
sI1
g9523
sI2
g9528
sI6
(dp9540
sI7
(dp9541
sI8
(dp9542
ssI6
(dp9543
I0
g9517
sI1
g9524
sI2
g9529
sI4
g9537
sI5
g9540
sI8
(dp9544
ssI7
(dp9545
I0
g9518
sI1
g9525
sI2
g9530
sI3
g9534
sI4
g9538
sI5
g9541
sI8
(dp9546
ssI8
(dp9547
I0
g9519
sI1
g9521
sI2
g9531
sI3
g9533
sI4
g9536
sI5
g9542
sI6
g9544
sI7
g9546
sssg61
g8
sbag2
(g3
g4
NtRp9548
(dp9549
g7
g8
sg9
g8
sg10
g9548
sg11
g8
sg12
(dp9550
I0
(dp9551
sI1
(dp9552
sI2
(dp9553
sI3
(dp9554
sI4
(dp9555
sI5
(dp9556
sI6
(dp9557
sI7
(dp9558
sI8
(dp9559
ssg23
(dp9560
sg25
(dp9561
I0
(dp9562
I2
(dp9563
sI4
(dp9564
sI5
(dp9565
sI6
(dp9566
sI7
(dp9567
sI8
(dp9568
ssI1
(dp9569
I8
(dp9570
sI3
(dp9571
sI5
(dp9572
sI6
(dp9573
sI7
(dp9574
ssI2
(dp9575
I0
g9563
sI8
(dp9576
sI4
(dp9577
sI5
(dp9578
sI6
(dp9579
ssI3
(dp9580
I1
g9571
sI6
(dp9581
sI7
(dp9582
ssI4
(dp9583
I0
g9564
sI8
(dp9584
sI2
g9577
sI7
(dp9585
ssI5
(dp9586
I0
g9565
sI1
g9572
sI2
g9578
sI6
(dp9587
sI7
(dp9588
sI8
(dp9589
ssI6
(dp9590
I0
g9566
sI1
g9573
sI2
g9579
sI3
g9581
sI5
g9587
sI7
(dp9591
sI8
(dp9592
ssI7
(dp9593
I0
g9567
sI1
g9574
sI3
g9582
sI4
g9585
sI5
g9588
sI6
g9591
sI8
(dp9594
ssI8
(dp9595
I0
g9568
sI1
g9570
sI2
g9576
sI4
g9584
sI5
g9589
sI6
g9592
sI7
g9594
sssg61
g8
sbag2
(g3
g4
NtRp9596
(dp9597
g7
g8
sg9
g8
sg10
g9596
sg11
g8
sg12
(dp9598
I0
(dp9599
sI1
(dp9600
sI2
(dp9601
sI3
(dp9602
sI4
(dp9603
sI5
(dp9604
sI6
(dp9605
sI7
(dp9606
sI8
(dp9607
ssg23
(dp9608
sg25
(dp9609
I0
(dp9610
I2
(dp9611
sI4
(dp9612
sI5
(dp9613
sI6
(dp9614
sI7
(dp9615
sI8
(dp9616
ssI1
(dp9617
I8
(dp9618
sI3
(dp9619
sI5
(dp9620
sI6
(dp9621
sI7
(dp9622
ssI2
(dp9623
I0
g9611
sI8
(dp9624
sI4
(dp9625
sI5
(dp9626
sI6
(dp9627
ssI3
(dp9628
I8
(dp9629
sI1
g9619
sI6
(dp9630
sI7
(dp9631
ssI4
(dp9632
I0
g9612
sI8
(dp9633
sI2
g9625
sI7
(dp9634
ssI5
(dp9635
I0
g9613
sI1
g9620
sI2
g9626
sI6
(dp9636
sI7
(dp9637
sI8
(dp9638
ssI6
(dp9639
I0
g9614
sI1
g9621
sI2
g9627
sI3
g9630
sI5
g9636
sI7
(dp9640
sI8
(dp9641
ssI7
(dp9642
I0
g9615
sI1
g9622
sI3
g9631
sI4
g9634
sI5
g9637
sI6
g9640
sI8
(dp9643
ssI8
(dp9644
I0
g9616
sI1
g9618
sI2
g9624
sI3
g9629
sI4
g9633
sI5
g9638
sI6
g9641
sI7
g9643
sssg61
g8
sbag2
(g3
g4
NtRp9645
(dp9646
g7
g8
sg9
g8
sg10
g9645
sg11
g8
sg12
(dp9647
I0
(dp9648
sI1
(dp9649
sI2
(dp9650
sI3
(dp9651
sI4
(dp9652
sI5
(dp9653
sI6
(dp9654
sI7
(dp9655
sI8
(dp9656
ssg23
(dp9657
sg25
(dp9658
I0
(dp9659
I2
(dp9660
sI4
(dp9661
sI5
(dp9662
sI6
(dp9663
sI7
(dp9664
sI8
(dp9665
ssI1
(dp9666
I8
(dp9667
sI3
(dp9668
sI5
(dp9669
sI6
(dp9670
sI7
(dp9671
ssI2
(dp9672
I0
g9660
sI4
(dp9673
sI5
(dp9674
sI6
(dp9675
sI7
(dp9676
sI8
(dp9677
ssI3
(dp9678
I8
(dp9679
sI1
g9668
sI6
(dp9680
sI7
(dp9681
ssI4
(dp9682
I0
g9661
sI8
(dp9683
sI2
g9673
sI6
(dp9684
sI7
(dp9685
ssI5
(dp9686
I0
g9662
sI1
g9669
sI2
g9674
sI8
(dp9687
ssI6
(dp9688
I0
g9663
sI1
g9670
sI2
g9675
sI3
g9680
sI4
g9684
sI7
(dp9689
sI8
(dp9690
ssI7
(dp9691
I0
g9664
sI1
g9671
sI2
g9676
sI3
g9681
sI4
g9685
sI6
g9689
sI8
(dp9692
ssI8
(dp9693
I0
g9665
sI1
g9667
sI2
g9677
sI3
g9679
sI4
g9683
sI5
g9687
sI6
g9690
sI7
g9692
sssg61
g8
sbag2
(g3
g4
NtRp9694
(dp9695
g7
g8
sg9
g8
sg10
g9694
sg11
g8
sg12
(dp9696
I0
(dp9697
sI1
(dp9698
sI2
(dp9699
sI3
(dp9700
sI4
(dp9701
sI5
(dp9702
sI6
(dp9703
sI7
(dp9704
sI8
(dp9705
ssg23
(dp9706
sg25
(dp9707
I0
(dp9708
I2
(dp9709
sI4
(dp9710
sI5
(dp9711
sI6
(dp9712
sI7
(dp9713
sI8
(dp9714
ssI1
(dp9715
I8
(dp9716
sI3
(dp9717
sI5
(dp9718
sI6
(dp9719
sI7
(dp9720
ssI2
(dp9721
I0
g9709
sI4
(dp9722
sI5
(dp9723
sI6
(dp9724
sI7
(dp9725
sI8
(dp9726
ssI3
(dp9727
I8
(dp9728
sI1
g9717
sI7
(dp9729
ssI4
(dp9730
I0
g9710
sI8
(dp9731
sI2
g9722
sI5
(dp9732
sI6
(dp9733
ssI5
(dp9734
I0
g9711
sI1
g9718
sI2
g9723
sI4
g9732
sI7
(dp9735
sI8
(dp9736
ssI6
(dp9737
I0
g9712
sI1
g9719
sI2
g9724
sI4
g9733
sI7
(dp9738
sI8
(dp9739
ssI7
(dp9740
I0
g9713
sI1
g9720
sI2
g9725
sI3
g9729
sI5
g9735
sI6
g9738
sI8
(dp9741
ssI8
(dp9742
I0
g9714
sI1
g9716
sI2
g9726
sI3
g9728
sI4
g9731
sI5
g9736
sI6
g9739
sI7
g9741
sssg61
g8
sbag2
(g3
g4
NtRp9743
(dp9744
g7
g8
sg9
g8
sg10
g9743
sg11
g8
sg12
(dp9745
I0
(dp9746
sI1
(dp9747
sI2
(dp9748
sI3
(dp9749
sI4
(dp9750
sI5
(dp9751
sI6
(dp9752
sI7
(dp9753
sI8
(dp9754
ssg23
(dp9755
sg25
(dp9756
I0
(dp9757
I2
(dp9758
sI4
(dp9759
sI5
(dp9760
sI6
(dp9761
sI7
(dp9762
sI8
(dp9763
ssI1
(dp9764
I8
(dp9765
sI3
(dp9766
sI5
(dp9767
sI6
(dp9768
sI7
(dp9769
ssI2
(dp9770
I0
g9758
sI4
(dp9771
sI5
(dp9772
sI6
(dp9773
sI7
(dp9774
sI8
(dp9775
ssI3
(dp9776
I8
(dp9777
sI1
g9766
sI7
(dp9778
ssI4
(dp9779
I0
g9759
sI2
g9771
sI5
(dp9780
sI6
(dp9781
sI7
(dp9782
sI8
(dp9783
ssI5
(dp9784
I0
g9760
sI1
g9767
sI2
g9772
sI4
g9780
sI7
(dp9785
sI8
(dp9786
ssI6
(dp9787
I0
g9761
sI1
g9768
sI2
g9773
sI4
g9781
sI8
(dp9788
ssI7
(dp9789
I0
g9762
sI1
g9769
sI2
g9774
sI3
g9778
sI4
g9782
sI5
g9785
sI8
(dp9790
ssI8
(dp9791
I0
g9763
sI1
g9765
sI2
g9775
sI3
g9777
sI4
g9783
sI5
g9786
sI6
g9788
sI7
g9790
sssg61
g8
sbag2
(g3
g4
NtRp9792
(dp9793
g7
g8
sg9
g8
sg10
g9792
sg11
g8
sg12
(dp9794
I0
(dp9795
sI1
(dp9796
sI2
(dp9797
sI3
(dp9798
sI4
(dp9799
sI5
(dp9800
sI6
(dp9801
sI7
(dp9802
sI8
(dp9803
ssg23
(dp9804
sg25
(dp9805
I0
(dp9806
I2
(dp9807
sI4
(dp9808
sI5
(dp9809
sI6
(dp9810
sI7
(dp9811
sI8
(dp9812
ssI1
(dp9813
I8
(dp9814
sI3
(dp9815
sI5
(dp9816
sI6
(dp9817
sI7
(dp9818
ssI2
(dp9819
I0
g9807
sI4
(dp9820
sI5
(dp9821
sI6
(dp9822
sI7
(dp9823
sI8
(dp9824
ssI3
(dp9825
I8
(dp9826
sI1
g9815
sI6
(dp9827
sI7
(dp9828
ssI4
(dp9829
I0
g9808
sI2
g9820
sI5
(dp9830
sI6
(dp9831
sI7
(dp9832
sI8
(dp9833
ssI5
(dp9834
I0
g9809
sI1
g9816
sI2
g9821
sI4
g9830
sI8
(dp9835
ssI6
(dp9836
I0
g9810
sI1
g9817
sI2
g9822
sI3
g9827
sI4
g9831
sI7
(dp9837
sI8
(dp9838
ssI7
(dp9839
I0
g9811
sI1
g9818
sI2
g9823
sI3
g9828
sI4
g9832
sI6
g9837
sI8
(dp9840
ssI8
(dp9841
I0
g9812
sI1
g9814
sI2
g9824
sI3
g9826
sI4
g9833
sI5
g9835
sI6
g9838
sI7
g9840
sssg61
g8
sbag2
(g3
g4
NtRp9842
(dp9843
g7
g8
sg9
g8
sg10
g9842
sg11
g8
sg12
(dp9844
I0
(dp9845
sI1
(dp9846
sI2
(dp9847
sI3
(dp9848
sI4
(dp9849
sI5
(dp9850
sI6
(dp9851
sI7
(dp9852
sI8
(dp9853
ssg23
(dp9854
sg25
(dp9855
I0
(dp9856
I2
(dp9857
sI4
(dp9858
sI5
(dp9859
sI6
(dp9860
sI7
(dp9861
sI8
(dp9862
ssI1
(dp9863
I3
(dp9864
sI5
(dp9865
sI6
(dp9866
sI7
(dp9867
ssI2
(dp9868
I0
g9857
sI8
(dp9869
sI4
(dp9870
sI5
(dp9871
sI7
(dp9872
ssI3
(dp9873
I8
(dp9874
sI1
g9864
sI5
(dp9875
sI6
(dp9876
ssI4
(dp9877
I0
g9858
sI8
(dp9878
sI2
g9870
sI6
(dp9879
sI7
(dp9880
ssI5
(dp9881
I0
g9859
sI1
g9865
sI2
g9871
sI3
g9875
sI6
(dp9882
sI7
(dp9883
sI8
(dp9884
ssI6
(dp9885
I0
g9860
sI1
g9866
sI3
g9876
sI4
g9879
sI5
g9882
sI7
(dp9886
sI8
(dp9887
ssI7
(dp9888
I0
g9861
sI1
g9867
sI2
g9872
sI4
g9880
sI5
g9883
sI6
g9886
sI8
(dp9889
ssI8
(dp9890
I0
g9862
sI2
g9869
sI3
g9874
sI4
g9878
sI5
g9884
sI6
g9887
sI7
g9889
sssg61
g8
sbag2
(g3
g4
NtRp9891
(dp9892
g7
g8
sg9
g8
sg10
g9891
sg11
g8
sg12
(dp9893
I0
(dp9894
sI1
(dp9895
sI2
(dp9896
sI3
(dp9897
sI4
(dp9898
sI5
(dp9899
sI6
(dp9900
sI7
(dp9901
sI8
(dp9902
ssg23
(dp9903
sg25
(dp9904
I0
(dp9905
I2
(dp9906
sI4
(dp9907
sI5
(dp9908
sI6
(dp9909
sI7
(dp9910
sI8
(dp9911
ssI1
(dp9912
I8
(dp9913
sI3
(dp9914
sI5
(dp9915
sI6
(dp9916
sI7
(dp9917
ssI2
(dp9918
I0
g9906
sI4
(dp9919
sI5
(dp9920
sI6
(dp9921
sI7
(dp9922
sI8
(dp9923
ssI3
(dp9924
I8
(dp9925
sI1
g9914
sI5
(dp9926
sI7
(dp9927
ssI4
(dp9928
I0
g9907
sI8
(dp9929
sI2
g9919
sI6
(dp9930
sI7
(dp9931
ssI5
(dp9932
I0
g9908
sI1
g9915
sI2
g9920
sI3
g9926
sI6
(dp9933
sI8
(dp9934
ssI6
(dp9935
I0
g9909
sI1
g9916
sI2
g9921
sI4
g9930
sI5
g9933
sI7
(dp9936
sI8
(dp9937
ssI7
(dp9938
I0
g9910
sI1
g9917
sI2
g9922
sI3
g9927
sI4
g9931
sI6
g9936
sI8
(dp9939
ssI8
(dp9940
I0
g9911
sI1
g9913
sI2
g9923
sI3
g9925
sI4
g9929
sI5
g9934
sI6
g9937
sI7
g9939
sssg61
g8
sbag2
(g3
g4
NtRp9941
(dp9942
g7
g8
sg9
g8
sg10
g9941
sg11
g8
sg12
(dp9943
I0
(dp9944
sI1
(dp9945
sI2
(dp9946
sI3
(dp9947
sI4
(dp9948
sI5
(dp9949
sI6
(dp9950
sI7
(dp9951
sI8
(dp9952
ssg23
(dp9953
sg25
(dp9954
I0
(dp9955
I2
(dp9956
sI4
(dp9957
sI5
(dp9958
sI6
(dp9959
sI7
(dp9960
sI8
(dp9961
ssI1
(dp9962
I8
(dp9963
sI3
(dp9964
sI5
(dp9965
sI6
(dp9966
sI7
(dp9967
ssI2
(dp9968
I0
g9956
sI4
(dp9969
sI5
(dp9970
sI6
(dp9971
sI7
(dp9972
sI8
(dp9973
ssI3
(dp9974
I8
(dp9975
sI1
g9964
sI5
(dp9976
sI6
(dp9977
ssI4
(dp9978
I0
g9957
sI8
(dp9979
sI2
g9969
sI7
(dp9980
ssI5
(dp9981
I0
g9958
sI1
g9965
sI2
g9970
sI3
g9976
sI7
(dp9982
sI8
(dp9983
ssI6
(dp9984
I0
g9959
sI1
g9966
sI2
g9971
sI3
g9977
sI7
(dp9985
sI8
(dp9986
ssI7
(dp9987
I0
g9960
sI1
g9967
sI2
g9972
sI4
g9980
sI5
g9982
sI6
g9985
sI8
(dp9988
ssI8
(dp9989
I0
g9961
sI1
g9963
sI2
g9973
sI3
g9975
sI4
g9979
sI5
g9983
sI6
g9986
sI7
g9988
sssg61
g8
sbag2
(g3
g4
NtRp9990
(dp9991
g7
g8
sg9
g8
sg10
g9990
sg11
g8
sg12
(dp9992
I0
(dp9993
sI1
(dp9994
sI2
(dp9995
sI3
(dp9996
sI4
(dp9997
sI5
(dp9998
sI6
(dp9999
sI7
(dp10000
sI8
(dp10001
ssg23
(dp10002
sg25
(dp10003
I0
(dp10004
I2
(dp10005
sI4
(dp10006
sI5
(dp10007
sI6
(dp10008
sI7
(dp10009
sI8
(dp10010
ssI1
(dp10011
I8
(dp10012
sI3
(dp10013
sI5
(dp10014
sI6
(dp10015
sI7
(dp10016
ssI2
(dp10017
I0
g10005
sI4
(dp10018
sI5
(dp10019
sI6
(dp10020
sI7
(dp10021
sI8
(dp10022
ssI3
(dp10023
I8
(dp10024
sI1
g10013
sI5
(dp10025
sI6
(dp10026
sI7
(dp10027
ssI4
(dp10028
I0
g10006
sI8
(dp10029
sI2
g10018
ssI5
(dp10030
I0
g10007
sI1
g10014
sI2
g10019
sI3
g10025
sI7
(dp10031
sI8
(dp10032
ssI6
(dp10033
I0
g10008
sI1
g10015
sI2
g10020
sI3
g10026
sI7
(dp10034
sI8
(dp10035
ssI7
(dp10036
I0
g10009
sI1
g10016
sI2
g10021
sI3
g10027
sI5
g10031
sI6
g10034
sI8
(dp10037
ssI8
(dp10038
I0
g10010
sI1
g10012
sI2
g10022
sI3
g10024
sI4
g10029
sI5
g10032
sI6
g10035
sI7
g10037
sssg61
g8
sbag2
(g3
g4
NtRp10039
(dp10040
g7
g8
sg9
g8
sg10
g10039
sg11
g8
sg12
(dp10041
I0
(dp10042
sI1
(dp10043
sI2
(dp10044
sI3
(dp10045
sI4
(dp10046
sI5
(dp10047
sI6
(dp10048
sI7
(dp10049
sI8
(dp10050
ssg23
(dp10051
sg25
(dp10052
I0
(dp10053
I2
(dp10054
sI4
(dp10055
sI5
(dp10056
sI6
(dp10057
sI7
(dp10058
sI8
(dp10059
ssI1
(dp10060
I8
(dp10061
sI3
(dp10062
sI5
(dp10063
sI6
(dp10064
sI7
(dp10065
ssI2
(dp10066
I0
g10054
sI8
(dp10067
sI4
(dp10068
sI5
(dp10069
sI6
(dp10070
ssI3
(dp10071
I1
g10062
sI5
(dp10072
sI6
(dp10073
sI7
(dp10074
ssI4
(dp10075
I0
g10055
sI8
(dp10076
sI2
g10068
sI7
(dp10077
ssI5
(dp10078
I0
g10056
sI1
g10063
sI2
g10069
sI3
g10072
sI6
(dp10079
sI7
(dp10080
sI8
(dp10081
ssI6
(dp10082
I0
g10057
sI1
g10064
sI2
g10070
sI3
g10073
sI5
g10079
sI7
(dp10083
sI8
(dp10084
ssI7
(dp10085
I0
g10058
sI1
g10065
sI3
g10074
sI4
g10077
sI5
g10080
sI6
g10083
sI8
(dp10086
ssI8
(dp10087
I0
g10059
sI1
g10061
sI2
g10067
sI4
g10076
sI5
g10081
sI6
g10084
sI7
g10086
sssg61
g8
sbag2
(g3
g4
NtRp10088
(dp10089
g7
g8
sg9
g8
sg10
g10088
sg11
g8
sg12
(dp10090
I0
(dp10091
sI1
(dp10092
sI2
(dp10093
sI3
(dp10094
sI4
(dp10095
sI5
(dp10096
sI6
(dp10097
sI7
(dp10098
sI8
(dp10099
ssg23
(dp10100
sg25
(dp10101
I0
(dp10102
I2
(dp10103
sI4
(dp10104
sI5
(dp10105
sI6
(dp10106
sI7
(dp10107
sI8
(dp10108
ssI1
(dp10109
I8
(dp10110
sI3
(dp10111
sI4
(dp10112
sI6
(dp10113
sI7
(dp10114
ssI2
(dp10115
I0
g10103
sI8
(dp10116
sI4
(dp10117
sI5
(dp10118
sI7
(dp10119
ssI3
(dp10120
I8
(dp10121
sI1
g10111
sI5
(dp10122
sI6
(dp10123
sI7
(dp10124
ssI4
(dp10125
I0
g10104
sI1
g10112
sI2
g10117
sI6
(dp10126
sI7
(dp10127
sI8
(dp10128
ssI5
(dp10129
I0
g10105
sI8
(dp10130
sI2
g10118
sI3
g10122
sI7
(dp10131
ssI6
(dp10132
I0
g10106
sI1
g10113
sI3
g10123
sI4
g10126
sI7
(dp10133
sI8
(dp10134
ssI7
(dp10135
I0
g10107
sI1
g10114
sI2
g10119
sI3
g10124
sI4
g10127
sI5
g10131
sI6
g10133
sI8
(dp10136
ssI8
(dp10137
I0
g10108
sI1
g10110
sI2
g10116
sI3
g10121
sI4
g10128
sI5
g10130
sI6
g10134
sI7
g10136
sssg61
g8
sbag2
(g3
g4
NtRp10138
(dp10139
g7
g8
sg9
g8
sg10
g10138
sg11
g8
sg12
(dp10140
I0
(dp10141
sI1
(dp10142
sI2
(dp10143
sI3
(dp10144
sI4
(dp10145
sI5
(dp10146
sI6
(dp10147
sI7
(dp10148
sI8
(dp10149
ssg23
(dp10150
sg25
(dp10151
I0
(dp10152
I8
(dp10153
sI2
(dp10154
sI4
(dp10155
sI5
(dp10156
sI6
(dp10157
ssI1
(dp10158
I8
(dp10159
sI3
(dp10160
sI4
(dp10161
sI6
(dp10162
sI7
(dp10163
ssI2
(dp10164
I0
g10154
sI8
(dp10165
sI4
(dp10166
sI5
(dp10167
sI7
(dp10168
ssI3
(dp10169
I8
(dp10170
sI1
g10160
sI5
(dp10171
sI6
(dp10172
sI7
(dp10173
ssI4
(dp10174
I0
g10155
sI1
g10161
sI2
g10166
sI6
(dp10175
sI7
(dp10176
sI8
(dp10177
ssI5
(dp10178
I0
g10156
sI2
g10167
sI3
g10171
sI6
(dp10179
sI7
(dp10180
sI8
(dp10181
ssI6
(dp10182
I0
g10157
sI1
g10162
sI3
g10172
sI4
g10175
sI5
g10179
sI7
(dp10183
sI8
(dp10184
ssI7
(dp10185
I1
g10163
sI2
g10168
sI3
g10173
sI4
g10176
sI5
g10180
sI6
g10183
sI8
(dp10186
ssI8
(dp10187
I0
g10153
sI1
g10159
sI2
g10165
sI3
g10170
sI4
g10177
sI5
g10181
sI6
g10184
sI7
g10186
sssg61
g8
sbag2
(g3
g4
NtRp10188
(dp10189
g7
g8
sg9
g8
sg10
g10188
sg11
g8
sg12
(dp10190
I0
(dp10191
sI1
(dp10192
sI2
(dp10193
sI3
(dp10194
sI4
(dp10195
sI5
(dp10196
sI6
(dp10197
sI7
(dp10198
sI8
(dp10199
ssg23
(dp10200
sg25
(dp10201
I0
(dp10202
I2
(dp10203
sI4
(dp10204
sI5
(dp10205
sI6
(dp10206
sI7
(dp10207
sI8
(dp10208
ssI1
(dp10209
I8
(dp10210
sI3
(dp10211
sI4
(dp10212
sI6
(dp10213
sI7
(dp10214
ssI2
(dp10215
I0
g10203
sI8
(dp10216
sI4
(dp10217
sI5
(dp10218
ssI3
(dp10219
I8
(dp10220
sI1
g10211
sI5
(dp10221
sI6
(dp10222
sI7
(dp10223
ssI4
(dp10224
I0
g10204
sI1
g10212
sI2
g10217
sI6
(dp10225
sI7
(dp10226
sI8
(dp10227
ssI5
(dp10228
I0
g10205
sI2
g10218
sI3
g10221
sI6
(dp10229
sI7
(dp10230
sI8
(dp10231
ssI6
(dp10232
I0
g10206
sI1
g10213
sI3
g10222
sI4
g10225
sI5
g10229
sI7
(dp10233
sI8
(dp10234
ssI7
(dp10235
I0
g10207
sI1
g10214
sI3
g10223
sI4
g10226
sI5
g10230
sI6
g10233
sI8
(dp10236
ssI8
(dp10237
I0
g10208
sI1
g10210
sI2
g10216
sI3
g10220
sI4
g10227
sI5
g10231
sI6
g10234
sI7
g10236
sssg61
g8
sbag2
(g3
g4
NtRp10238
(dp10239
g7
g8
sg9
g8
sg10
g10238
sg11
g8
sg12
(dp10240
I0
(dp10241
sI1
(dp10242
sI2
(dp10243
sI3
(dp10244
sI4
(dp10245
sI5
(dp10246
sI6
(dp10247
sI7
(dp10248
sI8
(dp10249
ssg23
(dp10250
sg25
(dp10251
I0
(dp10252
I2
(dp10253
sI4
(dp10254
sI5
(dp10255
sI6
(dp10256
sI7
(dp10257
sI8
(dp10258
ssI1
(dp10259
I8
(dp10260
sI3
(dp10261
sI4
(dp10262
sI6
(dp10263
sI7
(dp10264
ssI2
(dp10265
I0
g10253
sI8
(dp10266
sI4
(dp10267
sI5
(dp10268
sI7
(dp10269
ssI3
(dp10270
I8
(dp10271
sI1
g10261
sI5
(dp10272
sI6
(dp10273
ssI4
(dp10274
I0
g10254
sI1
g10262
sI2
g10267
sI6
(dp10275
sI7
(dp10276
sI8
(dp10277
ssI5
(dp10278
I0
g10255
sI2
g10268
sI3
g10272
sI6
(dp10279
sI7
(dp10280
sI8
(dp10281
ssI6
(dp10282
I0
g10256
sI1
g10263
sI3
g10273
sI4
g10275
sI5
g10279
sI7
(dp10283
sI8
(dp10284
ssI7
(dp10285
I0
g10257
sI1
g10264
sI2
g10269
sI4
g10276
sI5
g10280
sI6
g10283
sI8
(dp10286
ssI8
(dp10287
I0
g10258
sI1
g10260
sI2
g10266
sI3
g10271
sI4
g10277
sI5
g10281
sI6
g10284
sI7
g10286
sssg61
g8
sbag2
(g3
g4
NtRp10288
(dp10289
g7
g8
sg9
g8
sg10
g10288
sg11
g8
sg12
(dp10290
I0
(dp10291
sI1
(dp10292
sI2
(dp10293
sI3
(dp10294
sI4
(dp10295
sI5
(dp10296
sI6
(dp10297
sI7
(dp10298
sI8
(dp10299
ssg23
(dp10300
sg25
(dp10301
I0
(dp10302
I2
(dp10303
sI4
(dp10304
sI5
(dp10305
sI6
(dp10306
sI7
(dp10307
sI8
(dp10308
ssI1
(dp10309
I8
(dp10310
sI3
(dp10311
sI4
(dp10312
sI6
(dp10313
sI7
(dp10314
ssI2
(dp10315
I0
g10303
sI8
(dp10316
sI4
(dp10317
sI5
(dp10318
sI7
(dp10319
ssI3
(dp10320
I8
(dp10321
sI1
g10311
sI5
(dp10322
sI6
(dp10323
sI7
(dp10324
ssI4
(dp10325
I0
g10304
sI1
g10312
sI2
g10317
sI6
(dp10326
sI7
(dp10327
sI8
(dp10328
ssI5
(dp10329
I0
g10305
sI8
(dp10330
sI2
g10318
sI3
g10322
sI6
(dp10331
ssI6
(dp10332
I0
g10306
sI1
g10313
sI3
g10323
sI4
g10326
sI5
g10331
sI7
(dp10333
sI8
(dp10334
ssI7
(dp10335
I0
g10307
sI1
g10314
sI2
g10319
sI3
g10324
sI4
g10327
sI6
g10333
sI8
(dp10336
ssI8
(dp10337
I0
g10308
sI1
g10310
sI2
g10316
sI3
g10321
sI4
g10328
sI5
g10330
sI6
g10334
sI7
g10336
sssg61
g8
sbag2
(g3
g4
NtRp10338
(dp10339
g7
g8
sg9
g8
sg10
g10338
sg11
g8
sg12
(dp10340
I0
(dp10341
sI1
(dp10342
sI2
(dp10343
sI3
(dp10344
sI4
(dp10345
sI5
(dp10346
sI6
(dp10347
sI7
(dp10348
sI8
(dp10349
ssg23
(dp10350
sg25
(dp10351
I0
(dp10352
I2
(dp10353
sI4
(dp10354
sI5
(dp10355
sI6
(dp10356
sI7
(dp10357
sI8
(dp10358
ssI1
(dp10359
I8
(dp10360
sI3
(dp10361
sI4
(dp10362
sI6
(dp10363
sI7
(dp10364
ssI2
(dp10365
I0
g10353
sI4
(dp10366
sI5
(dp10367
sI6
(dp10368
sI7
(dp10369
sI8
(dp10370
ssI3
(dp10371
I8
(dp10372
sI1
g10361
sI5
(dp10373
sI6
(dp10374
sI7
(dp10375
ssI4
(dp10376
I0
g10354
sI1
g10362
sI2
g10366
sI8
(dp10377
sI7
(dp10378
ssI5
(dp10379
I0
g10355
sI8
(dp10380
sI2
g10367
sI3
g10373
sI7
(dp10381
ssI6
(dp10382
I0
g10356
sI1
g10363
sI2
g10368
sI3
g10374
sI7
(dp10383
sI8
(dp10384
ssI7
(dp10385
I0
g10357
sI1
g10364
sI2
g10369
sI3
g10375
sI4
g10378
sI5
g10381
sI6
g10383
sI8
(dp10386
ssI8
(dp10387
I0
g10358
sI1
g10360
sI2
g10370
sI3
g10372
sI4
g10377
sI5
g10380
sI6
g10384
sI7
g10386
sssg61
g8
sbag2
(g3
g4
NtRp10388
(dp10389
g7
g8
sg9
g8
sg10
g10388
sg11
g8
sg12
(dp10390
I0
(dp10391
sI1
(dp10392
sI2
(dp10393
sI3
(dp10394
sI4
(dp10395
sI5
(dp10396
sI6
(dp10397
sI7
(dp10398
sI8
(dp10399
ssg23
(dp10400
sg25
(dp10401
I0
(dp10402
I2
(dp10403
sI4
(dp10404
sI5
(dp10405
sI6
(dp10406
sI7
(dp10407
sI8
(dp10408
ssI1
(dp10409
I8
(dp10410
sI3
(dp10411
sI4
(dp10412
sI6
(dp10413
sI7
(dp10414
ssI2
(dp10415
I0
g10403
sI4
(dp10416
sI5
(dp10417
sI6
(dp10418
sI7
(dp10419
sI8
(dp10420
ssI3
(dp10421
I8
(dp10422
sI1
g10411
sI5
(dp10423
sI6
(dp10424
sI7
(dp10425
ssI4
(dp10426
I0
g10404
sI1
g10412
sI2
g10416
sI6
(dp10427
sI8
(dp10428
ssI5
(dp10429
I0
g10405
sI8
(dp10430
sI2
g10417
sI3
g10423
sI7
(dp10431
ssI6
(dp10432
I0
g10406
sI1
g10413
sI2
g10418
sI3
g10424
sI4
g10427
sI7
(dp10433
sI8
(dp10434
ssI7
(dp10435
I0
g10407
sI1
g10414
sI2
g10419
sI3
g10425
sI5
g10431
sI6
g10433
sI8
(dp10436
ssI8
(dp10437
I0
g10408
sI1
g10410
sI2
g10420
sI3
g10422
sI4
g10428
sI5
g10430
sI6
g10434
sI7
g10436
sssg61
g8
sbag2
(g3
g4
NtRp10438
(dp10439
g7
g8
sg9
g8
sg10
g10438
sg11
g8
sg12
(dp10440
I0
(dp10441
sI1
(dp10442
sI2
(dp10443
sI3
(dp10444
sI4
(dp10445
sI5
(dp10446
sI6
(dp10447
sI7
(dp10448
sI8
(dp10449
ssg23
(dp10450
sg25
(dp10451
I0
(dp10452
I8
(dp10453
sI2
(dp10454
sI4
(dp10455
sI5
(dp10456
sI6
(dp10457
ssI1
(dp10458
I8
(dp10459
sI3
(dp10460
sI4
(dp10461
sI6
(dp10462
sI7
(dp10463
ssI2
(dp10464
I0
g10454
sI8
(dp10465
sI4
(dp10466
sI5
(dp10467
sI7
(dp10468
ssI3
(dp10469
I1
g10460
sI5
(dp10470
sI6
(dp10471
sI7
(dp10472
ssI4
(dp10473
I0
g10455
sI1
g10461
sI2
g10466
sI5
(dp10474
sI6
(dp10475
sI7
(dp10476
sI8
(dp10477
ssI5
(dp10478
I0
g10456
sI2
g10467
sI3
g10470
sI4
g10474
sI6
(dp10479
sI7
(dp10480
sI8
(dp10481
ssI6
(dp10482
I0
g10457
sI1
g10462
sI3
g10471
sI4
g10475
sI5
g10479
sI7
(dp10483
sI8
(dp10484
ssI7
(dp10485
I1
g10463
sI2
g10468
sI3
g10472
sI4
g10476
sI5
g10480
sI6
g10483
sI8
(dp10486
ssI8
(dp10487
I0
g10453
sI1
g10459
sI2
g10465
sI4
g10477
sI5
g10481
sI6
g10484
sI7
g10486
sssg61
g8
sbag2
(g3
g4
NtRp10488
(dp10489
g7
g8
sg9
g8
sg10
g10488
sg11
g8
sg12
(dp10490
I0
(dp10491
sI1
(dp10492
sI2
(dp10493
sI3
(dp10494
sI4
(dp10495
sI5
(dp10496
sI6
(dp10497
sI7
(dp10498
sI8
(dp10499
ssg23
(dp10500
sg25
(dp10501
I0
(dp10502
I2
(dp10503
sI4
(dp10504
sI5
(dp10505
sI6
(dp10506
sI7
(dp10507
sI8
(dp10508
ssI1
(dp10509
I8
(dp10510
sI3
(dp10511
sI4
(dp10512
sI5
(dp10513
sI7
(dp10514
ssI2
(dp10515
I0
g10503
sI8
(dp10516
sI4
(dp10517
sI6
(dp10518
sI7
(dp10519
ssI3
(dp10520
I8
(dp10521
sI1
g10511
sI5
(dp10522
sI6
(dp10523
sI7
(dp10524
ssI4
(dp10525
I0
g10504
sI1
g10512
sI2
g10517
sI6
(dp10526
sI7
(dp10527
sI8
(dp10528
ssI5
(dp10529
I0
g10505
sI1
g10513
sI3
g10522
sI8
(dp10530
sI7
(dp10531
ssI6
(dp10532
I0
g10506
sI2
g10518
sI3
g10523
sI4
g10526
sI7
(dp10533
sI8
(dp10534
ssI7
(dp10535
I0
g10507
sI1
g10514
sI2
g10519
sI3
g10524
sI4
g10527
sI5
g10531
sI6
g10533
sI8
(dp10536
ssI8
(dp10537
I0
g10508
sI1
g10510
sI2
g10516
sI3
g10521
sI4
g10528
sI5
g10530
sI6
g10534
sI7
g10536
sssg61
g8
sbag2
(g3
g4
NtRp10538
(dp10539
g7
g8
sg9
g8
sg10
g10538
sg11
g8
sg12
(dp10540
I0
(dp10541
sI1
(dp10542
sI2
(dp10543
sI3
(dp10544
sI4
(dp10545
sI5
(dp10546
sI6
(dp10547
sI7
(dp10548
sI8
(dp10549
ssg23
(dp10550
sg25
(dp10551
I0
(dp10552
I8
(dp10553
sI2
(dp10554
sI4
(dp10555
sI5
(dp10556
sI6
(dp10557
ssI1
(dp10558
I3
(dp10559
sI4
(dp10560
sI5
(dp10561
sI6
(dp10562
sI7
(dp10563
sI8
(dp10564
ssI2
(dp10565
I0
g10554
sI8
(dp10566
sI4
(dp10567
sI6
(dp10568
sI7
(dp10569
ssI3
(dp10570
I8
(dp10571
sI1
g10559
sI5
(dp10572
sI6
(dp10573
sI7
(dp10574
ssI4
(dp10575
I0
g10555
sI1
g10560
sI2
g10567
sI6
(dp10576
sI7
(dp10577
sI8
(dp10578
ssI5
(dp10579
I0
g10556
sI1
g10561
sI3
g10572
sI8
(dp10580
sI7
(dp10581
ssI6
(dp10582
I0
g10557
sI1
g10562
sI2
g10568
sI3
g10573
sI4
g10576
sI7
(dp10583
sI8
(dp10584
ssI7
(dp10585
I1
g10563
sI2
g10569
sI3
g10574
sI4
g10577
sI5
g10581
sI6
g10583
sI8
(dp10586
ssI8
(dp10587
I0
g10553
sI1
g10564
sI2
g10566
sI3
g10571
sI4
g10578
sI5
g10580
sI6
g10584
sI7
g10586
sssg61
g8
sbag2
(g3
g4
NtRp10588
(dp10589
g7
g8
sg9
g8
sg10
g10588
sg11
g8
sg12
(dp10590
I0
(dp10591
sI1
(dp10592
sI2
(dp10593
sI3
(dp10594
sI4
(dp10595
sI5
(dp10596
sI6
(dp10597
sI7
(dp10598
sI8
(dp10599
ssg23
(dp10600
sg25
(dp10601
I0
(dp10602
I2
(dp10603
sI4
(dp10604
sI5
(dp10605
sI6
(dp10606
sI7
(dp10607
sI8
(dp10608
ssI1
(dp10609
I8
(dp10610
sI3
(dp10611
sI4
(dp10612
sI5
(dp10613
sI6
(dp10614
ssI2
(dp10615
I0
g10603
sI8
(dp10616
sI4
(dp10617
sI6
(dp10618
sI7
(dp10619
ssI3
(dp10620
I8
(dp10621
sI1
g10611
sI5
(dp10622
sI6
(dp10623
sI7
(dp10624
ssI4
(dp10625
I0
g10604
sI1
g10612
sI2
g10617
sI6
(dp10626
sI7
(dp10627
sI8
(dp10628
ssI5
(dp10629
I0
g10605
sI1
g10613
sI3
g10622
sI8
(dp10630
sI7
(dp10631
ssI6
(dp10632
I0
g10606
sI1
g10614
sI2
g10618
sI3
g10623
sI4
g10626
sI7
(dp10633
sI8
(dp10634
ssI7
(dp10635
I0
g10607
sI2
g10619
sI3
g10624
sI4
g10627
sI5
g10631
sI6
g10633
sI8
(dp10636
ssI8
(dp10637
I0
g10608
sI1
g10610
sI2
g10616
sI3
g10621
sI4
g10628
sI5
g10630
sI6
g10634
sI7
g10636
sssg61
g8
sbag2
(g3
g4
NtRp10638
(dp10639
g7
g8
sg9
g8
sg10
g10638
sg11
g8
sg12
(dp10640
I0
(dp10641
sI1
(dp10642
sI2
(dp10643
sI3
(dp10644
sI4
(dp10645
sI5
(dp10646
sI6
(dp10647
sI7
(dp10648
sI8
(dp10649
ssg23
(dp10650
sg25
(dp10651
I0
(dp10652
I2
(dp10653
sI4
(dp10654
sI5
(dp10655
sI6
(dp10656
sI7
(dp10657
sI8
(dp10658
ssI1
(dp10659
I3
(dp10660
sI4
(dp10661
sI5
(dp10662
sI6
(dp10663
sI7
(dp10664
sI8
(dp10665
ssI2
(dp10666
I0
g10653
sI8
(dp10667
sI4
(dp10668
sI6
(dp10669
ssI3
(dp10670
I8
(dp10671
sI1
g10660
sI5
(dp10672
sI6
(dp10673
sI7
(dp10674
ssI4
(dp10675
I0
g10654
sI1
g10661
sI2
g10668
sI6
(dp10676
sI7
(dp10677
sI8
(dp10678
ssI5
(dp10679
I0
g10655
sI1
g10662
sI3
g10672
sI8
(dp10680
sI7
(dp10681
ssI6
(dp10682
I0
g10656
sI1
g10663
sI2
g10669
sI3
g10673
sI4
g10676
sI7
(dp10683
sI8
(dp10684
ssI7
(dp10685
I0
g10657
sI1
g10664
sI3
g10674
sI4
g10677
sI5
g10681
sI6
g10683
sI8
(dp10686
ssI8
(dp10687
I0
g10658
sI1
g10665
sI2
g10667
sI3
g10671
sI4
g10678
sI5
g10680
sI6
g10684
sI7
g10686
sssg61
g8
sbag2
(g3
g4
NtRp10688
(dp10689
g7
g8
sg9
g8
sg10
g10688
sg11
g8
sg12
(dp10690
I0
(dp10691
sI1
(dp10692
sI2
(dp10693
sI3
(dp10694
sI4
(dp10695
sI5
(dp10696
sI6
(dp10697
sI7
(dp10698
sI8
(dp10699
ssg23
(dp10700
sg25
(dp10701
I0
(dp10702
I2
(dp10703
sI4
(dp10704
sI5
(dp10705
sI6
(dp10706
sI7
(dp10707
sI8
(dp10708
ssI1
(dp10709
I3
(dp10710
sI4
(dp10711
sI5
(dp10712
sI6
(dp10713
sI7
(dp10714
sI8
(dp10715
ssI2
(dp10716
I0
g10703
sI8
(dp10717
sI4
(dp10718
sI6
(dp10719
sI7
(dp10720
ssI3
(dp10721
I8
(dp10722
sI1
g10710
sI5
(dp10723
sI6
(dp10724
ssI4
(dp10725
I0
g10704
sI1
g10711
sI2
g10718
sI6
(dp10726
sI7
(dp10727
sI8
(dp10728
ssI5
(dp10729
I0
g10705
sI1
g10712
sI3
g10723
sI8
(dp10730
sI7
(dp10731
ssI6
(dp10732
I0
g10706
sI1
g10713
sI2
g10719
sI3
g10724
sI4
g10726
sI7
(dp10733
sI8
(dp10734
ssI7
(dp10735
I0
g10707
sI1
g10714
sI2
g10720
sI4
g10727
sI5
g10731
sI6
g10733
sI8
(dp10736
ssI8
(dp10737
I0
g10708
sI1
g10715
sI2
g10717
sI3
g10722
sI4
g10728
sI5
g10730
sI6
g10734
sI7
g10736
sssg61
g8
sbag2
(g3
g4
NtRp10738
(dp10739
g7
g8
sg9
g8
sg10
g10738
sg11
g8
sg12
(dp10740
I0
(dp10741
sI1
(dp10742
sI2
(dp10743
sI3
(dp10744
sI4
(dp10745
sI5
(dp10746
sI6
(dp10747
sI7
(dp10748
sI8
(dp10749
ssg23
(dp10750
sg25
(dp10751
I0
(dp10752
I2
(dp10753
sI4
(dp10754
sI5
(dp10755
sI6
(dp10756
sI7
(dp10757
sI8
(dp10758
ssI1
(dp10759
I3
(dp10760
sI4
(dp10761
sI5
(dp10762
sI6
(dp10763
sI7
(dp10764
sI8
(dp10765
ssI2
(dp10766
I0
g10753
sI8
(dp10767
sI4
(dp10768
sI6
(dp10769
sI7
(dp10770
ssI3
(dp10771
I8
(dp10772
sI1
g10760
sI5
(dp10773
sI6
(dp10774
sI7
(dp10775
ssI4
(dp10776
I0
g10754
sI1
g10761
sI2
g10768
sI6
(dp10777
sI8
(dp10778
ssI5
(dp10779
I0
g10755
sI1
g10762
sI3
g10773
sI8
(dp10780
sI7
(dp10781
ssI6
(dp10782
I0
g10756
sI1
g10763
sI2
g10769
sI3
g10774
sI4
g10777
sI7
(dp10783
sI8
(dp10784
ssI7
(dp10785
I0
g10757
sI1
g10764
sI2
g10770
sI3
g10775
sI5
g10781
sI6
g10783
sI8
(dp10786
ssI8
(dp10787
I0
g10758
sI1
g10765
sI2
g10767
sI3
g10772
sI4
g10778
sI5
g10780
sI6
g10784
sI7
g10786
sssg61
g8
sba.